Archive member included to satisfy reference by file (symbol)

c:/program files (x86)/gnu arm embedded toolchain/10 2021.10/bin/../lib/gcc/arm-none-eabi/10.3.1/../../../../arm-none-eabi/lib/thumb/v7e-m+fp/hard\libc_nano.a(lib_a-aeabi_atexit.o)
                              build/main.o (__aeabi_atexit)
c:/program files (x86)/gnu arm embedded toolchain/10 2021.10/bin/../lib/gcc/arm-none-eabi/10.3.1/../../../../arm-none-eabi/lib/thumb/v7e-m+fp/hard\libc_nano.a(lib_a-cxa_atexit.o)
                              c:/program files (x86)/gnu arm embedded toolchain/10 2021.10/bin/../lib/gcc/arm-none-eabi/10.3.1/../../../../arm-none-eabi/lib/thumb/v7e-m+fp/hard\libc_nano.a(lib_a-aeabi_atexit.o) (__cxa_atexit)
c:/program files (x86)/gnu arm embedded toolchain/10 2021.10/bin/../lib/gcc/arm-none-eabi/10.3.1/../../../../arm-none-eabi/lib/thumb/v7e-m+fp/hard\libc_nano.a(lib_a-errno.o)
                              build/sysmem.o (__errno)
c:/program files (x86)/gnu arm embedded toolchain/10 2021.10/bin/../lib/gcc/arm-none-eabi/10.3.1/../../../../arm-none-eabi/lib/thumb/v7e-m+fp/hard\libc_nano.a(lib_a-exit.o)
                              c:/program files (x86)/gnu arm embedded toolchain/10 2021.10/bin/../lib/gcc/arm-none-eabi/10.3.1/../../../../arm-none-eabi/lib/thumb/v7e-m+fp/hard/crt0.o (exit)
c:/program files (x86)/gnu arm embedded toolchain/10 2021.10/bin/../lib/gcc/arm-none-eabi/10.3.1/../../../../arm-none-eabi/lib/thumb/v7e-m+fp/hard\libc_nano.a(lib_a-impure.o)
                              c:/program files (x86)/gnu arm embedded toolchain/10 2021.10/bin/../lib/gcc/arm-none-eabi/10.3.1/../../../../arm-none-eabi/lib/thumb/v7e-m+fp/hard\libc_nano.a(lib_a-exit.o) (_global_impure_ptr)
c:/program files (x86)/gnu arm embedded toolchain/10 2021.10/bin/../lib/gcc/arm-none-eabi/10.3.1/../../../../arm-none-eabi/lib/thumb/v7e-m+fp/hard\libc_nano.a(lib_a-init.o)
                              c:/program files (x86)/gnu arm embedded toolchain/10 2021.10/bin/../lib/gcc/arm-none-eabi/10.3.1/../../../../arm-none-eabi/lib/thumb/v7e-m+fp/hard/crt0.o (__libc_init_array)
c:/program files (x86)/gnu arm embedded toolchain/10 2021.10/bin/../lib/gcc/arm-none-eabi/10.3.1/../../../../arm-none-eabi/lib/thumb/v7e-m+fp/hard\libc_nano.a(lib_a-malloc.o)
                              build/cpp_minimal.o (malloc)
c:/program files (x86)/gnu arm embedded toolchain/10 2021.10/bin/../lib/gcc/arm-none-eabi/10.3.1/../../../../arm-none-eabi/lib/thumb/v7e-m+fp/hard\libc_nano.a(lib_a-memcmp.o)
                              build/ff.o (memcmp)
c:/program files (x86)/gnu arm embedded toolchain/10 2021.10/bin/../lib/gcc/arm-none-eabi/10.3.1/../../../../arm-none-eabi/lib/thumb/v7e-m+fp/hard\libc_nano.a(lib_a-memcpy-stub.o)
                              build/ff.o (memcpy)
c:/program files (x86)/gnu arm embedded toolchain/10 2021.10/bin/../lib/gcc/arm-none-eabi/10.3.1/../../../../arm-none-eabi/lib/thumb/v7e-m+fp/hard\libc_nano.a(lib_a-memmove.o)
                              build/IspCmdReceiveData.o (memmove)
c:/program files (x86)/gnu arm embedded toolchain/10 2021.10/bin/../lib/gcc/arm-none-eabi/10.3.1/../../../../arm-none-eabi/lib/thumb/v7e-m+fp/hard\libc_nano.a(lib_a-memset.o)
                              c:/program files (x86)/gnu arm embedded toolchain/10 2021.10/bin/../lib/gcc/arm-none-eabi/10.3.1/../../../../arm-none-eabi/lib/thumb/v7e-m+fp/hard/crt0.o (memset)
c:/program files (x86)/gnu arm embedded toolchain/10 2021.10/bin/../lib/gcc/arm-none-eabi/10.3.1/../../../../arm-none-eabi/lib/thumb/v7e-m+fp/hard\libc_nano.a(lib_a-nano-freer.o)
                              c:/program files (x86)/gnu arm embedded toolchain/10 2021.10/bin/../lib/gcc/arm-none-eabi/10.3.1/../../../../arm-none-eabi/lib/thumb/v7e-m+fp/hard\libc_nano.a(lib_a-malloc.o) (_free_r)
c:/program files (x86)/gnu arm embedded toolchain/10 2021.10/bin/../lib/gcc/arm-none-eabi/10.3.1/../../../../arm-none-eabi/lib/thumb/v7e-m+fp/hard\libc_nano.a(lib_a-nano-mallocr.o)
                              c:/program files (x86)/gnu arm embedded toolchain/10 2021.10/bin/../lib/gcc/arm-none-eabi/10.3.1/../../../../arm-none-eabi/lib/thumb/v7e-m+fp/hard\libc_nano.a(lib_a-malloc.o) (_malloc_r)
c:/program files (x86)/gnu arm embedded toolchain/10 2021.10/bin/../lib/gcc/arm-none-eabi/10.3.1/../../../../arm-none-eabi/lib/thumb/v7e-m+fp/hard\libc_nano.a(lib_a-on_exit_args.o)
                              c:/program files (x86)/gnu arm embedded toolchain/10 2021.10/bin/../lib/gcc/arm-none-eabi/10.3.1/../../../../arm-none-eabi/lib/thumb/v7e-m+fp/hard\libc_nano.a(lib_a-cxa_atexit.o) (__on_exit_args)
c:/program files (x86)/gnu arm embedded toolchain/10 2021.10/bin/../lib/gcc/arm-none-eabi/10.3.1/../../../../arm-none-eabi/lib/thumb/v7e-m+fp/hard\libc_nano.a(lib_a-printf.o)
                              build/IspSubCommandProcessor.o (printf)
c:/program files (x86)/gnu arm embedded toolchain/10 2021.10/bin/../lib/gcc/arm-none-eabi/10.3.1/../../../../arm-none-eabi/lib/thumb/v7e-m+fp/hard\libc_nano.a(lib_a-sbrkr.o)
                              c:/program files (x86)/gnu arm embedded toolchain/10 2021.10/bin/../lib/gcc/arm-none-eabi/10.3.1/../../../../arm-none-eabi/lib/thumb/v7e-m+fp/hard\libc_nano.a(lib_a-nano-mallocr.o) (_sbrk_r)
c:/program files (x86)/gnu arm embedded toolchain/10 2021.10/bin/../lib/gcc/arm-none-eabi/10.3.1/../../../../arm-none-eabi/lib/thumb/v7e-m+fp/hard\libc_nano.a(lib_a-snprintf.o)
                              build/FatFsWrapperSingleton.o (snprintf)
c:/program files (x86)/gnu arm embedded toolchain/10 2021.10/bin/../lib/gcc/arm-none-eabi/10.3.1/../../../../arm-none-eabi/lib/thumb/v7e-m+fp/hard\libc_nano.a(lib_a-strchr.o)
                              build/ff.o (strchr)
c:/program files (x86)/gnu arm embedded toolchain/10 2021.10/bin/../lib/gcc/arm-none-eabi/10.3.1/../../../../arm-none-eabi/lib/thumb/v7e-m+fp/hard\libc_nano.a(lib_a-strcmp.o)
                              build/FatFsWrapperSingleton.o (strcmp)
c:/program files (x86)/gnu arm embedded toolchain/10 2021.10/bin/../lib/gcc/arm-none-eabi/10.3.1/../../../../arm-none-eabi/lib/thumb/v7e-m+fp/hard\libc_nano.a(lib_a-strncpy.o)
                              build/FatFsWrapperSingleton.o (strncpy)
c:/program files (x86)/gnu arm embedded toolchain/10 2021.10/bin/../lib/gcc/arm-none-eabi/10.3.1/../../../../arm-none-eabi/lib/thumb/v7e-m+fp/hard\libc_nano.a(lib_a-findfp.o)
                              c:/program files (x86)/gnu arm embedded toolchain/10 2021.10/bin/../lib/gcc/arm-none-eabi/10.3.1/../../../../arm-none-eabi/lib/thumb/v7e-m+fp/hard\libc_nano.a(lib_a-printf.o) (__sinit)
c:/program files (x86)/gnu arm embedded toolchain/10 2021.10/bin/../lib/gcc/arm-none-eabi/10.3.1/../../../../arm-none-eabi/lib/thumb/v7e-m+fp/hard\libc_nano.a(lib_a-fwalk.o)
                              c:/program files (x86)/gnu arm embedded toolchain/10 2021.10/bin/../lib/gcc/arm-none-eabi/10.3.1/../../../../arm-none-eabi/lib/thumb/v7e-m+fp/hard\libc_nano.a(lib_a-findfp.o) (_fwalk)
c:/program files (x86)/gnu arm embedded toolchain/10 2021.10/bin/../lib/gcc/arm-none-eabi/10.3.1/../../../../arm-none-eabi/lib/thumb/v7e-m+fp/hard\libc_nano.a(lib_a-lock.o)
                              c:/program files (x86)/gnu arm embedded toolchain/10 2021.10/bin/../lib/gcc/arm-none-eabi/10.3.1/../../../../arm-none-eabi/lib/thumb/v7e-m+fp/hard\libc_nano.a(lib_a-findfp.o) (__retarget_lock_init_recursive)
c:/program files (x86)/gnu arm embedded toolchain/10 2021.10/bin/../lib/gcc/arm-none-eabi/10.3.1/../../../../arm-none-eabi/lib/thumb/v7e-m+fp/hard\libc_nano.a(lib_a-mlock.o)
                              c:/program files (x86)/gnu arm embedded toolchain/10 2021.10/bin/../lib/gcc/arm-none-eabi/10.3.1/../../../../arm-none-eabi/lib/thumb/v7e-m+fp/hard\libc_nano.a(lib_a-nano-freer.o) (__malloc_lock)
c:/program files (x86)/gnu arm embedded toolchain/10 2021.10/bin/../lib/gcc/arm-none-eabi/10.3.1/../../../../arm-none-eabi/lib/thumb/v7e-m+fp/hard\libc_nano.a(lib_a-nano-svfprintf.o)
                              c:/program files (x86)/gnu arm embedded toolchain/10 2021.10/bin/../lib/gcc/arm-none-eabi/10.3.1/../../../../arm-none-eabi/lib/thumb/v7e-m+fp/hard\libc_nano.a(lib_a-snprintf.o) (_svfprintf_r)
c:/program files (x86)/gnu arm embedded toolchain/10 2021.10/bin/../lib/gcc/arm-none-eabi/10.3.1/../../../../arm-none-eabi/lib/thumb/v7e-m+fp/hard\libc_nano.a(lib_a-nano-vfprintf.o)
                              c:/program files (x86)/gnu arm embedded toolchain/10 2021.10/bin/../lib/gcc/arm-none-eabi/10.3.1/../../../../arm-none-eabi/lib/thumb/v7e-m+fp/hard\libc_nano.a(lib_a-printf.o) (_vfprintf_r)
c:/program files (x86)/gnu arm embedded toolchain/10 2021.10/bin/../lib/gcc/arm-none-eabi/10.3.1/../../../../arm-none-eabi/lib/thumb/v7e-m+fp/hard\libc_nano.a(lib_a-nano-vfprintf_i.o)
                              c:/program files (x86)/gnu arm embedded toolchain/10 2021.10/bin/../lib/gcc/arm-none-eabi/10.3.1/../../../../arm-none-eabi/lib/thumb/v7e-m+fp/hard\libc_nano.a(lib_a-nano-svfprintf.o) (_printf_i)
c:/program files (x86)/gnu arm embedded toolchain/10 2021.10/bin/../lib/gcc/arm-none-eabi/10.3.1/../../../../arm-none-eabi/lib/thumb/v7e-m+fp/hard\libc_nano.a(lib_a-reent.o)
                              c:/program files (x86)/gnu arm embedded toolchain/10 2021.10/bin/../lib/gcc/arm-none-eabi/10.3.1/../../../../arm-none-eabi/lib/thumb/v7e-m+fp/hard\libc_nano.a(lib_a-sbrkr.o) (errno)
c:/program files (x86)/gnu arm embedded toolchain/10 2021.10/bin/../lib/gcc/arm-none-eabi/10.3.1/../../../../arm-none-eabi/lib/thumb/v7e-m+fp/hard\libc_nano.a(lib_a-stdio.o)
                              c:/program files (x86)/gnu arm embedded toolchain/10 2021.10/bin/../lib/gcc/arm-none-eabi/10.3.1/../../../../arm-none-eabi/lib/thumb/v7e-m+fp/hard\libc_nano.a(lib_a-findfp.o) (__sread)
c:/program files (x86)/gnu arm embedded toolchain/10 2021.10/bin/../lib/gcc/arm-none-eabi/10.3.1/../../../../arm-none-eabi/lib/thumb/v7e-m+fp/hard\libc_nano.a(lib_a-wbuf.o)
                              c:/program files (x86)/gnu arm embedded toolchain/10 2021.10/bin/../lib/gcc/arm-none-eabi/10.3.1/../../../../arm-none-eabi/lib/thumb/v7e-m+fp/hard\libc_nano.a(lib_a-nano-vfprintf.o) (__swbuf_r)
c:/program files (x86)/gnu arm embedded toolchain/10 2021.10/bin/../lib/gcc/arm-none-eabi/10.3.1/../../../../arm-none-eabi/lib/thumb/v7e-m+fp/hard\libc_nano.a(lib_a-writer.o)
                              c:/program files (x86)/gnu arm embedded toolchain/10 2021.10/bin/../lib/gcc/arm-none-eabi/10.3.1/../../../../arm-none-eabi/lib/thumb/v7e-m+fp/hard\libc_nano.a(lib_a-stdio.o) (_write_r)
c:/program files (x86)/gnu arm embedded toolchain/10 2021.10/bin/../lib/gcc/arm-none-eabi/10.3.1/../../../../arm-none-eabi/lib/thumb/v7e-m+fp/hard\libc_nano.a(lib_a-wsetup.o)
                              c:/program files (x86)/gnu arm embedded toolchain/10 2021.10/bin/../lib/gcc/arm-none-eabi/10.3.1/../../../../arm-none-eabi/lib/thumb/v7e-m+fp/hard\libc_nano.a(lib_a-nano-vfprintf.o) (__swsetup_r)
c:/program files (x86)/gnu arm embedded toolchain/10 2021.10/bin/../lib/gcc/arm-none-eabi/10.3.1/../../../../arm-none-eabi/lib/thumb/v7e-m+fp/hard\libc_nano.a(lib_a-closer.o)
                              c:/program files (x86)/gnu arm embedded toolchain/10 2021.10/bin/../lib/gcc/arm-none-eabi/10.3.1/../../../../arm-none-eabi/lib/thumb/v7e-m+fp/hard\libc_nano.a(lib_a-stdio.o) (_close_r)
c:/program files (x86)/gnu arm embedded toolchain/10 2021.10/bin/../lib/gcc/arm-none-eabi/10.3.1/../../../../arm-none-eabi/lib/thumb/v7e-m+fp/hard\libc_nano.a(lib_a-fflush.o)
                              c:/program files (x86)/gnu arm embedded toolchain/10 2021.10/bin/../lib/gcc/arm-none-eabi/10.3.1/../../../../arm-none-eabi/lib/thumb/v7e-m+fp/hard\libc_nano.a(lib_a-findfp.o) (_fflush_r)
c:/program files (x86)/gnu arm embedded toolchain/10 2021.10/bin/../lib/gcc/arm-none-eabi/10.3.1/../../../../arm-none-eabi/lib/thumb/v7e-m+fp/hard\libc_nano.a(lib_a-fvwrite.o)
                              c:/program files (x86)/gnu arm embedded toolchain/10 2021.10/bin/../lib/gcc/arm-none-eabi/10.3.1/../../../../arm-none-eabi/lib/thumb/v7e-m+fp/hard\libc_nano.a(lib_a-nano-vfprintf.o) (__sfvwrite_r)
c:/program files (x86)/gnu arm embedded toolchain/10 2021.10/bin/../lib/gcc/arm-none-eabi/10.3.1/../../../../arm-none-eabi/lib/thumb/v7e-m+fp/hard\libc_nano.a(lib_a-lseekr.o)
                              c:/program files (x86)/gnu arm embedded toolchain/10 2021.10/bin/../lib/gcc/arm-none-eabi/10.3.1/../../../../arm-none-eabi/lib/thumb/v7e-m+fp/hard\libc_nano.a(lib_a-stdio.o) (_lseek_r)
c:/program files (x86)/gnu arm embedded toolchain/10 2021.10/bin/../lib/gcc/arm-none-eabi/10.3.1/../../../../arm-none-eabi/lib/thumb/v7e-m+fp/hard\libc_nano.a(lib_a-makebuf.o)
                              c:/program files (x86)/gnu arm embedded toolchain/10 2021.10/bin/../lib/gcc/arm-none-eabi/10.3.1/../../../../arm-none-eabi/lib/thumb/v7e-m+fp/hard\libc_nano.a(lib_a-wsetup.o) (__smakebuf_r)
c:/program files (x86)/gnu arm embedded toolchain/10 2021.10/bin/../lib/gcc/arm-none-eabi/10.3.1/../../../../arm-none-eabi/lib/thumb/v7e-m+fp/hard\libc_nano.a(lib_a-memchr.o)
                              c:/program files (x86)/gnu arm embedded toolchain/10 2021.10/bin/../lib/gcc/arm-none-eabi/10.3.1/../../../../arm-none-eabi/lib/thumb/v7e-m+fp/hard\libc_nano.a(lib_a-nano-svfprintf.o) (memchr)
c:/program files (x86)/gnu arm embedded toolchain/10 2021.10/bin/../lib/gcc/arm-none-eabi/10.3.1/../../../../arm-none-eabi/lib/thumb/v7e-m+fp/hard\libc_nano.a(lib_a-nano-reallocr.o)
                              c:/program files (x86)/gnu arm embedded toolchain/10 2021.10/bin/../lib/gcc/arm-none-eabi/10.3.1/../../../../arm-none-eabi/lib/thumb/v7e-m+fp/hard\libc_nano.a(lib_a-nano-svfprintf.o) (_realloc_r)
c:/program files (x86)/gnu arm embedded toolchain/10 2021.10/bin/../lib/gcc/arm-none-eabi/10.3.1/../../../../arm-none-eabi/lib/thumb/v7e-m+fp/hard\libc_nano.a(lib_a-readr.o)
                              c:/program files (x86)/gnu arm embedded toolchain/10 2021.10/bin/../lib/gcc/arm-none-eabi/10.3.1/../../../../arm-none-eabi/lib/thumb/v7e-m+fp/hard\libc_nano.a(lib_a-stdio.o) (_read_r)
c:/program files (x86)/gnu arm embedded toolchain/10 2021.10/bin/../lib/gcc/arm-none-eabi/10.3.1/../../../../arm-none-eabi/lib/thumb/v7e-m+fp/hard\libc_nano.a(lib_a-fstatr.o)
                              c:/program files (x86)/gnu arm embedded toolchain/10 2021.10/bin/../lib/gcc/arm-none-eabi/10.3.1/../../../../arm-none-eabi/lib/thumb/v7e-m+fp/hard\libc_nano.a(lib_a-makebuf.o) (_fstat_r)
c:/program files (x86)/gnu arm embedded toolchain/10 2021.10/bin/../lib/gcc/arm-none-eabi/10.3.1/../../../../arm-none-eabi/lib/thumb/v7e-m+fp/hard\libc_nano.a(lib_a-isattyr.o)
                              c:/program files (x86)/gnu arm embedded toolchain/10 2021.10/bin/../lib/gcc/arm-none-eabi/10.3.1/../../../../arm-none-eabi/lib/thumb/v7e-m+fp/hard\libc_nano.a(lib_a-makebuf.o) (_isatty_r)
c:/program files (x86)/gnu arm embedded toolchain/10 2021.10/bin/../lib/gcc/arm-none-eabi/10.3.1/../../../../arm-none-eabi/lib/thumb/v7e-m+fp/hard\libc_nano.a(lib_a-nano-msizer.o)
                              c:/program files (x86)/gnu arm embedded toolchain/10 2021.10/bin/../lib/gcc/arm-none-eabi/10.3.1/../../../../arm-none-eabi/lib/thumb/v7e-m+fp/hard\libc_nano.a(lib_a-nano-reallocr.o) (_malloc_usable_size_r)
c:/program files (x86)/gnu arm embedded toolchain/10 2021.10/bin/../lib/gcc/arm-none-eabi/10.3.1/thumb/v7e-m+fp/hard\libgcc.a(_aeabi_uldivmod.o)
                              build/stm32f4xx_hal_rcc.o (__aeabi_uldivmod)
c:/program files (x86)/gnu arm embedded toolchain/10 2021.10/bin/../lib/gcc/arm-none-eabi/10.3.1/thumb/v7e-m+fp/hard\libgcc.a(_udivmoddi4.o)
                              c:/program files (x86)/gnu arm embedded toolchain/10 2021.10/bin/../lib/gcc/arm-none-eabi/10.3.1/thumb/v7e-m+fp/hard\libgcc.a(_aeabi_uldivmod.o) (__udivmoddi4)
c:/program files (x86)/gnu arm embedded toolchain/10 2021.10/bin/../lib/gcc/arm-none-eabi/10.3.1/thumb/v7e-m+fp/hard\libgcc.a(_dvmd_tls.o)
                              c:/program files (x86)/gnu arm embedded toolchain/10 2021.10/bin/../lib/gcc/arm-none-eabi/10.3.1/thumb/v7e-m+fp/hard\libgcc.a(_aeabi_uldivmod.o) (__aeabi_ldiv0)

Discarded input sections

 .text          0x00000000        0x0 c:/program files (x86)/gnu arm embedded toolchain/10 2021.10/bin/../lib/gcc/arm-none-eabi/10.3.1/thumb/v7e-m+fp/hard/crti.o
 .data          0x00000000        0x0 c:/program files (x86)/gnu arm embedded toolchain/10 2021.10/bin/../lib/gcc/arm-none-eabi/10.3.1/thumb/v7e-m+fp/hard/crti.o
 .bss           0x00000000        0x0 c:/program files (x86)/gnu arm embedded toolchain/10 2021.10/bin/../lib/gcc/arm-none-eabi/10.3.1/thumb/v7e-m+fp/hard/crti.o
 .rodata        0x00000000       0x24 c:/program files (x86)/gnu arm embedded toolchain/10 2021.10/bin/../lib/gcc/arm-none-eabi/10.3.1/thumb/v7e-m+fp/hard/crtbegin.o
 .text          0x00000000       0x7c c:/program files (x86)/gnu arm embedded toolchain/10 2021.10/bin/../lib/gcc/arm-none-eabi/10.3.1/../../../../arm-none-eabi/lib/thumb/v7e-m+fp/hard/crt0.o
 .data          0x00000000        0x0 c:/program files (x86)/gnu arm embedded toolchain/10 2021.10/bin/../lib/gcc/arm-none-eabi/10.3.1/../../../../arm-none-eabi/lib/thumb/v7e-m+fp/hard/crt0.o
 .bss           0x00000000        0x0 c:/program files (x86)/gnu arm embedded toolchain/10 2021.10/bin/../lib/gcc/arm-none-eabi/10.3.1/../../../../arm-none-eabi/lib/thumb/v7e-m+fp/hard/crt0.o
 .ARM.extab     0x00000000        0x0 c:/program files (x86)/gnu arm embedded toolchain/10 2021.10/bin/../lib/gcc/arm-none-eabi/10.3.1/../../../../arm-none-eabi/lib/thumb/v7e-m+fp/hard/crt0.o
 .ARM.exidx     0x00000000       0x10 c:/program files (x86)/gnu arm embedded toolchain/10 2021.10/bin/../lib/gcc/arm-none-eabi/10.3.1/../../../../arm-none-eabi/lib/thumb/v7e-m+fp/hard/crt0.o
 .ARM.attributes
                0x00000000       0x1c c:/program files (x86)/gnu arm embedded toolchain/10 2021.10/bin/../lib/gcc/arm-none-eabi/10.3.1/../../../../arm-none-eabi/lib/thumb/v7e-m+fp/hard/crt0.o
 .text          0x00000000        0x0 build/stm32f4xx_it.o
 .data          0x00000000        0x0 build/stm32f4xx_it.o
 .bss           0x00000000        0x0 build/stm32f4xx_it.o
 .text          0x00000000        0x0 build/stm32f4xx_hal_msp.o
 .data          0x00000000        0x0 build/stm32f4xx_hal_msp.o
 .bss           0x00000000        0x0 build/stm32f4xx_hal_msp.o
 .text          0x00000000        0x0 build/Darin3Cart_Driver.o
 .data          0x00000000        0x0 build/Darin3Cart_Driver.o
 .bss           0x00000000        0x0 build/Darin3Cart_Driver.o
 .text.get_CD2SLT_pin
                0x00000000        0xc build/Darin3Cart_Driver.o
 .text.post_read_compact_flash
                0x00000000       0x34 build/Darin3Cart_Driver.o
 .text.post_write_compact_flash
                0x00000000       0x34 build/Darin3Cart_Driver.o
 .text.D3_Cartridge_Check
                0x00000000       0x74 build/Darin3Cart_Driver.o
 .text.Read_address_port
                0x00000000       0x5c build/Darin3Cart_Driver.o
 .text.pre_read_compact_flash
                0x00000000       0x58 build/Darin3Cart_Driver.o
 .text.pre_write_compact_flash
                0x00000000       0x58 build/Darin3Cart_Driver.o
 .text.generic_CF_CMD
                0x00000000       0xa0 build/Darin3Cart_Driver.o
 .text.command_for_read
                0x00000000      0x140 build/Darin3Cart_Driver.o
 .text.command_for_write
                0x00000000      0x140 build/Darin3Cart_Driver.o
 .text.compact_flash_read
                0x00000000       0x5c build/Darin3Cart_Driver.o
 .text.compact_flash_ready
                0x00000000       0x30 build/Darin3Cart_Driver.o
 .text.check_stat_of_compact_flash
                0x00000000       0x60 build/Darin3Cart_Driver.o
 .text.read_compact_flash
                0x00000000       0x2a build/Darin3Cart_Driver.o
 .text.compact_flash_write
                0x00000000       0x98 build/Darin3Cart_Driver.o
 .text.write_compact_flash
                0x00000000       0x2a build/Darin3Cart_Driver.o
 .bss.Address_Flash_Page1
                0x00000000        0x2 build/Darin3Cart_Driver.o
 .bss.sector_number
                0x00000000        0x2 build/Darin3Cart_Driver.o
 .text          0x00000000        0x0 build/usb_device.o
 .data          0x00000000        0x0 build/usb_device.o
 .bss           0x00000000        0x0 build/usb_device.o
 .text          0x00000000        0x0 build/usbd_desc.o
 .data          0x00000000        0x0 build/usbd_desc.o
 .bss           0x00000000        0x0 build/usbd_desc.o
 .text          0x00000000        0x0 build/usbd_cdc_if.o
 .data          0x00000000        0x0 build/usbd_cdc_if.o
 .bss           0x00000000        0x0 build/usbd_cdc_if.o
 .text          0x00000000        0x0 build/usbd_conf.o
 .data          0x00000000        0x0 build/usbd_conf.o
 .bss           0x00000000        0x0 build/usbd_conf.o
 .text.HAL_PCD_MspDeInit
                0x00000000       0x30 build/usbd_conf.o
 .text.USBD_LL_Delay
                0x00000000        0x8 build/usbd_conf.o
 .text.USBD_LL_DeInit
                0x00000000       0x10 build/usbd_conf.o
 .text.USBD_LL_Stop
                0x00000000       0x10 build/usbd_conf.o
 .text.USBD_LL_FlushEP
                0x00000000       0x10 build/usbd_conf.o
 .text          0x00000000        0x0 build/stm32f4xx_hal_pcd.o
 .data          0x00000000        0x0 build/stm32f4xx_hal_pcd.o
 .bss           0x00000000        0x0 build/stm32f4xx_hal_pcd.o
 .text.HAL_PCD_MspInit
                0x00000000        0x2 build/stm32f4xx_hal_pcd.o
 .text.HAL_PCD_MspDeInit
                0x00000000        0x2 build/stm32f4xx_hal_pcd.o
 .text.HAL_PCD_DeInit
                0x00000000       0x2e build/stm32f4xx_hal_pcd.o
 .text.HAL_PCD_Stop
                0x00000000       0x4c build/stm32f4xx_hal_pcd.o
 .text.HAL_PCD_WKUP_IRQHandler
                0x00000000       0x20 build/stm32f4xx_hal_pcd.o
 .text.HAL_PCD_DataOutStageCallback
                0x00000000        0x2 build/stm32f4xx_hal_pcd.o
 .text.HAL_PCD_DataInStageCallback
                0x00000000        0x2 build/stm32f4xx_hal_pcd.o
 .text.HAL_PCD_SetupStageCallback
                0x00000000        0x2 build/stm32f4xx_hal_pcd.o
 .text.HAL_PCD_SOFCallback
                0x00000000        0x2 build/stm32f4xx_hal_pcd.o
 .text.HAL_PCD_ResetCallback
                0x00000000        0x2 build/stm32f4xx_hal_pcd.o
 .text.HAL_PCD_SuspendCallback
                0x00000000        0x2 build/stm32f4xx_hal_pcd.o
 .text.HAL_PCD_ResumeCallback
                0x00000000        0x2 build/stm32f4xx_hal_pcd.o
 .text.HAL_PCD_ISOOUTIncompleteCallback
                0x00000000        0x2 build/stm32f4xx_hal_pcd.o
 .text.HAL_PCD_ISOINIncompleteCallback
                0x00000000        0x2 build/stm32f4xx_hal_pcd.o
 .text.HAL_PCD_ConnectCallback
                0x00000000        0x2 build/stm32f4xx_hal_pcd.o
 .text.HAL_PCD_DisconnectCallback
                0x00000000        0x2 build/stm32f4xx_hal_pcd.o
 .text.HAL_PCD_DevConnect
                0x00000000       0x3e build/stm32f4xx_hal_pcd.o
 .text.HAL_PCD_DevDisconnect
                0x00000000       0x3e build/stm32f4xx_hal_pcd.o
 .text.HAL_PCD_EP_Flush
                0x00000000       0x36 build/stm32f4xx_hal_pcd.o
 .text.HAL_PCD_ActivateRemoteWakeup
                0x00000000        0xa build/stm32f4xx_hal_pcd.o
 .text.HAL_PCD_DeActivateRemoteWakeup
                0x00000000        0xa build/stm32f4xx_hal_pcd.o
 .text.HAL_PCD_GetState
                0x00000000        0x6 build/stm32f4xx_hal_pcd.o
 .text.HAL_PCD_SetTestMode
                0x00000000       0x24 build/stm32f4xx_hal_pcd.o
 .text          0x00000000        0x0 build/stm32f4xx_hal_pcd_ex.o
 .data          0x00000000        0x0 build/stm32f4xx_hal_pcd_ex.o
 .bss           0x00000000        0x0 build/stm32f4xx_hal_pcd_ex.o
 .text.HAL_PCDEx_BCD_Callback
                0x00000000        0x2 build/stm32f4xx_hal_pcd_ex.o
 .text          0x00000000        0x0 build/stm32f4xx_ll_usb.o
 .data          0x00000000        0x0 build/stm32f4xx_ll_usb.o
 .bss           0x00000000        0x0 build/stm32f4xx_ll_usb.o
 .text.USB_ActivateDedicatedEndpoint
                0x00000000       0x9c build/stm32f4xx_ll_usb.o
 .text.USB_DeactivateDedicatedEndpoint
                0x00000000       0xa0 build/stm32f4xx_ll_usb.o
 .text.USB_StopDevice
                0x00000000       0x40 build/stm32f4xx_ll_usb.o
 .text.USB_ReadChInterrupts
                0x00000000       0x10 build/stm32f4xx_ll_usb.o
 .text.USB_ClearInterrupts
                0x00000000        0x8 build/stm32f4xx_ll_usb.o
 .text.USB_HostInit
                0x00000000       0xdc build/stm32f4xx_ll_usb.o
 .text.USB_InitFSLSPClkSel
                0x00000000       0x42 build/stm32f4xx_ll_usb.o
 .text.USB_ResetPort
                0x00000000       0x3e build/stm32f4xx_ll_usb.o
 .text.USB_DriveVbus
                0x00000000       0x46 build/stm32f4xx_ll_usb.o
 .text.USB_GetHostSpeed
                0x00000000       0x16 build/stm32f4xx_ll_usb.o
 .text.USB_GetCurrentFrame
                0x00000000        0xa build/stm32f4xx_ll_usb.o
 .text.USB_HC_Init
                0x00000000      0x11c build/stm32f4xx_ll_usb.o
 .text.USB_HC_StartXfer
                0x00000000      0x288 build/stm32f4xx_ll_usb.o
 .text.USB_HC_ReadInterrupt
                0x00000000        0xa build/stm32f4xx_ll_usb.o
 .text.USB_HC_Halt
                0x00000000       0xfc build/stm32f4xx_ll_usb.o
 .text.USB_DoPing
                0x00000000       0x24 build/stm32f4xx_ll_usb.o
 .text.USB_StopHost
                0x00000000       0x92 build/stm32f4xx_ll_usb.o
 .text.USB_ActivateRemoteWakeup
                0x00000000       0x1a build/stm32f4xx_ll_usb.o
 .text.USB_DeActivateRemoteWakeup
                0x00000000       0x10 build/stm32f4xx_ll_usb.o
 .text          0x00000000        0x0 build/stm32f4xx_hal_rcc.o
 .data          0x00000000        0x0 build/stm32f4xx_hal_rcc.o
 .bss           0x00000000        0x0 build/stm32f4xx_hal_rcc.o
 .text.HAL_RCC_DeInit
                0x00000000        0x4 build/stm32f4xx_hal_rcc.o
 .text.HAL_RCC_MCOConfig
                0x00000000       0x9c build/stm32f4xx_hal_rcc.o
 .text.HAL_RCC_EnableCSS
                0x00000000        0xc build/stm32f4xx_hal_rcc.o
 .text.HAL_RCC_DisableCSS
                0x00000000        0xc build/stm32f4xx_hal_rcc.o
 .text.HAL_RCC_GetPCLK1Freq
                0x00000000       0x20 build/stm32f4xx_hal_rcc.o
 .text.HAL_RCC_GetPCLK2Freq
                0x00000000       0x20 build/stm32f4xx_hal_rcc.o
 .text.HAL_RCC_GetOscConfig
                0x00000000       0xcc build/stm32f4xx_hal_rcc.o
 .text.HAL_RCC_GetClockConfig
                0x00000000       0x3c build/stm32f4xx_hal_rcc.o
 .text.HAL_RCC_CSSCallback
                0x00000000        0x2 build/stm32f4xx_hal_rcc.o
 .text.HAL_RCC_NMI_IRQHandler
                0x00000000       0x20 build/stm32f4xx_hal_rcc.o
 .text          0x00000000        0x0 build/stm32f4xx_hal_rcc_ex.o
 .data          0x00000000        0x0 build/stm32f4xx_hal_rcc_ex.o
 .bss           0x00000000        0x0 build/stm32f4xx_hal_rcc_ex.o
 .text.HAL_RCCEx_PeriphCLKConfig
                0x00000000      0x170 build/stm32f4xx_hal_rcc_ex.o
 .text.HAL_RCCEx_GetPeriphCLKConfig
                0x00000000       0x50 build/stm32f4xx_hal_rcc_ex.o
 .text.HAL_RCCEx_GetPeriphCLKFreq
                0x00000000       0x74 build/stm32f4xx_hal_rcc_ex.o
 .text.HAL_RCCEx_SelectLSEMode
                0x00000000       0x20 build/stm32f4xx_hal_rcc_ex.o
 .text.HAL_RCCEx_EnablePLLI2S
                0x00000000       0x6c build/stm32f4xx_hal_rcc_ex.o
 .text.HAL_RCCEx_DisablePLLI2S
                0x00000000       0x34 build/stm32f4xx_hal_rcc_ex.o
 .text.HAL_RCC_DeInit
                0x00000000      0x13c build/stm32f4xx_hal_rcc_ex.o
 .debug_info    0x00000000      0x775 build/stm32f4xx_hal_rcc_ex.o
 .debug_abbrev  0x00000000      0x1a1 build/stm32f4xx_hal_rcc_ex.o
 .debug_loc     0x00000000      0x477 build/stm32f4xx_hal_rcc_ex.o
 .debug_aranges
                0x00000000       0x50 build/stm32f4xx_hal_rcc_ex.o
 .debug_ranges  0x00000000       0x40 build/stm32f4xx_hal_rcc_ex.o
 .debug_line    0x00000000      0x66f build/stm32f4xx_hal_rcc_ex.o
 .debug_str     0x00000000      0x508 build/stm32f4xx_hal_rcc_ex.o
 .comment       0x00000000       0x4a build/stm32f4xx_hal_rcc_ex.o
 .debug_frame   0x00000000       0xb0 build/stm32f4xx_hal_rcc_ex.o
 .ARM.attributes
                0x00000000       0x34 build/stm32f4xx_hal_rcc_ex.o
 .text          0x00000000        0x0 build/stm32f4xx_hal_flash.o
 .data          0x00000000        0x0 build/stm32f4xx_hal_flash.o
 .bss           0x00000000        0x0 build/stm32f4xx_hal_flash.o
 .text.FLASH_Program_DoubleWord
                0x00000000       0x30 build/stm32f4xx_hal_flash.o
 .text.FLASH_Program_Word
                0x00000000       0x24 build/stm32f4xx_hal_flash.o
 .text.FLASH_Program_HalfWord
                0x00000000       0x24 build/stm32f4xx_hal_flash.o
 .text.FLASH_Program_Byte
                0x00000000       0x20 build/stm32f4xx_hal_flash.o
 .text.FLASH_SetErrorCode
                0x00000000       0xa8 build/stm32f4xx_hal_flash.o
 .text.HAL_FLASH_Program_IT
                0x00000000       0x54 build/stm32f4xx_hal_flash.o
 .text.HAL_FLASH_EndOfOperationCallback
                0x00000000        0x2 build/stm32f4xx_hal_flash.o
 .text.HAL_FLASH_OperationErrorCallback
                0x00000000        0x2 build/stm32f4xx_hal_flash.o
 .text.HAL_FLASH_IRQHandler
                0x00000000       0xec build/stm32f4xx_hal_flash.o
 .text.HAL_FLASH_Unlock
                0x00000000       0x30 build/stm32f4xx_hal_flash.o
 .text.HAL_FLASH_Lock
                0x00000000       0x14 build/stm32f4xx_hal_flash.o
 .text.HAL_FLASH_OB_Unlock
                0x00000000       0x28 build/stm32f4xx_hal_flash.o
 .text.HAL_FLASH_OB_Lock
                0x00000000       0x14 build/stm32f4xx_hal_flash.o
 .text.HAL_FLASH_GetError
                0x00000000        0xc build/stm32f4xx_hal_flash.o
 .text.FLASH_WaitForLastOperation
                0x00000000       0x60 build/stm32f4xx_hal_flash.o
 .text.HAL_FLASH_Program
                0x00000000       0x7c build/stm32f4xx_hal_flash.o
 .text.HAL_FLASH_OB_Launch
                0x00000000       0x1c build/stm32f4xx_hal_flash.o
 .bss.pFlash    0x00000000       0x20 build/stm32f4xx_hal_flash.o
 .debug_info    0x00000000      0x7c4 build/stm32f4xx_hal_flash.o
 .debug_abbrev  0x00000000      0x2c6 build/stm32f4xx_hal_flash.o
 .debug_loc     0x00000000      0x423 build/stm32f4xx_hal_flash.o
 .debug_aranges
                0x00000000       0xa0 build/stm32f4xx_hal_flash.o
 .debug_ranges  0x00000000       0x90 build/stm32f4xx_hal_flash.o
 .debug_line    0x00000000      0x732 build/stm32f4xx_hal_flash.o
 .debug_str     0x00000000      0x543 build/stm32f4xx_hal_flash.o
 .comment       0x00000000       0x4a build/stm32f4xx_hal_flash.o
 .debug_frame   0x00000000      0x164 build/stm32f4xx_hal_flash.o
 .ARM.attributes
                0x00000000       0x34 build/stm32f4xx_hal_flash.o
 .text          0x00000000        0x0 build/stm32f4xx_hal_flash_ex.o
 .data          0x00000000        0x0 build/stm32f4xx_hal_flash_ex.o
 .bss           0x00000000        0x0 build/stm32f4xx_hal_flash_ex.o
 .text.FLASH_MassErase
                0x00000000       0x24 build/stm32f4xx_hal_flash_ex.o
 .text.FLASH_OB_BOR_LevelConfig
                0x00000000       0x18 build/stm32f4xx_hal_flash_ex.o
 .text.FLASH_OB_GetUser
                0x00000000       0x10 build/stm32f4xx_hal_flash_ex.o
 .text.FLASH_OB_GetWRP
                0x00000000        0xc build/stm32f4xx_hal_flash_ex.o
 .text.FLASH_OB_GetRDP
                0x00000000       0x1c build/stm32f4xx_hal_flash_ex.o
 .text.FLASH_OB_GetBOR
                0x00000000       0x10 build/stm32f4xx_hal_flash_ex.o
 .text.FLASH_OB_EnableWRP
                0x00000000       0x20 build/stm32f4xx_hal_flash_ex.o
 .text.FLASH_OB_DisableWRP
                0x00000000       0x20 build/stm32f4xx_hal_flash_ex.o
 .text.FLASH_OB_RDP_LevelConfig
                0x00000000       0x18 build/stm32f4xx_hal_flash_ex.o
 .text.FLASH_OB_UserConfig
                0x00000000       0x2c build/stm32f4xx_hal_flash_ex.o
 .text.FLASH_OB_EnablePCROP
                0x00000000       0x20 build/stm32f4xx_hal_flash_ex.o
 .text.FLASH_OB_DisablePCROP
                0x00000000       0x20 build/stm32f4xx_hal_flash_ex.o
 .text.HAL_FLASHEx_OBProgram
                0x00000000       0x84 build/stm32f4xx_hal_flash_ex.o
 .text.HAL_FLASHEx_OBGetConfig
                0x00000000       0x22 build/stm32f4xx_hal_flash_ex.o
 .text.HAL_FLASHEx_AdvOBProgram
                0x00000000       0x24 build/stm32f4xx_hal_flash_ex.o
 .text.HAL_FLASHEx_AdvOBGetConfig
                0x00000000        0xc build/stm32f4xx_hal_flash_ex.o
 .text.HAL_FLASHEx_OB_SelectPCROP
                0x00000000       0x14 build/stm32f4xx_hal_flash_ex.o
 .text.HAL_FLASHEx_OB_DeSelectPCROP
                0x00000000       0x14 build/stm32f4xx_hal_flash_ex.o
 .text.FLASH_Erase_Sector
                0x00000000       0x54 build/stm32f4xx_hal_flash_ex.o
 .text.HAL_FLASHEx_Erase_IT
                0x00000000       0x58 build/stm32f4xx_hal_flash_ex.o
 .text.FLASH_FlushCaches
                0x00000000       0x60 build/stm32f4xx_hal_flash_ex.o
 .text.HAL_FLASHEx_Erase
                0x00000000       0x94 build/stm32f4xx_hal_flash_ex.o
 .debug_info    0x00000000      0xab6 build/stm32f4xx_hal_flash_ex.o
 .debug_abbrev  0x00000000      0x2b2 build/stm32f4xx_hal_flash_ex.o
 .debug_loc     0x00000000      0x81a build/stm32f4xx_hal_flash_ex.o
 .debug_aranges
                0x00000000       0xc8 build/stm32f4xx_hal_flash_ex.o
 .debug_ranges  0x00000000       0xb8 build/stm32f4xx_hal_flash_ex.o
 .debug_line    0x00000000      0x809 build/stm32f4xx_hal_flash_ex.o
 .debug_str     0x00000000      0x666 build/stm32f4xx_hal_flash_ex.o
 .comment       0x00000000       0x4a build/stm32f4xx_hal_flash_ex.o
 .debug_frame   0x00000000      0x1dc build/stm32f4xx_hal_flash_ex.o
 .ARM.attributes
                0x00000000       0x34 build/stm32f4xx_hal_flash_ex.o
 .text          0x00000000        0x0 build/stm32f4xx_hal_flash_ramfunc.o
 .data          0x00000000        0x0 build/stm32f4xx_hal_flash_ramfunc.o
 .bss           0x00000000        0x0 build/stm32f4xx_hal_flash_ramfunc.o
 .RamFunc       0x00000000       0xc0 build/stm32f4xx_hal_flash_ramfunc.o
 .debug_info    0x00000000      0x419 build/stm32f4xx_hal_flash_ramfunc.o
 .debug_abbrev  0x00000000      0x104 build/stm32f4xx_hal_flash_ramfunc.o
 .debug_loc     0x00000000       0xb0 build/stm32f4xx_hal_flash_ramfunc.o
 .debug_aranges
                0x00000000       0x38 build/stm32f4xx_hal_flash_ramfunc.o
 .debug_ranges  0x00000000       0x28 build/stm32f4xx_hal_flash_ramfunc.o
 .debug_line    0x00000000      0x210 build/stm32f4xx_hal_flash_ramfunc.o
 .debug_str     0x00000000      0x3a8 build/stm32f4xx_hal_flash_ramfunc.o
 .comment       0x00000000       0x4a build/stm32f4xx_hal_flash_ramfunc.o
 .debug_frame   0x00000000       0x70 build/stm32f4xx_hal_flash_ramfunc.o
 .ARM.attributes
                0x00000000       0x34 build/stm32f4xx_hal_flash_ramfunc.o
 .text          0x00000000        0x0 build/stm32f4xx_hal_gpio.o
 .data          0x00000000        0x0 build/stm32f4xx_hal_gpio.o
 .bss           0x00000000        0x0 build/stm32f4xx_hal_gpio.o
 .text.HAL_GPIO_DeInit
                0x00000000      0x110 build/stm32f4xx_hal_gpio.o
 .text.HAL_GPIO_ReadPin
                0x00000000        0xe build/stm32f4xx_hal_gpio.o
 .text.HAL_GPIO_TogglePin
                0x00000000       0x12 build/stm32f4xx_hal_gpio.o
 .text.HAL_GPIO_LockPin
                0x00000000       0x2e build/stm32f4xx_hal_gpio.o
 .text.HAL_GPIO_EXTI_Callback
                0x00000000        0x2 build/stm32f4xx_hal_gpio.o
 .text.HAL_GPIO_EXTI_IRQHandler
                0x00000000       0x1c build/stm32f4xx_hal_gpio.o
 .text          0x00000000        0x0 build/stm32f4xx_hal_dma_ex.o
 .data          0x00000000        0x0 build/stm32f4xx_hal_dma_ex.o
 .bss           0x00000000        0x0 build/stm32f4xx_hal_dma_ex.o
 .text.DMA_MultiBufferSetConfig
                0x00000000       0x24 build/stm32f4xx_hal_dma_ex.o
 .text.HAL_DMAEx_MultiBufferStart
                0x00000000       0x5e build/stm32f4xx_hal_dma_ex.o
 .text.HAL_DMAEx_MultiBufferStart_IT
                0x00000000      0xf00 build/stm32f4xx_hal_dma_ex.o
 .text.HAL_DMAEx_ChangeMemory
                0x00000000       0x10 build/stm32f4xx_hal_dma_ex.o
 .debug_info    0x00000000      0x5fd build/stm32f4xx_hal_dma_ex.o
 .debug_abbrev  0x00000000      0x1a7 build/stm32f4xx_hal_dma_ex.o
 .debug_loc     0x00000000      0x49a build/stm32f4xx_hal_dma_ex.o
 .debug_aranges
                0x00000000       0x38 build/stm32f4xx_hal_dma_ex.o
 .debug_ranges  0x00000000       0x28 build/stm32f4xx_hal_dma_ex.o
 .debug_line    0x00000000      0x9f6 build/stm32f4xx_hal_dma_ex.o
 .debug_str     0x00000000      0x542 build/stm32f4xx_hal_dma_ex.o
 .comment       0x00000000       0x4a build/stm32f4xx_hal_dma_ex.o
 .debug_frame   0x00000000       0x74 build/stm32f4xx_hal_dma_ex.o
 .ARM.attributes
                0x00000000       0x34 build/stm32f4xx_hal_dma_ex.o
 .text          0x00000000        0x0 build/stm32f4xx_hal_dma.o
 .data          0x00000000        0x0 build/stm32f4xx_hal_dma.o
 .bss           0x00000000        0x0 build/stm32f4xx_hal_dma.o
 .text.DMA_SetConfig
                0x00000000       0x2c build/stm32f4xx_hal_dma.o
 .text.DMA_CalcBaseAndBitshift
                0x00000000       0x44 build/stm32f4xx_hal_dma.o
 .text.DMA_CheckFifoParam
                0x00000000       0x8e build/stm32f4xx_hal_dma.o
 .text.HAL_DMA_Init
                0x00000000       0xcc build/stm32f4xx_hal_dma.o
 .text.HAL_DMA_DeInit
                0x00000000       0x64 build/stm32f4xx_hal_dma.o
 .text.HAL_DMA_Start
                0x00000000       0x48 build/stm32f4xx_hal_dma.o
 .text.HAL_DMA_Start_IT
                0x00000000       0x6a build/stm32f4xx_hal_dma.o
 .text.HAL_DMA_Abort
                0x00000000       0x94 build/stm32f4xx_hal_dma.o
 .text.HAL_DMA_Abort_IT
                0x00000000       0x26 build/stm32f4xx_hal_dma.o
 .text.HAL_DMA_PollForTransfer
                0x00000000      0x128 build/stm32f4xx_hal_dma.o
 .text.HAL_DMA_IRQHandler
                0x00000000      0x1dc build/stm32f4xx_hal_dma.o
 .text.HAL_DMA_RegisterCallback
                0x00000000       0x5a build/stm32f4xx_hal_dma.o
 .text.HAL_DMA_UnRegisterCallback
                0x00000000       0x6e build/stm32f4xx_hal_dma.o
 .text.HAL_DMA_GetState
                0x00000000        0x6 build/stm32f4xx_hal_dma.o
 .text.HAL_DMA_GetError
                0x00000000        0x4 build/stm32f4xx_hal_dma.o
 .rodata.flagBitshiftOffset.0
                0x00000000        0x8 build/stm32f4xx_hal_dma.o
 .debug_info    0x00000000      0xbc9 build/stm32f4xx_hal_dma.o
 .debug_abbrev  0x00000000      0x2bf build/stm32f4xx_hal_dma.o
 .debug_loc     0x00000000      0xd6d build/stm32f4xx_hal_dma.o
 .debug_aranges
                0x00000000       0x90 build/stm32f4xx_hal_dma.o
 .debug_ranges  0x00000000       0x80 build/stm32f4xx_hal_dma.o
 .debug_line    0x00000000      0xe39 build/stm32f4xx_hal_dma.o
 .debug_str     0x00000000      0x76f build/stm32f4xx_hal_dma.o
 .comment       0x00000000       0x4a build/stm32f4xx_hal_dma.o
 .debug_frame   0x00000000      0x188 build/stm32f4xx_hal_dma.o
 .ARM.attributes
                0x00000000       0x34 build/stm32f4xx_hal_dma.o
 .text          0x00000000        0x0 build/stm32f4xx_hal_pwr.o
 .data          0x00000000        0x0 build/stm32f4xx_hal_pwr.o
 .bss           0x00000000        0x0 build/stm32f4xx_hal_pwr.o
 .text.HAL_PWR_DeInit
                0x00000000       0x18 build/stm32f4xx_hal_pwr.o
 .text.HAL_PWR_EnableBkUpAccess
                0x00000000       0x1c build/stm32f4xx_hal_pwr.o
 .text.HAL_PWR_DisableBkUpAccess
                0x00000000       0x1c build/stm32f4xx_hal_pwr.o
 .text.HAL_PWR_ConfigPVD
                0x00000000       0x84 build/stm32f4xx_hal_pwr.o
 .text.HAL_PWR_EnablePVD
                0x00000000        0xc build/stm32f4xx_hal_pwr.o
 .text.HAL_PWR_DisablePVD
                0x00000000        0xc build/stm32f4xx_hal_pwr.o
 .text.HAL_PWR_EnableWakeUpPin
                0x00000000       0x10 build/stm32f4xx_hal_pwr.o
 .text.HAL_PWR_DisableWakeUpPin
                0x00000000       0x10 build/stm32f4xx_hal_pwr.o
 .text.HAL_PWR_EnterSLEEPMode
                0x00000000       0x24 build/stm32f4xx_hal_pwr.o
 .text.HAL_PWR_EnterSTOPMode
                0x00000000       0x3c build/stm32f4xx_hal_pwr.o
 .text.HAL_PWR_EnterSTANDBYMode
                0x00000000       0x20 build/stm32f4xx_hal_pwr.o
 .text.HAL_PWR_PVDCallback
                0x00000000        0x2 build/stm32f4xx_hal_pwr.o
 .text.HAL_PWR_PVD_IRQHandler
                0x00000000       0x20 build/stm32f4xx_hal_pwr.o
 .text.HAL_PWR_EnableSleepOnExit
                0x00000000       0x10 build/stm32f4xx_hal_pwr.o
 .text.HAL_PWR_DisableSleepOnExit
                0x00000000       0x10 build/stm32f4xx_hal_pwr.o
 .text.HAL_PWR_EnableSEVOnPend
                0x00000000       0x10 build/stm32f4xx_hal_pwr.o
 .text.HAL_PWR_DisableSEVOnPend
                0x00000000       0x10 build/stm32f4xx_hal_pwr.o
 .debug_info    0x00000000      0x822 build/stm32f4xx_hal_pwr.o
 .debug_abbrev  0x00000000      0x1af build/stm32f4xx_hal_pwr.o
 .debug_loc     0x00000000       0x78 build/stm32f4xx_hal_pwr.o
 .debug_aranges
                0x00000000       0xa0 build/stm32f4xx_hal_pwr.o
 .debug_ranges  0x00000000       0x90 build/stm32f4xx_hal_pwr.o
 .debug_line    0x00000000      0x41e build/stm32f4xx_hal_pwr.o
 .debug_str     0x00000000      0x54c build/stm32f4xx_hal_pwr.o
 .comment       0x00000000       0x4a build/stm32f4xx_hal_pwr.o
 .debug_frame   0x00000000      0x138 build/stm32f4xx_hal_pwr.o
 .ARM.attributes
                0x00000000       0x34 build/stm32f4xx_hal_pwr.o
 .text          0x00000000        0x0 build/stm32f4xx_hal_pwr_ex.o
 .data          0x00000000        0x0 build/stm32f4xx_hal_pwr_ex.o
 .bss           0x00000000        0x0 build/stm32f4xx_hal_pwr_ex.o
 .text.HAL_PWREx_EnableBkUpReg
                0x00000000       0x38 build/stm32f4xx_hal_pwr_ex.o
 .text.HAL_PWREx_DisableBkUpReg
                0x00000000       0x38 build/stm32f4xx_hal_pwr_ex.o
 .text.HAL_PWREx_EnableFlashPowerDown
                0x00000000        0xc build/stm32f4xx_hal_pwr_ex.o
 .text.HAL_PWREx_DisableFlashPowerDown
                0x00000000        0xc build/stm32f4xx_hal_pwr_ex.o
 .text.HAL_PWREx_GetVoltageRange
                0x00000000       0x10 build/stm32f4xx_hal_pwr_ex.o
 .text.HAL_PWREx_ControlVoltageScaling
                0x00000000       0xc0 build/stm32f4xx_hal_pwr_ex.o
 .text.HAL_PWREx_EnableMainRegulatorLowVoltage
                0x00000000        0xc build/stm32f4xx_hal_pwr_ex.o
 .text.HAL_PWREx_DisableMainRegulatorLowVoltage
                0x00000000        0xc build/stm32f4xx_hal_pwr_ex.o
 .text.HAL_PWREx_EnableLowRegulatorLowVoltage
                0x00000000        0xc build/stm32f4xx_hal_pwr_ex.o
 .text.HAL_PWREx_DisableLowRegulatorLowVoltage
                0x00000000        0xc build/stm32f4xx_hal_pwr_ex.o
 .debug_info    0x00000000      0x580 build/stm32f4xx_hal_pwr_ex.o
 .debug_abbrev  0x00000000      0x1bc build/stm32f4xx_hal_pwr_ex.o
 .debug_loc     0x00000000      0x199 build/stm32f4xx_hal_pwr_ex.o
 .debug_aranges
                0x00000000       0x68 build/stm32f4xx_hal_pwr_ex.o
 .debug_ranges  0x00000000       0x58 build/stm32f4xx_hal_pwr_ex.o
 .debug_line    0x00000000      0x3c5 build/stm32f4xx_hal_pwr_ex.o
 .debug_str     0x00000000      0x4af build/stm32f4xx_hal_pwr_ex.o
 .comment       0x00000000       0x4a build/stm32f4xx_hal_pwr_ex.o
 .debug_frame   0x00000000       0xd0 build/stm32f4xx_hal_pwr_ex.o
 .ARM.attributes
                0x00000000       0x34 build/stm32f4xx_hal_pwr_ex.o
 .text          0x00000000        0x0 build/stm32f4xx_hal_cortex.o
 .data          0x00000000        0x0 build/stm32f4xx_hal_cortex.o
 .bss           0x00000000        0x0 build/stm32f4xx_hal_cortex.o
 .text.HAL_NVIC_DisableIRQ
                0x00000000       0x24 build/stm32f4xx_hal_cortex.o
 .text.HAL_NVIC_SystemReset
                0x00000000       0x24 build/stm32f4xx_hal_cortex.o
 .text.HAL_MPU_Disable
                0x00000000       0x1c build/stm32f4xx_hal_cortex.o
 .text.HAL_MPU_Enable
                0x00000000       0x20 build/stm32f4xx_hal_cortex.o
 .text.HAL_MPU_EnableRegion
                0x00000000       0x18 build/stm32f4xx_hal_cortex.o
 .text.HAL_MPU_DisableRegion
                0x00000000       0x18 build/stm32f4xx_hal_cortex.o
 .text.HAL_MPU_ConfigRegion
                0x00000000       0x58 build/stm32f4xx_hal_cortex.o
 .text.HAL_CORTEX_ClearEvent
                0x00000000        0x6 build/stm32f4xx_hal_cortex.o
 .text.HAL_NVIC_GetPriorityGrouping
                0x00000000       0x10 build/stm32f4xx_hal_cortex.o
 .text.HAL_NVIC_GetPriority
                0x00000000       0x60 build/stm32f4xx_hal_cortex.o
 .text.HAL_NVIC_SetPendingIRQ
                0x00000000       0x1c build/stm32f4xx_hal_cortex.o
 .text.HAL_NVIC_GetPendingIRQ
                0x00000000       0x24 build/stm32f4xx_hal_cortex.o
 .text.HAL_NVIC_ClearPendingIRQ
                0x00000000       0x1c build/stm32f4xx_hal_cortex.o
 .text.HAL_NVIC_GetActive
                0x00000000       0x24 build/stm32f4xx_hal_cortex.o
 .text.HAL_SYSTICK_CLKSourceConfig
                0x00000000       0x20 build/stm32f4xx_hal_cortex.o
 .text.HAL_SYSTICK_Callback
                0x00000000        0x2 build/stm32f4xx_hal_cortex.o
 .text.HAL_SYSTICK_IRQHandler
                0x00000000        0x8 build/stm32f4xx_hal_cortex.o
 .text          0x00000000        0x0 build/stm32f4xx_hal.o
 .data          0x00000000        0x0 build/stm32f4xx_hal.o
 .bss           0x00000000        0x0 build/stm32f4xx_hal.o
 .text.HAL_MspInit
                0x00000000        0x2 build/stm32f4xx_hal.o
 .text.HAL_MspDeInit
                0x00000000        0x2 build/stm32f4xx_hal.o
 .text.HAL_DeInit
                0x00000000       0x40 build/stm32f4xx_hal.o
 .text.HAL_GetTickPrio
                0x00000000        0xc build/stm32f4xx_hal.o
 .text.HAL_SetTickFreq
                0x00000000       0x2c build/stm32f4xx_hal.o
 .text.HAL_GetTickFreq
                0x00000000        0xc build/stm32f4xx_hal.o
 .text.HAL_SuspendTick
                0x00000000        0xe build/stm32f4xx_hal.o
 .text.HAL_ResumeTick
                0x00000000        0xe build/stm32f4xx_hal.o
 .text.HAL_GetHalVersion
                0x00000000        0x8 build/stm32f4xx_hal.o
 .text.HAL_GetREVID
                0x00000000        0xc build/stm32f4xx_hal.o
 .text.HAL_GetDEVID
                0x00000000       0x10 build/stm32f4xx_hal.o
 .text.HAL_DBGMCU_EnableDBGSleepMode
                0x00000000       0x10 build/stm32f4xx_hal.o
 .text.HAL_DBGMCU_DisableDBGSleepMode
                0x00000000       0x10 build/stm32f4xx_hal.o
 .text.HAL_DBGMCU_EnableDBGStopMode
                0x00000000       0x10 build/stm32f4xx_hal.o
 .text.HAL_DBGMCU_DisableDBGStopMode
                0x00000000       0x10 build/stm32f4xx_hal.o
 .text.HAL_DBGMCU_EnableDBGStandbyMode
                0x00000000       0x10 build/stm32f4xx_hal.o
 .text.HAL_DBGMCU_DisableDBGStandbyMode
                0x00000000       0x10 build/stm32f4xx_hal.o
 .text.HAL_EnableCompensationCell
                0x00000000       0x10 build/stm32f4xx_hal.o
 .text.HAL_DisableCompensationCell
                0x00000000       0x10 build/stm32f4xx_hal.o
 .text.HAL_GetUIDw0
                0x00000000        0xc build/stm32f4xx_hal.o
 .text.HAL_GetUIDw1
                0x00000000        0xc build/stm32f4xx_hal.o
 .text.HAL_GetUIDw2
                0x00000000        0xc build/stm32f4xx_hal.o
 .text          0x00000000        0x0 build/stm32f4xx_hal_exti.o
 .data          0x00000000        0x0 build/stm32f4xx_hal_exti.o
 .bss           0x00000000        0x0 build/stm32f4xx_hal_exti.o
 .text.HAL_EXTI_SetConfigLine
                0x00000000       0xd8 build/stm32f4xx_hal_exti.o
 .text.HAL_EXTI_GetConfigLine
                0x00000000       0xa8 build/stm32f4xx_hal_exti.o
 .text.HAL_EXTI_ClearConfigLine
                0x00000000       0x88 build/stm32f4xx_hal_exti.o
 .text.HAL_EXTI_RegisterCallback
                0x00000000        0xe build/stm32f4xx_hal_exti.o
 .text.HAL_EXTI_GetHandle
                0x00000000        0xc build/stm32f4xx_hal_exti.o
 .text.HAL_EXTI_IRQHandler
                0x00000000       0x24 build/stm32f4xx_hal_exti.o
 .text.HAL_EXTI_GetPending
                0x00000000       0x1c build/stm32f4xx_hal_exti.o
 .text.HAL_EXTI_ClearPending
                0x00000000       0x14 build/stm32f4xx_hal_exti.o
 .text.HAL_EXTI_GenerateSWI
                0x00000000       0x14 build/stm32f4xx_hal_exti.o
 .debug_info    0x00000000      0x60b build/stm32f4xx_hal_exti.o
 .debug_abbrev  0x00000000      0x211 build/stm32f4xx_hal_exti.o
 .debug_loc     0x00000000      0x550 build/stm32f4xx_hal_exti.o
 .debug_aranges
                0x00000000       0x60 build/stm32f4xx_hal_exti.o
 .debug_ranges  0x00000000       0x50 build/stm32f4xx_hal_exti.o
 .debug_line    0x00000000      0x5ed build/stm32f4xx_hal_exti.o
 .debug_str     0x00000000      0x3da build/stm32f4xx_hal_exti.o
 .comment       0x00000000       0x4a build/stm32f4xx_hal_exti.o
 .debug_frame   0x00000000       0xe8 build/stm32f4xx_hal_exti.o
 .ARM.attributes
                0x00000000       0x34 build/stm32f4xx_hal_exti.o
 .text          0x00000000        0x0 build/system_stm32f4xx.o
 .data          0x00000000        0x0 build/system_stm32f4xx.o
 .bss           0x00000000        0x0 build/system_stm32f4xx.o
 .text.SystemCoreClockUpdate
                0x00000000       0xa0 build/system_stm32f4xx.o
 .rodata.APBPrescTable
                0x00000000        0x8 build/system_stm32f4xx.o
 .text          0x00000000        0x0 build/usbd_core.o
 .data          0x00000000        0x0 build/usbd_core.o
 .bss           0x00000000        0x0 build/usbd_core.o
 .text.USBD_DeInit
                0x00000000       0x32 build/usbd_core.o
 .text.USBD_Stop
                0x00000000       0x1a build/usbd_core.o
 .text.USBD_RunTestMode
                0x00000000        0x4 build/usbd_core.o
 .text          0x00000000        0x0 build/usbd_ctlreq.o
 .data          0x00000000        0x0 build/usbd_ctlreq.o
 .bss           0x00000000        0x0 build/usbd_ctlreq.o
 .text          0x00000000        0x0 build/usbd_ioreq.o
 .data          0x00000000        0x0 build/usbd_ioreq.o
 .bss           0x00000000        0x0 build/usbd_ioreq.o
 .text.USBD_GetRxCount
                0x00000000        0x8 build/usbd_ioreq.o
 .text          0x00000000        0x0 build/usbd_cdc.o
 .data          0x00000000        0x0 build/usbd_cdc.o
 .bss           0x00000000        0x0 build/usbd_cdc.o
 .text          0x00000000        0x0 build/sysmem.o
 .data          0x00000000        0x0 build/sysmem.o
 .bss           0x00000000        0x0 build/sysmem.o
 .text          0x00000000        0x0 build/syscalls.o
 .data          0x00000000        0x0 build/syscalls.o
 .bss           0x00000000        0x0 build/syscalls.o
 .text.initialise_monitor_handles
                0x00000000        0x2 build/syscalls.o
 .text._getpid  0x00000000        0x4 build/syscalls.o
 .text._kill    0x00000000       0x10 build/syscalls.o
 .text._exit    0x00000000        0xc build/syscalls.o
 .text._open    0x00000000        0xa build/syscalls.o
 .text._wait    0x00000000       0x10 build/syscalls.o
 .text._unlink  0x00000000       0x10 build/syscalls.o
 .text._times   0x00000000        0x6 build/syscalls.o
 .text._stat    0x00000000        0xa build/syscalls.o
 .text._link    0x00000000       0x10 build/syscalls.o
 .text._fork    0x00000000       0x10 build/syscalls.o
 .text._execve  0x00000000       0x10 build/syscalls.o
 .bss.__env     0x00000000        0x4 build/syscalls.o
 .data.environ  0x00000000        0x4 build/syscalls.o
 .text          0x00000000        0x0 build/diskio.o
 .data          0x00000000        0x0 build/diskio.o
 .bss           0x00000000        0x0 build/diskio.o
 .text          0x00000000        0x0 build/ff.o
 .data          0x00000000        0x0 build/ff.o
 .bss           0x00000000        0x0 build/ff.o
 .text.f_lseek  0x00000000      0x184 build/ff.o
 .text.f_getfree
                0x00000000       0xdc build/ff.o
 .text.f_truncate
                0x00000000       0xac build/ff.o
 .text.f_mkdir  0x00000000      0x11e build/ff.o
 .text.f_rename
                0x00000000      0x15c build/ff.o
 .text          0x00000000        0x0 build/ffsystem.o
 .data          0x00000000        0x0 build/ffsystem.o
 .bss           0x00000000        0x0 build/ffsystem.o
 .debug_info    0x00000000       0x6b build/ffsystem.o
 .debug_abbrev  0x00000000       0x26 build/ffsystem.o
 .debug_aranges
                0x00000000       0x18 build/ffsystem.o
 .debug_line    0x00000000       0x1d build/ffsystem.o
 .debug_str     0x00000000      0x185 build/ffsystem.o
 .comment       0x00000000       0x4a build/ffsystem.o
 .ARM.attributes
                0x00000000       0x34 build/ffsystem.o
 .text          0x00000000        0x0 build/ffunicode.o
 .data          0x00000000        0x0 build/ffunicode.o
 .bss           0x00000000        0x0 build/ffunicode.o
 .debug_info    0x00000000       0x6b build/ffunicode.o
 .debug_abbrev  0x00000000       0x26 build/ffunicode.o
 .debug_aranges
                0x00000000       0x18 build/ffunicode.o
 .debug_line    0x00000000       0x1d build/ffunicode.o
 .debug_str     0x00000000      0x186 build/ffunicode.o
 .comment       0x00000000       0x4a build/ffunicode.o
 .ARM.attributes
                0x00000000       0x34 build/ffunicode.o
 .group         0x00000000        0x8 build/main.o
 .group         0x00000000        0x8 build/main.o
 .group         0x00000000        0x8 build/main.o
 .group         0x00000000        0x8 build/main.o
 .group         0x00000000        0x8 build/main.o
 .group         0x00000000       0x14 build/main.o
 .group         0x00000000        0x8 build/main.o
 .group         0x00000000        0xc build/main.o
 .group         0x00000000        0x8 build/main.o
 .group         0x00000000        0x8 build/main.o
 .group         0x00000000        0x8 build/main.o
 .group         0x00000000        0x8 build/main.o
 .group         0x00000000        0xc build/main.o
 .group         0x00000000        0x8 build/main.o
 .group         0x00000000        0x8 build/main.o
 .group         0x00000000        0x8 build/main.o
 .group         0x00000000        0x8 build/main.o
 .group         0x00000000        0x8 build/main.o
 .group         0x00000000        0x8 build/main.o
 .group         0x00000000        0x8 build/main.o
 .group         0x00000000        0x8 build/main.o
 .group         0x00000000        0x8 build/main.o
 .group         0x00000000        0x8 build/main.o
 .group         0x00000000        0x8 build/main.o
 .group         0x00000000        0xc build/main.o
 .group         0x00000000        0x8 build/main.o
 .group         0x00000000       0x14 build/main.o
 .group         0x00000000       0x14 build/main.o
 .group         0x00000000       0x14 build/main.o
 .group         0x00000000       0x14 build/main.o
 .group         0x00000000       0x14 build/main.o
 .group         0x00000000       0x14 build/main.o
 .group         0x00000000       0x14 build/main.o
 .group         0x00000000       0x14 build/main.o
 .group         0x00000000       0x14 build/main.o
 .group         0x00000000       0x14 build/main.o
 .group         0x00000000       0x14 build/main.o
 .group         0x00000000       0x14 build/main.o
 .group         0x00000000       0x14 build/main.o
 .group         0x00000000       0x14 build/main.o
 .group         0x00000000       0x14 build/main.o
 .group         0x00000000        0xc build/main.o
 .group         0x00000000        0xc build/main.o
 .group         0x00000000        0xc build/main.o
 .group         0x00000000        0xc build/main.o
 .group         0x00000000        0xc build/main.o
 .group         0x00000000        0xc build/main.o
 .group         0x00000000        0xc build/main.o
 .group         0x00000000        0xc build/main.o
 .group         0x00000000        0xc build/main.o
 .group         0x00000000        0xc build/main.o
 .group         0x00000000        0xc build/main.o
 .group         0x00000000        0xc build/main.o
 .group         0x00000000        0xc build/main.o
 .group         0x00000000        0xc build/main.o
 .group         0x00000000        0xc build/main.o
 .group         0x00000000        0xc build/main.o
 .group         0x00000000        0xc build/main.o
 .group         0x00000000        0xc build/main.o
 .group         0x00000000        0xc build/main.o
 .group         0x00000000        0xc build/main.o
 .group         0x00000000        0xc build/main.o
 .group         0x00000000        0xc build/main.o
 .group         0x00000000        0xc build/main.o
 .group         0x00000000        0xc build/main.o
 .group         0x00000000        0xc build/main.o
 .group         0x00000000        0xc build/main.o
 .group         0x00000000        0xc build/main.o
 .group         0x00000000        0x8 build/main.o
 .group         0x00000000        0x8 build/main.o
 .text          0x00000000        0x0 build/main.o
 .data          0x00000000        0x0 build/main.o
 .bss           0x00000000        0x0 build/main.o
 .text          0x00000000        0x0 build/cpp_minimal.o
 .data          0x00000000        0x0 build/cpp_minimal.o
 .bss           0x00000000        0x0 build/cpp_minimal.o
 .text.__cxa_guard_abort
                0x00000000        0x2 build/cpp_minimal.o
 .text.__gxx_personality_v0
                0x00000000        0x2 build/cpp_minimal.o
 .text.__cxa_end_cleanup
                0x00000000        0x2 build/cpp_minimal.o
 .text._Znwj    0x00000000        0x8 build/cpp_minimal.o
 .text._Znaj    0x00000000        0x8 build/cpp_minimal.o
 .text._ZdlPv   0x00000000        0x8 build/cpp_minimal.o
 .text._ZdaPv   0x00000000        0x8 build/cpp_minimal.o
 .text._ZdaPvj  0x00000000        0x8 build/cpp_minimal.o
 .text._ZSt17__throw_bad_allocv
                0x00000000        0x2 build/cpp_minimal.o
 .text._ZSt20__throw_length_errorPKc
                0x00000000        0x2 build/cpp_minimal.o
 .text._ZSt20__throw_out_of_rangePKc
                0x00000000        0x2 build/cpp_minimal.o
 .text._ZSt21__throw_runtime_errorPKc
                0x00000000        0x2 build/cpp_minimal.o
 .text._ZSt29_Rb_tree_insert_and_rebalancebP18_Rb_tree_node_baseS0_RS_
                0x00000000        0x2 build/cpp_minimal.o
 .text._ZSt18_Rb_tree_incrementP18_Rb_tree_node_base
                0x00000000       0x2e build/cpp_minimal.o
 .text._ZSt18_Rb_tree_decrementP18_Rb_tree_node_base
                0x00000000       0x24 build/cpp_minimal.o
 .text          0x00000000        0x0 build/FatFsWrapperSingleton.o
 .data          0x00000000        0x0 build/FatFsWrapperSingleton.o
 .bss           0x00000000        0x0 build/FatFsWrapperSingleton.o
 .text._ZN12FatFsWrapper10createFileEih
                0x00000000       0x46 build/FatFsWrapperSingleton.o
 .text._ZN12FatFsWrapper10deleteFileEi
                0x00000000       0x2a build/FatFsWrapperSingleton.o
 .text._ZN12FatFsWrapper9writeFileEiPKvjRjm
                0x00000000       0x70 build/FatFsWrapperSingleton.o
 .text._ZN12FatFsWrapper8readFileEiPvjRjm
                0x00000000       0x70 build/FatFsWrapperSingleton.o
 .rodata._ZN12FatFsWrapper15kKnownFileCountE
                0x00000000        0x4 build/FatFsWrapperSingleton.o
 .text          0x00000000        0x0 build/FatFsWrapperSingletonTest.o
 .data          0x00000000        0x0 build/FatFsWrapperSingletonTest.o
 .bss           0x00000000        0x0 build/FatFsWrapperSingletonTest.o
 .debug_info    0x00000000       0x7e build/FatFsWrapperSingletonTest.o
 .debug_abbrev  0x00000000       0x2d build/FatFsWrapperSingletonTest.o
 .debug_aranges
                0x00000000       0x18 build/FatFsWrapperSingletonTest.o
 .debug_line    0x00000000       0x1d build/FatFsWrapperSingletonTest.o
 .debug_str     0x00000000      0x1e2 build/FatFsWrapperSingletonTest.o
 .comment       0x00000000       0x4a build/FatFsWrapperSingletonTest.o
 .ARM.attributes
                0x00000000       0x34 build/FatFsWrapperSingletonTest.o
 .group         0x00000000        0x8 build/Darin3.o
 .group         0x00000000        0x8 build/Darin3.o
 .group         0x00000000        0x8 build/Darin3.o
 .group         0x00000000        0x8 build/Darin3.o
 .group         0x00000000        0x8 build/Darin3.o
 .group         0x00000000       0x14 build/Darin3.o
 .group         0x00000000        0xc build/Darin3.o
 .group         0x00000000        0xc build/Darin3.o
 .group         0x00000000        0xc build/Darin3.o
 .group         0x00000000        0xc build/Darin3.o
 .group         0x00000000        0x8 build/Darin3.o
 .group         0x00000000        0x8 build/Darin3.o
 .text          0x00000000        0x0 build/Darin3.o
 .data          0x00000000        0x0 build/Darin3.o
 .bss           0x00000000        0x0 build/Darin3.o
 .text._ZN21IIspSubCommandHandler12prepareForRxEPKhhm
                0x00000000        0x6 build/Darin3.o
 .text._ZN21IIspSubCommandHandler13processRxDataEPKhhm
                0x00000000        0x4 build/Darin3.o
 .text._ZN21IIspSubCommandHandler15prepareDataToTxEPKhhRm
                0x00000000        0x4 build/Darin3.o
 .text._ZN21IIspSubCommandHandler9getSubCmdEv
                0x00000000        0x4 build/Darin3.o
 .text._ZN21IIspSubCommandHandler13processCmdReqEPh
                0x00000000        0x4 build/Darin3.o
 .text._ZN21IIspSubCommandHandlerD2Ev
                0x00000000        0xc build/Darin3.o
 .text._ZN12FatFsWrapperD2Ev
                0x00000000        0xc build/Darin3.o
 .text._ZN21IIspSubCommandHandlerD0Ev
                0x00000000       0x18 build/Darin3.o
 .text._ZN21IIspSubCommandHandler12EnocdeCmdResEhPht
                0x00000000       0x2c build/Darin3.o
 .text._ZN21IIspSubCommandHandler12DecodeCmdReqEPh
                0x00000000       0x22 build/Darin3.o
 .text._ZN6Darin317TestDarinIIIFlashEv
                0x00000000       0x4a build/Darin3.o
 .rodata._ZN6Darin38TesFATfSEv.str1.4
                0x00000000        0x7 build/Darin3.o
 .text._ZN6Darin38TesFATfSEv
                0x00000000       0xac build/Darin3.o
 .rodata._ZTV21IIspSubCommandHandler
                0x00000000       0x2c build/Darin3.o
 .bss._ZGVZN12FatFsWrapper11getInstanceEvE8instance
                0x00000000        0x4 build/Darin3.o
 .bss._ZZN12FatFsWrapper11getInstanceEvE8instance
                0x00000000      0x238 build/Darin3.o
 .group         0x00000000        0x8 build/SerialTransport.o
 .group         0x00000000        0x8 build/SerialTransport.o
 .group         0x00000000        0x8 build/SerialTransport.o
 .group         0x00000000        0xc build/SerialTransport.o
 .group         0x00000000        0xc build/SerialTransport.o
 .group         0x00000000       0x14 build/SerialTransport.o
 .group         0x00000000        0xc build/SerialTransport.o
 .text          0x00000000        0x0 build/SerialTransport.o
 .data          0x00000000        0x0 build/SerialTransport.o
 .bss           0x00000000        0x0 build/SerialTransport.o
 .text._ZN21IspTransportInterface7receiveEPhj
                0x00000000        0x4 build/SerialTransport.o
 .text._ZNK21IspTransportInterface6statusEv
                0x00000000        0x4 build/SerialTransport.o
 .text._ZN21IspTransportInterface5flushEv
                0x00000000        0x2 build/SerialTransport.o
 .rodata._ZNK21IspTransportInterface4nameEv.str1.4
                0x00000000       0x11 build/SerialTransport.o
 .text._ZNK21IspTransportInterface4nameEv
                0x00000000        0x8 build/SerialTransport.o
 .text._ZN15UsbIspTransportD2Ev
                0x00000000       0x14 build/SerialTransport.o
 .text._ZN15UsbIspTransportD0Ev
                0x00000000       0x20 build/SerialTransport.o
 .rodata._ZTV21IspTransportInterface
                0x00000000       0x24 build/SerialTransport.o
 .group         0x00000000        0x8 build/IspCmdControl.o
 .group         0x00000000        0xc build/IspCmdControl.o
 .text          0x00000000        0x0 build/IspCmdControl.o
 .data          0x00000000        0x0 build/IspCmdControl.o
 .bss           0x00000000        0x0 build/IspCmdControl.o
 .text._ZN17IspCommandHandler12setTransportEP21IspTransportInterface
                0x00000000        0x4 build/IspCmdControl.o
 .rodata._ZTV17IspCommandHandler
                0x00000000       0x1c build/IspCmdControl.o
 .group         0x00000000        0x8 build/IspCmdReceiveData.o
 .group         0x00000000       0x14 build/IspCmdReceiveData.o
 .group         0x00000000        0xc build/IspCmdReceiveData.o
 .text          0x00000000        0x0 build/IspCmdReceiveData.o
 .data          0x00000000        0x0 build/IspCmdReceiveData.o
 .bss           0x00000000        0x0 build/IspCmdReceiveData.o
 .text._ZN17IspCommandHandler12setTransportEP21IspTransportInterface
                0x00000000        0x4 build/IspCmdReceiveData.o
 .text._ZN17IspCmdReceiveDataD2Ev
                0x00000000       0x14 build/IspCmdReceiveData.o
 .text._ZN17IspCmdReceiveDataD0Ev
                0x00000000       0x20 build/IspCmdReceiveData.o
 .rodata._ZTV17IspCommandHandler
                0x00000000       0x1c build/IspCmdReceiveData.o
 .group         0x00000000        0x8 build/IspCmdTransmitData.o
 .group         0x00000000       0x14 build/IspCmdTransmitData.o
 .group         0x00000000        0xc build/IspCmdTransmitData.o
 .text          0x00000000        0x0 build/IspCmdTransmitData.o
 .data          0x00000000        0x0 build/IspCmdTransmitData.o
 .bss           0x00000000        0x0 build/IspCmdTransmitData.o
 .text._ZN17IspCommandHandler12setTransportEP21IspTransportInterface
                0x00000000        0x4 build/IspCmdTransmitData.o
 .text._ZN18IspCmdTransmitDataD2Ev
                0x00000000       0x14 build/IspCmdTransmitData.o
 .text._ZN18IspCmdTransmitDataD0Ev
                0x00000000       0x20 build/IspCmdTransmitData.o
 .rodata._ZTV17IspCommandHandler
                0x00000000       0x1c build/IspCmdTransmitData.o
 .text          0x00000000        0x0 build/IspCommandManager.o
 .data          0x00000000        0x0 build/IspCommandManager.o
 .bss           0x00000000        0x0 build/IspCommandManager.o
 .text._ZN17IspCommandManager10getBoardIDEv
                0x00000000        0x6 build/IspCommandManager.o
 .text._ZN17IspCommandManager4tickEv
                0x00000000       0x12 build/IspCommandManager.o
 .text          0x00000000        0x0 build/IspSubCommandProcessor.o
 .data          0x00000000        0x0 build/IspSubCommandProcessor.o
 .bss           0x00000000        0x0 build/IspSubCommandProcessor.o
 .text          0x00000000        0x0 build/safeBuffer.o
 .data          0x00000000        0x0 build/safeBuffer.o
 .bss           0x00000000        0x0 build/safeBuffer.o
 .text._Z20SafeReadFromTxBufferPhmm
                0x00000000       0x20 build/safeBuffer.o
 .text._Z20SafeReadFromRxBufferPhmm
                0x00000000       0x20 build/safeBuffer.o
 .text          0x00000000       0x14 build/startup_stm32f411xe.o
 .data          0x00000000        0x0 build/startup_stm32f411xe.o
 .bss           0x00000000        0x0 build/startup_stm32f411xe.o
 .text          0x00000000        0x0 c:/program files (x86)/gnu arm embedded toolchain/10 2021.10/bin/../lib/gcc/arm-none-eabi/10.3.1/../../../../arm-none-eabi/lib/thumb/v7e-m+fp/hard\libc_nano.a(lib_a-aeabi_atexit.o)
 .data          0x00000000        0x0 c:/program files (x86)/gnu arm embedded toolchain/10 2021.10/bin/../lib/gcc/arm-none-eabi/10.3.1/../../../../arm-none-eabi/lib/thumb/v7e-m+fp/hard\libc_nano.a(lib_a-aeabi_atexit.o)
 .bss           0x00000000        0x0 c:/program files (x86)/gnu arm embedded toolchain/10 2021.10/bin/../lib/gcc/arm-none-eabi/10.3.1/../../../../arm-none-eabi/lib/thumb/v7e-m+fp/hard\libc_nano.a(lib_a-aeabi_atexit.o)
 .text          0x00000000        0x0 c:/program files (x86)/gnu arm embedded toolchain/10 2021.10/bin/../lib/gcc/arm-none-eabi/10.3.1/../../../../arm-none-eabi/lib/thumb/v7e-m+fp/hard\libc_nano.a(lib_a-cxa_atexit.o)
 .data          0x00000000        0x0 c:/program files (x86)/gnu arm embedded toolchain/10 2021.10/bin/../lib/gcc/arm-none-eabi/10.3.1/../../../../arm-none-eabi/lib/thumb/v7e-m+fp/hard\libc_nano.a(lib_a-cxa_atexit.o)
 .bss           0x00000000        0x0 c:/program files (x86)/gnu arm embedded toolchain/10 2021.10/bin/../lib/gcc/arm-none-eabi/10.3.1/../../../../arm-none-eabi/lib/thumb/v7e-m+fp/hard\libc_nano.a(lib_a-cxa_atexit.o)
 .rodata.__cxa_atexit_dummy
                0x00000000        0x4 c:/program files (x86)/gnu arm embedded toolchain/10 2021.10/bin/../lib/gcc/arm-none-eabi/10.3.1/../../../../arm-none-eabi/lib/thumb/v7e-m+fp/hard\libc_nano.a(lib_a-cxa_atexit.o)
 .text          0x00000000        0x0 c:/program files (x86)/gnu arm embedded toolchain/10 2021.10/bin/../lib/gcc/arm-none-eabi/10.3.1/../../../../arm-none-eabi/lib/thumb/v7e-m+fp/hard\libc_nano.a(lib_a-errno.o)
 .data          0x00000000        0x0 c:/program files (x86)/gnu arm embedded toolchain/10 2021.10/bin/../lib/gcc/arm-none-eabi/10.3.1/../../../../arm-none-eabi/lib/thumb/v7e-m+fp/hard\libc_nano.a(lib_a-errno.o)
 .bss           0x00000000        0x0 c:/program files (x86)/gnu arm embedded toolchain/10 2021.10/bin/../lib/gcc/arm-none-eabi/10.3.1/../../../../arm-none-eabi/lib/thumb/v7e-m+fp/hard\libc_nano.a(lib_a-errno.o)
 .text          0x00000000        0x0 c:/program files (x86)/gnu arm embedded toolchain/10 2021.10/bin/../lib/gcc/arm-none-eabi/10.3.1/../../../../arm-none-eabi/lib/thumb/v7e-m+fp/hard\libc_nano.a(lib_a-exit.o)
 .data          0x00000000        0x0 c:/program files (x86)/gnu arm embedded toolchain/10 2021.10/bin/../lib/gcc/arm-none-eabi/10.3.1/../../../../arm-none-eabi/lib/thumb/v7e-m+fp/hard\libc_nano.a(lib_a-exit.o)
 .bss           0x00000000        0x0 c:/program files (x86)/gnu arm embedded toolchain/10 2021.10/bin/../lib/gcc/arm-none-eabi/10.3.1/../../../../arm-none-eabi/lib/thumb/v7e-m+fp/hard\libc_nano.a(lib_a-exit.o)
 .text.exit     0x00000000       0x28 c:/program files (x86)/gnu arm embedded toolchain/10 2021.10/bin/../lib/gcc/arm-none-eabi/10.3.1/../../../../arm-none-eabi/lib/thumb/v7e-m+fp/hard\libc_nano.a(lib_a-exit.o)
 .debug_frame   0x00000000       0x28 c:/program files (x86)/gnu arm embedded toolchain/10 2021.10/bin/../lib/gcc/arm-none-eabi/10.3.1/../../../../arm-none-eabi/lib/thumb/v7e-m+fp/hard\libc_nano.a(lib_a-exit.o)
 .ARM.attributes
                0x00000000       0x34 c:/program files (x86)/gnu arm embedded toolchain/10 2021.10/bin/../lib/gcc/arm-none-eabi/10.3.1/../../../../arm-none-eabi/lib/thumb/v7e-m+fp/hard\libc_nano.a(lib_a-exit.o)
 .text          0x00000000        0x0 c:/program files (x86)/gnu arm embedded toolchain/10 2021.10/bin/../lib/gcc/arm-none-eabi/10.3.1/../../../../arm-none-eabi/lib/thumb/v7e-m+fp/hard\libc_nano.a(lib_a-impure.o)
 .data          0x00000000        0x0 c:/program files (x86)/gnu arm embedded toolchain/10 2021.10/bin/../lib/gcc/arm-none-eabi/10.3.1/../../../../arm-none-eabi/lib/thumb/v7e-m+fp/hard\libc_nano.a(lib_a-impure.o)
 .bss           0x00000000        0x0 c:/program files (x86)/gnu arm embedded toolchain/10 2021.10/bin/../lib/gcc/arm-none-eabi/10.3.1/../../../../arm-none-eabi/lib/thumb/v7e-m+fp/hard\libc_nano.a(lib_a-impure.o)
 .text          0x00000000        0x0 c:/program files (x86)/gnu arm embedded toolchain/10 2021.10/bin/../lib/gcc/arm-none-eabi/10.3.1/../../../../arm-none-eabi/lib/thumb/v7e-m+fp/hard\libc_nano.a(lib_a-init.o)
 .data          0x00000000        0x0 c:/program files (x86)/gnu arm embedded toolchain/10 2021.10/bin/../lib/gcc/arm-none-eabi/10.3.1/../../../../arm-none-eabi/lib/thumb/v7e-m+fp/hard\libc_nano.a(lib_a-init.o)
 .bss           0x00000000        0x0 c:/program files (x86)/gnu arm embedded toolchain/10 2021.10/bin/../lib/gcc/arm-none-eabi/10.3.1/../../../../arm-none-eabi/lib/thumb/v7e-m+fp/hard\libc_nano.a(lib_a-init.o)
 .text          0x00000000        0x0 c:/program files (x86)/gnu arm embedded toolchain/10 2021.10/bin/../lib/gcc/arm-none-eabi/10.3.1/../../../../arm-none-eabi/lib/thumb/v7e-m+fp/hard\libc_nano.a(lib_a-malloc.o)
 .data          0x00000000        0x0 c:/program files (x86)/gnu arm embedded toolchain/10 2021.10/bin/../lib/gcc/arm-none-eabi/10.3.1/../../../../arm-none-eabi/lib/thumb/v7e-m+fp/hard\libc_nano.a(lib_a-malloc.o)
 .bss           0x00000000        0x0 c:/program files (x86)/gnu arm embedded toolchain/10 2021.10/bin/../lib/gcc/arm-none-eabi/10.3.1/../../../../arm-none-eabi/lib/thumb/v7e-m+fp/hard\libc_nano.a(lib_a-malloc.o)
 .text.malloc   0x00000000       0x10 c:/program files (x86)/gnu arm embedded toolchain/10 2021.10/bin/../lib/gcc/arm-none-eabi/10.3.1/../../../../arm-none-eabi/lib/thumb/v7e-m+fp/hard\libc_nano.a(lib_a-malloc.o)
 .text          0x00000000        0x0 c:/program files (x86)/gnu arm embedded toolchain/10 2021.10/bin/../lib/gcc/arm-none-eabi/10.3.1/../../../../arm-none-eabi/lib/thumb/v7e-m+fp/hard\libc_nano.a(lib_a-memcmp.o)
 .data          0x00000000        0x0 c:/program files (x86)/gnu arm embedded toolchain/10 2021.10/bin/../lib/gcc/arm-none-eabi/10.3.1/../../../../arm-none-eabi/lib/thumb/v7e-m+fp/hard\libc_nano.a(lib_a-memcmp.o)
 .bss           0x00000000        0x0 c:/program files (x86)/gnu arm embedded toolchain/10 2021.10/bin/../lib/gcc/arm-none-eabi/10.3.1/../../../../arm-none-eabi/lib/thumb/v7e-m+fp/hard\libc_nano.a(lib_a-memcmp.o)
 .text          0x00000000        0x0 c:/program files (x86)/gnu arm embedded toolchain/10 2021.10/bin/../lib/gcc/arm-none-eabi/10.3.1/../../../../arm-none-eabi/lib/thumb/v7e-m+fp/hard\libc_nano.a(lib_a-memcpy-stub.o)
 .data          0x00000000        0x0 c:/program files (x86)/gnu arm embedded toolchain/10 2021.10/bin/../lib/gcc/arm-none-eabi/10.3.1/../../../../arm-none-eabi/lib/thumb/v7e-m+fp/hard\libc_nano.a(lib_a-memcpy-stub.o)
 .bss           0x00000000        0x0 c:/program files (x86)/gnu arm embedded toolchain/10 2021.10/bin/../lib/gcc/arm-none-eabi/10.3.1/../../../../arm-none-eabi/lib/thumb/v7e-m+fp/hard\libc_nano.a(lib_a-memcpy-stub.o)
 .text          0x00000000        0x0 c:/program files (x86)/gnu arm embedded toolchain/10 2021.10/bin/../lib/gcc/arm-none-eabi/10.3.1/../../../../arm-none-eabi/lib/thumb/v7e-m+fp/hard\libc_nano.a(lib_a-memmove.o)
 .data          0x00000000        0x0 c:/program files (x86)/gnu arm embedded toolchain/10 2021.10/bin/../lib/gcc/arm-none-eabi/10.3.1/../../../../arm-none-eabi/lib/thumb/v7e-m+fp/hard\libc_nano.a(lib_a-memmove.o)
 .bss           0x00000000        0x0 c:/program files (x86)/gnu arm embedded toolchain/10 2021.10/bin/../lib/gcc/arm-none-eabi/10.3.1/../../../../arm-none-eabi/lib/thumb/v7e-m+fp/hard\libc_nano.a(lib_a-memmove.o)
 .text          0x00000000        0x0 c:/program files (x86)/gnu arm embedded toolchain/10 2021.10/bin/../lib/gcc/arm-none-eabi/10.3.1/../../../../arm-none-eabi/lib/thumb/v7e-m+fp/hard\libc_nano.a(lib_a-memset.o)
 .data          0x00000000        0x0 c:/program files (x86)/gnu arm embedded toolchain/10 2021.10/bin/../lib/gcc/arm-none-eabi/10.3.1/../../../../arm-none-eabi/lib/thumb/v7e-m+fp/hard\libc_nano.a(lib_a-memset.o)
 .bss           0x00000000        0x0 c:/program files (x86)/gnu arm embedded toolchain/10 2021.10/bin/../lib/gcc/arm-none-eabi/10.3.1/../../../../arm-none-eabi/lib/thumb/v7e-m+fp/hard\libc_nano.a(lib_a-memset.o)
 .text          0x00000000        0x0 c:/program files (x86)/gnu arm embedded toolchain/10 2021.10/bin/../lib/gcc/arm-none-eabi/10.3.1/../../../../arm-none-eabi/lib/thumb/v7e-m+fp/hard\libc_nano.a(lib_a-nano-freer.o)
 .data          0x00000000        0x0 c:/program files (x86)/gnu arm embedded toolchain/10 2021.10/bin/../lib/gcc/arm-none-eabi/10.3.1/../../../../arm-none-eabi/lib/thumb/v7e-m+fp/hard\libc_nano.a(lib_a-nano-freer.o)
 .bss           0x00000000        0x0 c:/program files (x86)/gnu arm embedded toolchain/10 2021.10/bin/../lib/gcc/arm-none-eabi/10.3.1/../../../../arm-none-eabi/lib/thumb/v7e-m+fp/hard\libc_nano.a(lib_a-nano-freer.o)
 .text          0x00000000        0x0 c:/program files (x86)/gnu arm embedded toolchain/10 2021.10/bin/../lib/gcc/arm-none-eabi/10.3.1/../../../../arm-none-eabi/lib/thumb/v7e-m+fp/hard\libc_nano.a(lib_a-nano-mallocr.o)
 .data          0x00000000        0x0 c:/program files (x86)/gnu arm embedded toolchain/10 2021.10/bin/../lib/gcc/arm-none-eabi/10.3.1/../../../../arm-none-eabi/lib/thumb/v7e-m+fp/hard\libc_nano.a(lib_a-nano-mallocr.o)
 .bss           0x00000000        0x0 c:/program files (x86)/gnu arm embedded toolchain/10 2021.10/bin/../lib/gcc/arm-none-eabi/10.3.1/../../../../arm-none-eabi/lib/thumb/v7e-m+fp/hard\libc_nano.a(lib_a-nano-mallocr.o)
 .text          0x00000000        0x0 c:/program files (x86)/gnu arm embedded toolchain/10 2021.10/bin/../lib/gcc/arm-none-eabi/10.3.1/../../../../arm-none-eabi/lib/thumb/v7e-m+fp/hard\libc_nano.a(lib_a-on_exit_args.o)
 .data          0x00000000        0x0 c:/program files (x86)/gnu arm embedded toolchain/10 2021.10/bin/../lib/gcc/arm-none-eabi/10.3.1/../../../../arm-none-eabi/lib/thumb/v7e-m+fp/hard\libc_nano.a(lib_a-on_exit_args.o)
 .bss           0x00000000        0x0 c:/program files (x86)/gnu arm embedded toolchain/10 2021.10/bin/../lib/gcc/arm-none-eabi/10.3.1/../../../../arm-none-eabi/lib/thumb/v7e-m+fp/hard\libc_nano.a(lib_a-on_exit_args.o)
 .bss._on_exit_args_instance
                0x00000000      0x108 c:/program files (x86)/gnu arm embedded toolchain/10 2021.10/bin/../lib/gcc/arm-none-eabi/10.3.1/../../../../arm-none-eabi/lib/thumb/v7e-m+fp/hard\libc_nano.a(lib_a-on_exit_args.o)
 .rodata.__on_exit_args
                0x00000000        0x4 c:/program files (x86)/gnu arm embedded toolchain/10 2021.10/bin/../lib/gcc/arm-none-eabi/10.3.1/../../../../arm-none-eabi/lib/thumb/v7e-m+fp/hard\libc_nano.a(lib_a-on_exit_args.o)
 .ARM.attributes
                0x00000000       0x34 c:/program files (x86)/gnu arm embedded toolchain/10 2021.10/bin/../lib/gcc/arm-none-eabi/10.3.1/../../../../arm-none-eabi/lib/thumb/v7e-m+fp/hard\libc_nano.a(lib_a-on_exit_args.o)
 .text          0x00000000        0x0 c:/program files (x86)/gnu arm embedded toolchain/10 2021.10/bin/../lib/gcc/arm-none-eabi/10.3.1/../../../../arm-none-eabi/lib/thumb/v7e-m+fp/hard\libc_nano.a(lib_a-printf.o)
 .data          0x00000000        0x0 c:/program files (x86)/gnu arm embedded toolchain/10 2021.10/bin/../lib/gcc/arm-none-eabi/10.3.1/../../../../arm-none-eabi/lib/thumb/v7e-m+fp/hard\libc_nano.a(lib_a-printf.o)
 .bss           0x00000000        0x0 c:/program files (x86)/gnu arm embedded toolchain/10 2021.10/bin/../lib/gcc/arm-none-eabi/10.3.1/../../../../arm-none-eabi/lib/thumb/v7e-m+fp/hard\libc_nano.a(lib_a-printf.o)
 .text._printf_r
                0x00000000       0x28 c:/program files (x86)/gnu arm embedded toolchain/10 2021.10/bin/../lib/gcc/arm-none-eabi/10.3.1/../../../../arm-none-eabi/lib/thumb/v7e-m+fp/hard\libc_nano.a(lib_a-printf.o)
 .text          0x00000000        0x0 c:/program files (x86)/gnu arm embedded toolchain/10 2021.10/bin/../lib/gcc/arm-none-eabi/10.3.1/../../../../arm-none-eabi/lib/thumb/v7e-m+fp/hard\libc_nano.a(lib_a-sbrkr.o)
 .data          0x00000000        0x0 c:/program files (x86)/gnu arm embedded toolchain/10 2021.10/bin/../lib/gcc/arm-none-eabi/10.3.1/../../../../arm-none-eabi/lib/thumb/v7e-m+fp/hard\libc_nano.a(lib_a-sbrkr.o)
 .bss           0x00000000        0x0 c:/program files (x86)/gnu arm embedded toolchain/10 2021.10/bin/../lib/gcc/arm-none-eabi/10.3.1/../../../../arm-none-eabi/lib/thumb/v7e-m+fp/hard\libc_nano.a(lib_a-sbrkr.o)
 .text          0x00000000        0x0 c:/program files (x86)/gnu arm embedded toolchain/10 2021.10/bin/../lib/gcc/arm-none-eabi/10.3.1/../../../../arm-none-eabi/lib/thumb/v7e-m+fp/hard\libc_nano.a(lib_a-snprintf.o)
 .data          0x00000000        0x0 c:/program files (x86)/gnu arm embedded toolchain/10 2021.10/bin/../lib/gcc/arm-none-eabi/10.3.1/../../../../arm-none-eabi/lib/thumb/v7e-m+fp/hard\libc_nano.a(lib_a-snprintf.o)
 .bss           0x00000000        0x0 c:/program files (x86)/gnu arm embedded toolchain/10 2021.10/bin/../lib/gcc/arm-none-eabi/10.3.1/../../../../arm-none-eabi/lib/thumb/v7e-m+fp/hard\libc_nano.a(lib_a-snprintf.o)
 .text._snprintf_r
                0x00000000       0x5e c:/program files (x86)/gnu arm embedded toolchain/10 2021.10/bin/../lib/gcc/arm-none-eabi/10.3.1/../../../../arm-none-eabi/lib/thumb/v7e-m+fp/hard\libc_nano.a(lib_a-snprintf.o)
 .text          0x00000000        0x0 c:/program files (x86)/gnu arm embedded toolchain/10 2021.10/bin/../lib/gcc/arm-none-eabi/10.3.1/../../../../arm-none-eabi/lib/thumb/v7e-m+fp/hard\libc_nano.a(lib_a-strchr.o)
 .data          0x00000000        0x0 c:/program files (x86)/gnu arm embedded toolchain/10 2021.10/bin/../lib/gcc/arm-none-eabi/10.3.1/../../../../arm-none-eabi/lib/thumb/v7e-m+fp/hard\libc_nano.a(lib_a-strchr.o)
 .bss           0x00000000        0x0 c:/program files (x86)/gnu arm embedded toolchain/10 2021.10/bin/../lib/gcc/arm-none-eabi/10.3.1/../../../../arm-none-eabi/lib/thumb/v7e-m+fp/hard\libc_nano.a(lib_a-strchr.o)
 .data          0x00000000        0x0 c:/program files (x86)/gnu arm embedded toolchain/10 2021.10/bin/../lib/gcc/arm-none-eabi/10.3.1/../../../../arm-none-eabi/lib/thumb/v7e-m+fp/hard\libc_nano.a(lib_a-strcmp.o)
 .bss           0x00000000        0x0 c:/program files (x86)/gnu arm embedded toolchain/10 2021.10/bin/../lib/gcc/arm-none-eabi/10.3.1/../../../../arm-none-eabi/lib/thumb/v7e-m+fp/hard\libc_nano.a(lib_a-strcmp.o)
 .text          0x00000000        0x0 c:/program files (x86)/gnu arm embedded toolchain/10 2021.10/bin/../lib/gcc/arm-none-eabi/10.3.1/../../../../arm-none-eabi/lib/thumb/v7e-m+fp/hard\libc_nano.a(lib_a-strncpy.o)
 .data          0x00000000        0x0 c:/program files (x86)/gnu arm embedded toolchain/10 2021.10/bin/../lib/gcc/arm-none-eabi/10.3.1/../../../../arm-none-eabi/lib/thumb/v7e-m+fp/hard\libc_nano.a(lib_a-strncpy.o)
 .bss           0x00000000        0x0 c:/program files (x86)/gnu arm embedded toolchain/10 2021.10/bin/../lib/gcc/arm-none-eabi/10.3.1/../../../../arm-none-eabi/lib/thumb/v7e-m+fp/hard\libc_nano.a(lib_a-strncpy.o)
 .text          0x00000000        0x0 c:/program files (x86)/gnu arm embedded toolchain/10 2021.10/bin/../lib/gcc/arm-none-eabi/10.3.1/../../../../arm-none-eabi/lib/thumb/v7e-m+fp/hard\libc_nano.a(lib_a-findfp.o)
 .data          0x00000000        0x0 c:/program files (x86)/gnu arm embedded toolchain/10 2021.10/bin/../lib/gcc/arm-none-eabi/10.3.1/../../../../arm-none-eabi/lib/thumb/v7e-m+fp/hard\libc_nano.a(lib_a-findfp.o)
 .bss           0x00000000        0x0 c:/program files (x86)/gnu arm embedded toolchain/10 2021.10/bin/../lib/gcc/arm-none-eabi/10.3.1/../../../../arm-none-eabi/lib/thumb/v7e-m+fp/hard\libc_nano.a(lib_a-findfp.o)
 .text.__fp_lock
                0x00000000       0x18 c:/program files (x86)/gnu arm embedded toolchain/10 2021.10/bin/../lib/gcc/arm-none-eabi/10.3.1/../../../../arm-none-eabi/lib/thumb/v7e-m+fp/hard\libc_nano.a(lib_a-findfp.o)
 .text.__fp_unlock
                0x00000000       0x18 c:/program files (x86)/gnu arm embedded toolchain/10 2021.10/bin/../lib/gcc/arm-none-eabi/10.3.1/../../../../arm-none-eabi/lib/thumb/v7e-m+fp/hard\libc_nano.a(lib_a-findfp.o)
 .text._cleanup
                0x00000000        0xc c:/program files (x86)/gnu arm embedded toolchain/10 2021.10/bin/../lib/gcc/arm-none-eabi/10.3.1/../../../../arm-none-eabi/lib/thumb/v7e-m+fp/hard\libc_nano.a(lib_a-findfp.o)
 .text.__fp_lock_all
                0x00000000       0x1c c:/program files (x86)/gnu arm embedded toolchain/10 2021.10/bin/../lib/gcc/arm-none-eabi/10.3.1/../../../../arm-none-eabi/lib/thumb/v7e-m+fp/hard\libc_nano.a(lib_a-findfp.o)
 .text.__fp_unlock_all
                0x00000000       0x1c c:/program files (x86)/gnu arm embedded toolchain/10 2021.10/bin/../lib/gcc/arm-none-eabi/10.3.1/../../../../arm-none-eabi/lib/thumb/v7e-m+fp/hard\libc_nano.a(lib_a-findfp.o)
 .text          0x00000000        0x0 c:/program files (x86)/gnu arm embedded toolchain/10 2021.10/bin/../lib/gcc/arm-none-eabi/10.3.1/../../../../arm-none-eabi/lib/thumb/v7e-m+fp/hard\libc_nano.a(lib_a-fwalk.o)
 .data          0x00000000        0x0 c:/program files (x86)/gnu arm embedded toolchain/10 2021.10/bin/../lib/gcc/arm-none-eabi/10.3.1/../../../../arm-none-eabi/lib/thumb/v7e-m+fp/hard\libc_nano.a(lib_a-fwalk.o)
 .bss           0x00000000        0x0 c:/program files (x86)/gnu arm embedded toolchain/10 2021.10/bin/../lib/gcc/arm-none-eabi/10.3.1/../../../../arm-none-eabi/lib/thumb/v7e-m+fp/hard\libc_nano.a(lib_a-fwalk.o)
 .text._fwalk   0x00000000       0x3a c:/program files (x86)/gnu arm embedded toolchain/10 2021.10/bin/../lib/gcc/arm-none-eabi/10.3.1/../../../../arm-none-eabi/lib/thumb/v7e-m+fp/hard\libc_nano.a(lib_a-fwalk.o)
 .text          0x00000000        0x0 c:/program files (x86)/gnu arm embedded toolchain/10 2021.10/bin/../lib/gcc/arm-none-eabi/10.3.1/../../../../arm-none-eabi/lib/thumb/v7e-m+fp/hard\libc_nano.a(lib_a-lock.o)
 .data          0x00000000        0x0 c:/program files (x86)/gnu arm embedded toolchain/10 2021.10/bin/../lib/gcc/arm-none-eabi/10.3.1/../../../../arm-none-eabi/lib/thumb/v7e-m+fp/hard\libc_nano.a(lib_a-lock.o)
 .bss           0x00000000        0x0 c:/program files (x86)/gnu arm embedded toolchain/10 2021.10/bin/../lib/gcc/arm-none-eabi/10.3.1/../../../../arm-none-eabi/lib/thumb/v7e-m+fp/hard\libc_nano.a(lib_a-lock.o)
 .text.__retarget_lock_init
                0x00000000        0x2 c:/program files (x86)/gnu arm embedded toolchain/10 2021.10/bin/../lib/gcc/arm-none-eabi/10.3.1/../../../../arm-none-eabi/lib/thumb/v7e-m+fp/hard\libc_nano.a(lib_a-lock.o)
 .text.__retarget_lock_close
                0x00000000        0x2 c:/program files (x86)/gnu arm embedded toolchain/10 2021.10/bin/../lib/gcc/arm-none-eabi/10.3.1/../../../../arm-none-eabi/lib/thumb/v7e-m+fp/hard\libc_nano.a(lib_a-lock.o)
 .text.__retarget_lock_close_recursive
                0x00000000        0x2 c:/program files (x86)/gnu arm embedded toolchain/10 2021.10/bin/../lib/gcc/arm-none-eabi/10.3.1/../../../../arm-none-eabi/lib/thumb/v7e-m+fp/hard\libc_nano.a(lib_a-lock.o)
 .text.__retarget_lock_acquire
                0x00000000        0x2 c:/program files (x86)/gnu arm embedded toolchain/10 2021.10/bin/../lib/gcc/arm-none-eabi/10.3.1/../../../../arm-none-eabi/lib/thumb/v7e-m+fp/hard\libc_nano.a(lib_a-lock.o)
 .text.__retarget_lock_try_acquire
                0x00000000        0x4 c:/program files (x86)/gnu arm embedded toolchain/10 2021.10/bin/../lib/gcc/arm-none-eabi/10.3.1/../../../../arm-none-eabi/lib/thumb/v7e-m+fp/hard\libc_nano.a(lib_a-lock.o)
 .text.__retarget_lock_try_acquire_recursive
                0x00000000        0x4 c:/program files (x86)/gnu arm embedded toolchain/10 2021.10/bin/../lib/gcc/arm-none-eabi/10.3.1/../../../../arm-none-eabi/lib/thumb/v7e-m+fp/hard\libc_nano.a(lib_a-lock.o)
 .text.__retarget_lock_release
                0x00000000        0x2 c:/program files (x86)/gnu arm embedded toolchain/10 2021.10/bin/../lib/gcc/arm-none-eabi/10.3.1/../../../../arm-none-eabi/lib/thumb/v7e-m+fp/hard\libc_nano.a(lib_a-lock.o)
 .bss.__lock___arc4random_mutex
                0x00000000        0x1 c:/program files (x86)/gnu arm embedded toolchain/10 2021.10/bin/../lib/gcc/arm-none-eabi/10.3.1/../../../../arm-none-eabi/lib/thumb/v7e-m+fp/hard\libc_nano.a(lib_a-lock.o)
 .bss.__lock___at_quick_exit_mutex
                0x00000000        0x1 c:/program files (x86)/gnu arm embedded toolchain/10 2021.10/bin/../lib/gcc/arm-none-eabi/10.3.1/../../../../arm-none-eabi/lib/thumb/v7e-m+fp/hard\libc_nano.a(lib_a-lock.o)
 .bss.__lock___atexit_recursive_mutex
                0x00000000        0x1 c:/program files (x86)/gnu arm embedded toolchain/10 2021.10/bin/../lib/gcc/arm-none-eabi/10.3.1/../../../../arm-none-eabi/lib/thumb/v7e-m+fp/hard\libc_nano.a(lib_a-lock.o)
 .bss.__lock___dd_hash_mutex
                0x00000000        0x1 c:/program files (x86)/gnu arm embedded toolchain/10 2021.10/bin/../lib/gcc/arm-none-eabi/10.3.1/../../../../arm-none-eabi/lib/thumb/v7e-m+fp/hard\libc_nano.a(lib_a-lock.o)
 .bss.__lock___env_recursive_mutex
                0x00000000        0x1 c:/program files (x86)/gnu arm embedded toolchain/10 2021.10/bin/../lib/gcc/arm-none-eabi/10.3.1/../../../../arm-none-eabi/lib/thumb/v7e-m+fp/hard\libc_nano.a(lib_a-lock.o)
 .bss.__lock___tz_mutex
                0x00000000        0x1 c:/program files (x86)/gnu arm embedded toolchain/10 2021.10/bin/../lib/gcc/arm-none-eabi/10.3.1/../../../../arm-none-eabi/lib/thumb/v7e-m+fp/hard\libc_nano.a(lib_a-lock.o)
 .text          0x00000000        0x0 c:/program files (x86)/gnu arm embedded toolchain/10 2021.10/bin/../lib/gcc/arm-none-eabi/10.3.1/../../../../arm-none-eabi/lib/thumb/v7e-m+fp/hard\libc_nano.a(lib_a-mlock.o)
 .data          0x00000000        0x0 c:/program files (x86)/gnu arm embedded toolchain/10 2021.10/bin/../lib/gcc/arm-none-eabi/10.3.1/../../../../arm-none-eabi/lib/thumb/v7e-m+fp/hard\libc_nano.a(lib_a-mlock.o)
 .bss           0x00000000        0x0 c:/program files (x86)/gnu arm embedded toolchain/10 2021.10/bin/../lib/gcc/arm-none-eabi/10.3.1/../../../../arm-none-eabi/lib/thumb/v7e-m+fp/hard\libc_nano.a(lib_a-mlock.o)
 .text          0x00000000        0x0 c:/program files (x86)/gnu arm embedded toolchain/10 2021.10/bin/../lib/gcc/arm-none-eabi/10.3.1/../../../../arm-none-eabi/lib/thumb/v7e-m+fp/hard\libc_nano.a(lib_a-nano-svfprintf.o)
 .data          0x00000000        0x0 c:/program files (x86)/gnu arm embedded toolchain/10 2021.10/bin/../lib/gcc/arm-none-eabi/10.3.1/../../../../arm-none-eabi/lib/thumb/v7e-m+fp/hard\libc_nano.a(lib_a-nano-svfprintf.o)
 .bss           0x00000000        0x0 c:/program files (x86)/gnu arm embedded toolchain/10 2021.10/bin/../lib/gcc/arm-none-eabi/10.3.1/../../../../arm-none-eabi/lib/thumb/v7e-m+fp/hard\libc_nano.a(lib_a-nano-svfprintf.o)
 .text.__ssprint_r
                0x00000000       0xf6 c:/program files (x86)/gnu arm embedded toolchain/10 2021.10/bin/../lib/gcc/arm-none-eabi/10.3.1/../../../../arm-none-eabi/lib/thumb/v7e-m+fp/hard\libc_nano.a(lib_a-nano-svfprintf.o)
 .text          0x00000000        0x0 c:/program files (x86)/gnu arm embedded toolchain/10 2021.10/bin/../lib/gcc/arm-none-eabi/10.3.1/../../../../arm-none-eabi/lib/thumb/v7e-m+fp/hard\libc_nano.a(lib_a-nano-vfprintf.o)
 .data          0x00000000        0x0 c:/program files (x86)/gnu arm embedded toolchain/10 2021.10/bin/../lib/gcc/arm-none-eabi/10.3.1/../../../../arm-none-eabi/lib/thumb/v7e-m+fp/hard\libc_nano.a(lib_a-nano-vfprintf.o)
 .bss           0x00000000        0x0 c:/program files (x86)/gnu arm embedded toolchain/10 2021.10/bin/../lib/gcc/arm-none-eabi/10.3.1/../../../../arm-none-eabi/lib/thumb/v7e-m+fp/hard\libc_nano.a(lib_a-nano-vfprintf.o)
 .text.__sprint_r
                0x00000000       0x1a c:/program files (x86)/gnu arm embedded toolchain/10 2021.10/bin/../lib/gcc/arm-none-eabi/10.3.1/../../../../arm-none-eabi/lib/thumb/v7e-m+fp/hard\libc_nano.a(lib_a-nano-vfprintf.o)
 .text.vfprintf
                0x00000000       0x14 c:/program files (x86)/gnu arm embedded toolchain/10 2021.10/bin/../lib/gcc/arm-none-eabi/10.3.1/../../../../arm-none-eabi/lib/thumb/v7e-m+fp/hard\libc_nano.a(lib_a-nano-vfprintf.o)
 .text          0x00000000        0x0 c:/program files (x86)/gnu arm embedded toolchain/10 2021.10/bin/../lib/gcc/arm-none-eabi/10.3.1/../../../../arm-none-eabi/lib/thumb/v7e-m+fp/hard\libc_nano.a(lib_a-nano-vfprintf_i.o)
 .data          0x00000000        0x0 c:/program files (x86)/gnu arm embedded toolchain/10 2021.10/bin/../lib/gcc/arm-none-eabi/10.3.1/../../../../arm-none-eabi/lib/thumb/v7e-m+fp/hard\libc_nano.a(lib_a-nano-vfprintf_i.o)
 .bss           0x00000000        0x0 c:/program files (x86)/gnu arm embedded toolchain/10 2021.10/bin/../lib/gcc/arm-none-eabi/10.3.1/../../../../arm-none-eabi/lib/thumb/v7e-m+fp/hard\libc_nano.a(lib_a-nano-vfprintf_i.o)
 .text          0x00000000        0x0 c:/program files (x86)/gnu arm embedded toolchain/10 2021.10/bin/../lib/gcc/arm-none-eabi/10.3.1/../../../../arm-none-eabi/lib/thumb/v7e-m+fp/hard\libc_nano.a(lib_a-reent.o)
 .data          0x00000000        0x0 c:/program files (x86)/gnu arm embedded toolchain/10 2021.10/bin/../lib/gcc/arm-none-eabi/10.3.1/../../../../arm-none-eabi/lib/thumb/v7e-m+fp/hard\libc_nano.a(lib_a-reent.o)
 .bss           0x00000000        0x0 c:/program files (x86)/gnu arm embedded toolchain/10 2021.10/bin/../lib/gcc/arm-none-eabi/10.3.1/../../../../arm-none-eabi/lib/thumb/v7e-m+fp/hard\libc_nano.a(lib_a-reent.o)
 .text.cleanup_glue
                0x00000000       0x1a c:/program files (x86)/gnu arm embedded toolchain/10 2021.10/bin/../lib/gcc/arm-none-eabi/10.3.1/../../../../arm-none-eabi/lib/thumb/v7e-m+fp/hard\libc_nano.a(lib_a-reent.o)
 .text._reclaim_reent
                0x00000000       0xb8 c:/program files (x86)/gnu arm embedded toolchain/10 2021.10/bin/../lib/gcc/arm-none-eabi/10.3.1/../../../../arm-none-eabi/lib/thumb/v7e-m+fp/hard\libc_nano.a(lib_a-reent.o)
 .text          0x00000000        0x0 c:/program files (x86)/gnu arm embedded toolchain/10 2021.10/bin/../lib/gcc/arm-none-eabi/10.3.1/../../../../arm-none-eabi/lib/thumb/v7e-m+fp/hard\libc_nano.a(lib_a-stdio.o)
 .data          0x00000000        0x0 c:/program files (x86)/gnu arm embedded toolchain/10 2021.10/bin/../lib/gcc/arm-none-eabi/10.3.1/../../../../arm-none-eabi/lib/thumb/v7e-m+fp/hard\libc_nano.a(lib_a-stdio.o)
 .bss           0x00000000        0x0 c:/program files (x86)/gnu arm embedded toolchain/10 2021.10/bin/../lib/gcc/arm-none-eabi/10.3.1/../../../../arm-none-eabi/lib/thumb/v7e-m+fp/hard\libc_nano.a(lib_a-stdio.o)
 .text.__seofread
                0x00000000        0x4 c:/program files (x86)/gnu arm embedded toolchain/10 2021.10/bin/../lib/gcc/arm-none-eabi/10.3.1/../../../../arm-none-eabi/lib/thumb/v7e-m+fp/hard\libc_nano.a(lib_a-stdio.o)
 .text          0x00000000        0x0 c:/program files (x86)/gnu arm embedded toolchain/10 2021.10/bin/../lib/gcc/arm-none-eabi/10.3.1/../../../../arm-none-eabi/lib/thumb/v7e-m+fp/hard\libc_nano.a(lib_a-wbuf.o)
 .data          0x00000000        0x0 c:/program files (x86)/gnu arm embedded toolchain/10 2021.10/bin/../lib/gcc/arm-none-eabi/10.3.1/../../../../arm-none-eabi/lib/thumb/v7e-m+fp/hard\libc_nano.a(lib_a-wbuf.o)
 .bss           0x00000000        0x0 c:/program files (x86)/gnu arm embedded toolchain/10 2021.10/bin/../lib/gcc/arm-none-eabi/10.3.1/../../../../arm-none-eabi/lib/thumb/v7e-m+fp/hard\libc_nano.a(lib_a-wbuf.o)
 .text.__swbuf  0x00000000       0x10 c:/program files (x86)/gnu arm embedded toolchain/10 2021.10/bin/../lib/gcc/arm-none-eabi/10.3.1/../../../../arm-none-eabi/lib/thumb/v7e-m+fp/hard\libc_nano.a(lib_a-wbuf.o)
 .text          0x00000000        0x0 c:/program files (x86)/gnu arm embedded toolchain/10 2021.10/bin/../lib/gcc/arm-none-eabi/10.3.1/../../../../arm-none-eabi/lib/thumb/v7e-m+fp/hard\libc_nano.a(lib_a-writer.o)
 .data          0x00000000        0x0 c:/program files (x86)/gnu arm embedded toolchain/10 2021.10/bin/../lib/gcc/arm-none-eabi/10.3.1/../../../../arm-none-eabi/lib/thumb/v7e-m+fp/hard\libc_nano.a(lib_a-writer.o)
 .bss           0x00000000        0x0 c:/program files (x86)/gnu arm embedded toolchain/10 2021.10/bin/../lib/gcc/arm-none-eabi/10.3.1/../../../../arm-none-eabi/lib/thumb/v7e-m+fp/hard\libc_nano.a(lib_a-writer.o)
 .text          0x00000000        0x0 c:/program files (x86)/gnu arm embedded toolchain/10 2021.10/bin/../lib/gcc/arm-none-eabi/10.3.1/../../../../arm-none-eabi/lib/thumb/v7e-m+fp/hard\libc_nano.a(lib_a-wsetup.o)
 .data          0x00000000        0x0 c:/program files (x86)/gnu arm embedded toolchain/10 2021.10/bin/../lib/gcc/arm-none-eabi/10.3.1/../../../../arm-none-eabi/lib/thumb/v7e-m+fp/hard\libc_nano.a(lib_a-wsetup.o)
 .bss           0x00000000        0x0 c:/program files (x86)/gnu arm embedded toolchain/10 2021.10/bin/../lib/gcc/arm-none-eabi/10.3.1/../../../../arm-none-eabi/lib/thumb/v7e-m+fp/hard\libc_nano.a(lib_a-wsetup.o)
 .text          0x00000000        0x0 c:/program files (x86)/gnu arm embedded toolchain/10 2021.10/bin/../lib/gcc/arm-none-eabi/10.3.1/../../../../arm-none-eabi/lib/thumb/v7e-m+fp/hard\libc_nano.a(lib_a-closer.o)
 .data          0x00000000        0x0 c:/program files (x86)/gnu arm embedded toolchain/10 2021.10/bin/../lib/gcc/arm-none-eabi/10.3.1/../../../../arm-none-eabi/lib/thumb/v7e-m+fp/hard\libc_nano.a(lib_a-closer.o)
 .bss           0x00000000        0x0 c:/program files (x86)/gnu arm embedded toolchain/10 2021.10/bin/../lib/gcc/arm-none-eabi/10.3.1/../../../../arm-none-eabi/lib/thumb/v7e-m+fp/hard\libc_nano.a(lib_a-closer.o)
 .text          0x00000000        0x0 c:/program files (x86)/gnu arm embedded toolchain/10 2021.10/bin/../lib/gcc/arm-none-eabi/10.3.1/../../../../arm-none-eabi/lib/thumb/v7e-m+fp/hard\libc_nano.a(lib_a-fflush.o)
 .data          0x00000000        0x0 c:/program files (x86)/gnu arm embedded toolchain/10 2021.10/bin/../lib/gcc/arm-none-eabi/10.3.1/../../../../arm-none-eabi/lib/thumb/v7e-m+fp/hard\libc_nano.a(lib_a-fflush.o)
 .bss           0x00000000        0x0 c:/program files (x86)/gnu arm embedded toolchain/10 2021.10/bin/../lib/gcc/arm-none-eabi/10.3.1/../../../../arm-none-eabi/lib/thumb/v7e-m+fp/hard\libc_nano.a(lib_a-fflush.o)
 .text.fflush   0x00000000       0x24 c:/program files (x86)/gnu arm embedded toolchain/10 2021.10/bin/../lib/gcc/arm-none-eabi/10.3.1/../../../../arm-none-eabi/lib/thumb/v7e-m+fp/hard\libc_nano.a(lib_a-fflush.o)
 .text          0x00000000        0x0 c:/program files (x86)/gnu arm embedded toolchain/10 2021.10/bin/../lib/gcc/arm-none-eabi/10.3.1/../../../../arm-none-eabi/lib/thumb/v7e-m+fp/hard\libc_nano.a(lib_a-fvwrite.o)
 .data          0x00000000        0x0 c:/program files (x86)/gnu arm embedded toolchain/10 2021.10/bin/../lib/gcc/arm-none-eabi/10.3.1/../../../../arm-none-eabi/lib/thumb/v7e-m+fp/hard\libc_nano.a(lib_a-fvwrite.o)
 .bss           0x00000000        0x0 c:/program files (x86)/gnu arm embedded toolchain/10 2021.10/bin/../lib/gcc/arm-none-eabi/10.3.1/../../../../arm-none-eabi/lib/thumb/v7e-m+fp/hard\libc_nano.a(lib_a-fvwrite.o)
 .text.__sfvwrite_r
                0x00000000      0x294 c:/program files (x86)/gnu arm embedded toolchain/10 2021.10/bin/../lib/gcc/arm-none-eabi/10.3.1/../../../../arm-none-eabi/lib/thumb/v7e-m+fp/hard\libc_nano.a(lib_a-fvwrite.o)
 .debug_frame   0x00000000       0x3c c:/program files (x86)/gnu arm embedded toolchain/10 2021.10/bin/../lib/gcc/arm-none-eabi/10.3.1/../../../../arm-none-eabi/lib/thumb/v7e-m+fp/hard\libc_nano.a(lib_a-fvwrite.o)
 .ARM.attributes
                0x00000000       0x34 c:/program files (x86)/gnu arm embedded toolchain/10 2021.10/bin/../lib/gcc/arm-none-eabi/10.3.1/../../../../arm-none-eabi/lib/thumb/v7e-m+fp/hard\libc_nano.a(lib_a-fvwrite.o)
 .text          0x00000000        0x0 c:/program files (x86)/gnu arm embedded toolchain/10 2021.10/bin/../lib/gcc/arm-none-eabi/10.3.1/../../../../arm-none-eabi/lib/thumb/v7e-m+fp/hard\libc_nano.a(lib_a-lseekr.o)
 .data          0x00000000        0x0 c:/program files (x86)/gnu arm embedded toolchain/10 2021.10/bin/../lib/gcc/arm-none-eabi/10.3.1/../../../../arm-none-eabi/lib/thumb/v7e-m+fp/hard\libc_nano.a(lib_a-lseekr.o)
 .bss           0x00000000        0x0 c:/program files (x86)/gnu arm embedded toolchain/10 2021.10/bin/../lib/gcc/arm-none-eabi/10.3.1/../../../../arm-none-eabi/lib/thumb/v7e-m+fp/hard\libc_nano.a(lib_a-lseekr.o)
 .text          0x00000000        0x0 c:/program files (x86)/gnu arm embedded toolchain/10 2021.10/bin/../lib/gcc/arm-none-eabi/10.3.1/../../../../arm-none-eabi/lib/thumb/v7e-m+fp/hard\libc_nano.a(lib_a-makebuf.o)
 .data          0x00000000        0x0 c:/program files (x86)/gnu arm embedded toolchain/10 2021.10/bin/../lib/gcc/arm-none-eabi/10.3.1/../../../../arm-none-eabi/lib/thumb/v7e-m+fp/hard\libc_nano.a(lib_a-makebuf.o)
 .bss           0x00000000        0x0 c:/program files (x86)/gnu arm embedded toolchain/10 2021.10/bin/../lib/gcc/arm-none-eabi/10.3.1/../../../../arm-none-eabi/lib/thumb/v7e-m+fp/hard\libc_nano.a(lib_a-makebuf.o)
 .data          0x00000000        0x0 c:/program files (x86)/gnu arm embedded toolchain/10 2021.10/bin/../lib/gcc/arm-none-eabi/10.3.1/../../../../arm-none-eabi/lib/thumb/v7e-m+fp/hard\libc_nano.a(lib_a-memchr.o)
 .bss           0x00000000        0x0 c:/program files (x86)/gnu arm embedded toolchain/10 2021.10/bin/../lib/gcc/arm-none-eabi/10.3.1/../../../../arm-none-eabi/lib/thumb/v7e-m+fp/hard\libc_nano.a(lib_a-memchr.o)
 .text          0x00000000        0x0 c:/program files (x86)/gnu arm embedded toolchain/10 2021.10/bin/../lib/gcc/arm-none-eabi/10.3.1/../../../../arm-none-eabi/lib/thumb/v7e-m+fp/hard\libc_nano.a(lib_a-nano-reallocr.o)
 .data          0x00000000        0x0 c:/program files (x86)/gnu arm embedded toolchain/10 2021.10/bin/../lib/gcc/arm-none-eabi/10.3.1/../../../../arm-none-eabi/lib/thumb/v7e-m+fp/hard\libc_nano.a(lib_a-nano-reallocr.o)
 .bss           0x00000000        0x0 c:/program files (x86)/gnu arm embedded toolchain/10 2021.10/bin/../lib/gcc/arm-none-eabi/10.3.1/../../../../arm-none-eabi/lib/thumb/v7e-m+fp/hard\libc_nano.a(lib_a-nano-reallocr.o)
 .text          0x00000000        0x0 c:/program files (x86)/gnu arm embedded toolchain/10 2021.10/bin/../lib/gcc/arm-none-eabi/10.3.1/../../../../arm-none-eabi/lib/thumb/v7e-m+fp/hard\libc_nano.a(lib_a-readr.o)
 .data          0x00000000        0x0 c:/program files (x86)/gnu arm embedded toolchain/10 2021.10/bin/../lib/gcc/arm-none-eabi/10.3.1/../../../../arm-none-eabi/lib/thumb/v7e-m+fp/hard\libc_nano.a(lib_a-readr.o)
 .bss           0x00000000        0x0 c:/program files (x86)/gnu arm embedded toolchain/10 2021.10/bin/../lib/gcc/arm-none-eabi/10.3.1/../../../../arm-none-eabi/lib/thumb/v7e-m+fp/hard\libc_nano.a(lib_a-readr.o)
 .text          0x00000000        0x0 c:/program files (x86)/gnu arm embedded toolchain/10 2021.10/bin/../lib/gcc/arm-none-eabi/10.3.1/../../../../arm-none-eabi/lib/thumb/v7e-m+fp/hard\libc_nano.a(lib_a-fstatr.o)
 .data          0x00000000        0x0 c:/program files (x86)/gnu arm embedded toolchain/10 2021.10/bin/../lib/gcc/arm-none-eabi/10.3.1/../../../../arm-none-eabi/lib/thumb/v7e-m+fp/hard\libc_nano.a(lib_a-fstatr.o)
 .bss           0x00000000        0x0 c:/program files (x86)/gnu arm embedded toolchain/10 2021.10/bin/../lib/gcc/arm-none-eabi/10.3.1/../../../../arm-none-eabi/lib/thumb/v7e-m+fp/hard\libc_nano.a(lib_a-fstatr.o)
 .text          0x00000000        0x0 c:/program files (x86)/gnu arm embedded toolchain/10 2021.10/bin/../lib/gcc/arm-none-eabi/10.3.1/../../../../arm-none-eabi/lib/thumb/v7e-m+fp/hard\libc_nano.a(lib_a-isattyr.o)
 .data          0x00000000        0x0 c:/program files (x86)/gnu arm embedded toolchain/10 2021.10/bin/../lib/gcc/arm-none-eabi/10.3.1/../../../../arm-none-eabi/lib/thumb/v7e-m+fp/hard\libc_nano.a(lib_a-isattyr.o)
 .bss           0x00000000        0x0 c:/program files (x86)/gnu arm embedded toolchain/10 2021.10/bin/../lib/gcc/arm-none-eabi/10.3.1/../../../../arm-none-eabi/lib/thumb/v7e-m+fp/hard\libc_nano.a(lib_a-isattyr.o)
 .text          0x00000000        0x0 c:/program files (x86)/gnu arm embedded toolchain/10 2021.10/bin/../lib/gcc/arm-none-eabi/10.3.1/../../../../arm-none-eabi/lib/thumb/v7e-m+fp/hard\libc_nano.a(lib_a-nano-msizer.o)
 .data          0x00000000        0x0 c:/program files (x86)/gnu arm embedded toolchain/10 2021.10/bin/../lib/gcc/arm-none-eabi/10.3.1/../../../../arm-none-eabi/lib/thumb/v7e-m+fp/hard\libc_nano.a(lib_a-nano-msizer.o)
 .bss           0x00000000        0x0 c:/program files (x86)/gnu arm embedded toolchain/10 2021.10/bin/../lib/gcc/arm-none-eabi/10.3.1/../../../../arm-none-eabi/lib/thumb/v7e-m+fp/hard\libc_nano.a(lib_a-nano-msizer.o)
 .data          0x00000000        0x0 c:/program files (x86)/gnu arm embedded toolchain/10 2021.10/bin/../lib/gcc/arm-none-eabi/10.3.1/thumb/v7e-m+fp/hard\libgcc.a(_aeabi_uldivmod.o)
 .bss           0x00000000        0x0 c:/program files (x86)/gnu arm embedded toolchain/10 2021.10/bin/../lib/gcc/arm-none-eabi/10.3.1/thumb/v7e-m+fp/hard\libgcc.a(_aeabi_uldivmod.o)
 .data          0x00000000        0x0 c:/program files (x86)/gnu arm embedded toolchain/10 2021.10/bin/../lib/gcc/arm-none-eabi/10.3.1/thumb/v7e-m+fp/hard\libgcc.a(_udivmoddi4.o)
 .bss           0x00000000        0x0 c:/program files (x86)/gnu arm embedded toolchain/10 2021.10/bin/../lib/gcc/arm-none-eabi/10.3.1/thumb/v7e-m+fp/hard\libgcc.a(_udivmoddi4.o)
 .ARM.extab     0x00000000        0x0 c:/program files (x86)/gnu arm embedded toolchain/10 2021.10/bin/../lib/gcc/arm-none-eabi/10.3.1/thumb/v7e-m+fp/hard\libgcc.a(_udivmoddi4.o)
 .data          0x00000000        0x0 c:/program files (x86)/gnu arm embedded toolchain/10 2021.10/bin/../lib/gcc/arm-none-eabi/10.3.1/thumb/v7e-m+fp/hard\libgcc.a(_dvmd_tls.o)
 .bss           0x00000000        0x0 c:/program files (x86)/gnu arm embedded toolchain/10 2021.10/bin/../lib/gcc/arm-none-eabi/10.3.1/thumb/v7e-m+fp/hard\libgcc.a(_dvmd_tls.o)
 .text          0x00000000        0x0 c:/program files (x86)/gnu arm embedded toolchain/10 2021.10/bin/../lib/gcc/arm-none-eabi/10.3.1/thumb/v7e-m+fp/hard/crtend.o
 .data          0x00000000        0x0 c:/program files (x86)/gnu arm embedded toolchain/10 2021.10/bin/../lib/gcc/arm-none-eabi/10.3.1/thumb/v7e-m+fp/hard/crtend.o
 .bss           0x00000000        0x0 c:/program files (x86)/gnu arm embedded toolchain/10 2021.10/bin/../lib/gcc/arm-none-eabi/10.3.1/thumb/v7e-m+fp/hard/crtend.o
 .rodata        0x00000000       0x24 c:/program files (x86)/gnu arm embedded toolchain/10 2021.10/bin/../lib/gcc/arm-none-eabi/10.3.1/thumb/v7e-m+fp/hard/crtend.o
 .eh_frame      0x00000000        0x4 c:/program files (x86)/gnu arm embedded toolchain/10 2021.10/bin/../lib/gcc/arm-none-eabi/10.3.1/thumb/v7e-m+fp/hard/crtend.o
 .ARM.attributes
                0x00000000       0x34 c:/program files (x86)/gnu arm embedded toolchain/10 2021.10/bin/../lib/gcc/arm-none-eabi/10.3.1/thumb/v7e-m+fp/hard/crtend.o
 .text          0x00000000        0x0 c:/program files (x86)/gnu arm embedded toolchain/10 2021.10/bin/../lib/gcc/arm-none-eabi/10.3.1/thumb/v7e-m+fp/hard/crtn.o
 .data          0x00000000        0x0 c:/program files (x86)/gnu arm embedded toolchain/10 2021.10/bin/../lib/gcc/arm-none-eabi/10.3.1/thumb/v7e-m+fp/hard/crtn.o
 .bss           0x00000000        0x0 c:/program files (x86)/gnu arm embedded toolchain/10 2021.10/bin/../lib/gcc/arm-none-eabi/10.3.1/thumb/v7e-m+fp/hard/crtn.o

Memory Configuration

Name             Origin             Length             Attributes
RAM              0x20000000         0x00020000         xrw
FLASH            0x08000000         0x00080000         xr
*default*        0x00000000         0xffffffff

Linker script and memory map

LOAD c:/program files (x86)/gnu arm embedded toolchain/10 2021.10/bin/../lib/gcc/arm-none-eabi/10.3.1/thumb/v7e-m+fp/hard/crti.o
LOAD c:/program files (x86)/gnu arm embedded toolchain/10 2021.10/bin/../lib/gcc/arm-none-eabi/10.3.1/thumb/v7e-m+fp/hard/crtbegin.o
LOAD c:/program files (x86)/gnu arm embedded toolchain/10 2021.10/bin/../lib/gcc/arm-none-eabi/10.3.1/../../../../arm-none-eabi/lib/thumb/v7e-m+fp/hard/crt0.o
LOAD build/stm32f4xx_it.o
LOAD build/stm32f4xx_hal_msp.o
LOAD build/Darin3Cart_Driver.o
LOAD build/usb_device.o
LOAD build/usbd_desc.o
LOAD build/usbd_cdc_if.o
LOAD build/usbd_conf.o
LOAD build/stm32f4xx_hal_pcd.o
LOAD build/stm32f4xx_hal_pcd_ex.o
LOAD build/stm32f4xx_ll_usb.o
LOAD build/stm32f4xx_hal_rcc.o
LOAD build/stm32f4xx_hal_rcc_ex.o
LOAD build/stm32f4xx_hal_flash.o
LOAD build/stm32f4xx_hal_flash_ex.o
LOAD build/stm32f4xx_hal_flash_ramfunc.o
LOAD build/stm32f4xx_hal_gpio.o
LOAD build/stm32f4xx_hal_dma_ex.o
LOAD build/stm32f4xx_hal_dma.o
LOAD build/stm32f4xx_hal_pwr.o
LOAD build/stm32f4xx_hal_pwr_ex.o
LOAD build/stm32f4xx_hal_cortex.o
LOAD build/stm32f4xx_hal.o
LOAD build/stm32f4xx_hal_exti.o
LOAD build/system_stm32f4xx.o
LOAD build/usbd_core.o
LOAD build/usbd_ctlreq.o
LOAD build/usbd_ioreq.o
LOAD build/usbd_cdc.o
LOAD build/sysmem.o
LOAD build/syscalls.o
LOAD build/diskio.o
LOAD build/ff.o
LOAD build/ffsystem.o
LOAD build/ffunicode.o
LOAD build/main.o
LOAD build/cpp_minimal.o
LOAD build/FatFsWrapperSingleton.o
LOAD build/FatFsWrapperSingletonTest.o
LOAD build/Darin3.o
LOAD build/SerialTransport.o
LOAD build/IspCmdControl.o
LOAD build/IspCmdReceiveData.o
LOAD build/IspCmdTransmitData.o
LOAD build/IspCommandManager.o
LOAD build/IspSubCommandProcessor.o
LOAD build/safeBuffer.o
LOAD build/startup_stm32f411xe.o
LOAD c:/program files (x86)/gnu arm embedded toolchain/10 2021.10/bin/../lib/gcc/arm-none-eabi/10.3.1/../../../../arm-none-eabi/lib/thumb/v7e-m+fp/hard\libc_nano.a
LOAD c:/program files (x86)/gnu arm embedded toolchain/10 2021.10/bin/../lib/gcc/arm-none-eabi/10.3.1/../../../../arm-none-eabi/lib/thumb/v7e-m+fp/hard\libm.a
LOAD c:/program files (x86)/gnu arm embedded toolchain/10 2021.10/bin/../lib/gcc/arm-none-eabi/10.3.1/../../../../arm-none-eabi/lib/thumb/v7e-m+fp/hard\libnosys.a
START GROUP
LOAD c:/program files (x86)/gnu arm embedded toolchain/10 2021.10/bin/../lib/gcc/arm-none-eabi/10.3.1/thumb/v7e-m+fp/hard\libgcc.a
LOAD c:/program files (x86)/gnu arm embedded toolchain/10 2021.10/bin/../lib/gcc/arm-none-eabi/10.3.1/../../../../arm-none-eabi/lib/thumb/v7e-m+fp/hard\libc_nano.a
END GROUP
START GROUP
LOAD c:/program files (x86)/gnu arm embedded toolchain/10 2021.10/bin/../lib/gcc/arm-none-eabi/10.3.1/thumb/v7e-m+fp/hard\libgcc.a
LOAD c:/program files (x86)/gnu arm embedded toolchain/10 2021.10/bin/../lib/gcc/arm-none-eabi/10.3.1/../../../../arm-none-eabi/lib/thumb/v7e-m+fp/hard\libc_nano.a
END GROUP
LOAD c:/program files (x86)/gnu arm embedded toolchain/10 2021.10/bin/../lib/gcc/arm-none-eabi/10.3.1/thumb/v7e-m+fp/hard/crtend.o
LOAD c:/program files (x86)/gnu arm embedded toolchain/10 2021.10/bin/../lib/gcc/arm-none-eabi/10.3.1/thumb/v7e-m+fp/hard/crtn.o
                0x20020000                _estack = (ORIGIN (RAM) + LENGTH (RAM))
                0x00000200                _Min_Heap_Size = 0x200
                0x00000400                _Min_Stack_Size = 0x400

.isr_vector     0x08000000      0x198
                0x08000000                . = ALIGN (0x4)
 *(.isr_vector)
 .isr_vector    0x08000000      0x198 build/startup_stm32f411xe.o
                0x08000000                g_pfnVectors
                0x08000198                . = ALIGN (0x4)

.text           0x080001a0     0xa978
                0x080001a0                . = ALIGN (0x4)
 *(.text)
 .text          0x080001a0       0x40 c:/program files (x86)/gnu arm embedded toolchain/10 2021.10/bin/../lib/gcc/arm-none-eabi/10.3.1/thumb/v7e-m+fp/hard/crtbegin.o
 .text          0x080001e0       0x14 c:/program files (x86)/gnu arm embedded toolchain/10 2021.10/bin/../lib/gcc/arm-none-eabi/10.3.1/../../../../arm-none-eabi/lib/thumb/v7e-m+fp/hard\libc_nano.a(lib_a-strcmp.o)
                0x080001e0                strcmp
 *fill*         0x080001f4        0xc 
 .text          0x08000200       0xa0 c:/program files (x86)/gnu arm embedded toolchain/10 2021.10/bin/../lib/gcc/arm-none-eabi/10.3.1/../../../../arm-none-eabi/lib/thumb/v7e-m+fp/hard\libc_nano.a(lib_a-memchr.o)
                0x08000200                memchr
 .text          0x080002a0       0x30 c:/program files (x86)/gnu arm embedded toolchain/10 2021.10/bin/../lib/gcc/arm-none-eabi/10.3.1/thumb/v7e-m+fp/hard\libgcc.a(_aeabi_uldivmod.o)
                0x080002a0                __aeabi_uldivmod
 .text          0x080002d0      0x2d0 c:/program files (x86)/gnu arm embedded toolchain/10 2021.10/bin/../lib/gcc/arm-none-eabi/10.3.1/thumb/v7e-m+fp/hard\libgcc.a(_udivmoddi4.o)
                0x080002d0                __udivmoddi4
 .text          0x080005a0        0x4 c:/program files (x86)/gnu arm embedded toolchain/10 2021.10/bin/../lib/gcc/arm-none-eabi/10.3.1/thumb/v7e-m+fp/hard\libgcc.a(_dvmd_tls.o)
                0x080005a0                __aeabi_idiv0
                0x080005a0                __aeabi_ldiv0
 *(.text*)
 .text.NMI_Handler
                0x080005a4        0x2 build/stm32f4xx_it.o
                0x080005a4                NMI_Handler
 .text.HardFault_Handler
                0x080005a6        0x2 build/stm32f4xx_it.o
                0x080005a6                HardFault_Handler
 .text.MemManage_Handler
                0x080005a8        0x2 build/stm32f4xx_it.o
                0x080005a8                MemManage_Handler
 .text.BusFault_Handler
                0x080005aa        0x2 build/stm32f4xx_it.o
                0x080005aa                BusFault_Handler
 .text.UsageFault_Handler
                0x080005ac        0x2 build/stm32f4xx_it.o
                0x080005ac                UsageFault_Handler
 .text.SVC_Handler
                0x080005ae        0x2 build/stm32f4xx_it.o
                0x080005ae                SVC_Handler
 .text.DebugMon_Handler
                0x080005b0        0x2 build/stm32f4xx_it.o
                0x080005b0                DebugMon_Handler
 .text.PendSV_Handler
                0x080005b2        0x2 build/stm32f4xx_it.o
                0x080005b2                PendSV_Handler
 .text.SysTick_Handler
                0x080005b4        0x8 build/stm32f4xx_it.o
                0x080005b4                SysTick_Handler
 .text.OTG_FS_IRQHandler
                0x080005bc       0x10 build/stm32f4xx_it.o
                0x080005bc                OTG_FS_IRQHandler
 .text.HAL_MspInit
                0x080005cc       0x38 build/stm32f4xx_hal_msp.o
                0x080005cc                HAL_MspInit
 .text.get_CE_pin
                0x08000604        0xc build/Darin3Cart_Driver.o
                0x08000604                get_CE_pin
 .text.get_D3_slt_status
                0x08000610        0xc build/Darin3Cart_Driver.o
                0x08000610                get_D3_slt_status
 .text.DataBus_SetOutput
                0x0800061c      0x528 build/Darin3Cart_Driver.o
                0x0800061c                DataBus_SetOutput
 .text.DataBus_SetInput
                0x08000b44      0x2b8 build/Darin3Cart_Driver.o
                0x08000b44                DataBus_SetInput
 .text.DataBus_Configure
                0x08000dfc       0x12 build/Darin3Cart_Driver.o
                0x08000dfc                DataBus_Configure
 *fill*         0x08000e0e        0x2 
 .text.write_address_port
                0x08000e10       0x70 build/Darin3Cart_Driver.o
                0x08000e10                write_address_port
 .text.UpdateD3SlotStatus
                0x08000e80       0x34 build/Darin3Cart_Driver.o
                0x08000e80                UpdateD3SlotStatus
 .text.get_D3_Green_LedPins
                0x08000eb4        0xc build/Darin3Cart_Driver.o
                0x08000eb4                get_D3_Green_LedPins
 .text.get_D3_Red_LedPins
                0x08000ec0        0xc build/Darin3Cart_Driver.o
                0x08000ec0                get_D3_Red_LedPins
 .text.setGreenLed
                0x08000ecc       0x20 build/Darin3Cart_Driver.o
                0x08000ecc                setGreenLed
 .text.setRedLed
                0x08000eec       0x20 build/Darin3Cart_Driver.o
                0x08000eec                setRedLed
 .text.short_delay_us
                0x08000f0c       0x1c build/Darin3Cart_Driver.o
                0x08000f0c                short_delay_us
 .text.DataBus_WriteByte
                0x08000f28       0x18 build/Darin3Cart_Driver.o
                0x08000f28                DataBus_WriteByte
 .text.DataBus_ReadByte
                0x08000f40       0x1c build/Darin3Cart_Driver.o
                0x08000f40                DataBus_ReadByte
 .text.slotLedBlink
                0x08000f5c       0x4c build/Darin3Cart_Driver.o
                0x08000f5c                slotLedBlink
 .text.LedLoopBack
                0x08000fa8       0xcc build/Darin3Cart_Driver.o
                0x08000fa8                LedLoopBack
 .text.BlinkAllLed
                0x08001074       0x34 build/Darin3Cart_Driver.o
                0x08001074                BlinkAllLed
 .text.MX_USB_DEVICE_Init
                0x080010a8       0x54 build/usb_device.o
                0x080010a8                MX_USB_DEVICE_Init
 .text.USBD_FS_DeviceDescriptor
                0x080010fc        0xc build/usbd_desc.o
                0x080010fc                USBD_FS_DeviceDescriptor
 .text.USBD_FS_LangIDStrDescriptor
                0x08001108        0xc build/usbd_desc.o
                0x08001108                USBD_FS_LangIDStrDescriptor
 .text.IntToUnicode
                0x08001114       0x46 build/usbd_desc.o
 *fill*         0x0800115a        0x2 
 .text.Get_SerialNum
                0x0800115c       0x38 build/usbd_desc.o
 .text.USBD_FS_SerialStrDescriptor
                0x08001194       0x14 build/usbd_desc.o
                0x08001194                USBD_FS_SerialStrDescriptor
 .text.USBD_FS_ProductStrDescriptor
                0x080011a8       0x24 build/usbd_desc.o
                0x080011a8                USBD_FS_ProductStrDescriptor
 .text.USBD_FS_ManufacturerStrDescriptor
                0x080011cc       0x1c build/usbd_desc.o
                0x080011cc                USBD_FS_ManufacturerStrDescriptor
 .text.USBD_FS_ConfigStrDescriptor
                0x080011e8       0x24 build/usbd_desc.o
                0x080011e8                USBD_FS_ConfigStrDescriptor
 .text.USBD_FS_InterfaceStrDescriptor
                0x0800120c       0x24 build/usbd_desc.o
                0x0800120c                USBD_FS_InterfaceStrDescriptor
 .text.CDC_DeInit_FS
                0x08001230        0x4 build/usbd_cdc_if.o
 .text.CDC_Control_FS
                0x08001234        0x4 build/usbd_cdc_if.o
 .text.CDC_TransmitCplt_FS
                0x08001238        0x4 build/usbd_cdc_if.o
 .text.CDC_Receive_FS
                0x0800123c       0x28 build/usbd_cdc_if.o
 .text.CDC_Init_FS
                0x08001264       0x28 build/usbd_cdc_if.o
 .text.CDC_Transmit_FS
                0x0800128c       0x2c build/usbd_cdc_if.o
                0x0800128c                CDC_Transmit_FS
 .text.HAL_PCD_MspInit
                0x080012b8       0x98 build/usbd_conf.o
                0x080012b8                HAL_PCD_MspInit
 .text.HAL_PCD_SetupStageCallback
                0x08001350       0x10 build/usbd_conf.o
                0x08001350                HAL_PCD_SetupStageCallback
 .text.HAL_PCD_DataOutStageCallback
                0x08001360       0x18 build/usbd_conf.o
                0x08001360                HAL_PCD_DataOutStageCallback
 .text.HAL_PCD_DataInStageCallback
                0x08001378       0x16 build/usbd_conf.o
                0x08001378                HAL_PCD_DataInStageCallback
 .text.HAL_PCD_SOFCallback
                0x0800138e        0xc build/usbd_conf.o
                0x0800138e                HAL_PCD_SOFCallback
 .text.HAL_PCD_ResetCallback
                0x0800139a       0x24 build/usbd_conf.o
                0x0800139a                HAL_PCD_ResetCallback
 *fill*         0x080013be        0x2 
 .text.HAL_PCD_SuspendCallback
                0x080013c0       0x30 build/usbd_conf.o
                0x080013c0                HAL_PCD_SuspendCallback
 .text.HAL_PCD_ResumeCallback
                0x080013f0        0xc build/usbd_conf.o
                0x080013f0                HAL_PCD_ResumeCallback
 .text.HAL_PCD_ISOOUTIncompleteCallback
                0x080013fc        0xc build/usbd_conf.o
                0x080013fc                HAL_PCD_ISOOUTIncompleteCallback
 .text.HAL_PCD_ISOINIncompleteCallback
                0x08001408        0xc build/usbd_conf.o
                0x08001408                HAL_PCD_ISOINIncompleteCallback
 .text.HAL_PCD_ConnectCallback
                0x08001414        0xc build/usbd_conf.o
                0x08001414                HAL_PCD_ConnectCallback
 .text.HAL_PCD_DisconnectCallback
                0x08001420        0xc build/usbd_conf.o
                0x08001420                HAL_PCD_DisconnectCallback
 .text.USBD_LL_Init
                0x0800142c       0x68 build/usbd_conf.o
                0x0800142c                USBD_LL_Init
 .text.USBD_LL_IsStallEP
                0x08001494       0x2c build/usbd_conf.o
                0x08001494                USBD_LL_IsStallEP
 .text.USBD_LL_GetRxDataSize
                0x080014c0        0xc build/usbd_conf.o
                0x080014c0                USBD_LL_GetRxDataSize
 .text.USBD_static_malloc
                0x080014cc        0x8 build/usbd_conf.o
                0x080014cc                USBD_static_malloc
 .text.USBD_static_free
                0x080014d4        0x2 build/usbd_conf.o
                0x080014d4                USBD_static_free
 .text.USBD_Get_USB_Status
                0x080014d6       0x14 build/usbd_conf.o
                0x080014d6                USBD_Get_USB_Status
 .text.USBD_LL_Start
                0x080014ea       0x10 build/usbd_conf.o
                0x080014ea                USBD_LL_Start
 .text.USBD_LL_OpenEP
                0x080014fa       0x16 build/usbd_conf.o
                0x080014fa                USBD_LL_OpenEP
 .text.USBD_LL_CloseEP
                0x08001510       0x10 build/usbd_conf.o
                0x08001510                USBD_LL_CloseEP
 .text.USBD_LL_StallEP
                0x08001520       0x10 build/usbd_conf.o
                0x08001520                USBD_LL_StallEP
 .text.USBD_LL_ClearStallEP
                0x08001530       0x10 build/usbd_conf.o
                0x08001530                USBD_LL_ClearStallEP
 .text.USBD_LL_SetUSBAddress
                0x08001540       0x10 build/usbd_conf.o
                0x08001540                USBD_LL_SetUSBAddress
 .text.USBD_LL_Transmit
                0x08001550       0x10 build/usbd_conf.o
                0x08001550                USBD_LL_Transmit
 .text.USBD_LL_PrepareReceive
                0x08001560       0x10 build/usbd_conf.o
                0x08001560                USBD_LL_PrepareReceive
 .text.PCD_WriteEmptyTxFifo
                0x08001570       0xd0 build/stm32f4xx_hal_pcd.o
 .text.HAL_PCD_Init
                0x08001640      0x102 build/stm32f4xx_hal_pcd.o
                0x08001640                HAL_PCD_Init
 .text.HAL_PCD_Start
                0x08001742       0x44 build/stm32f4xx_hal_pcd.o
                0x08001742                HAL_PCD_Start
 *fill*         0x08001786        0x2 
 .text.PCD_EP_OutXfrComplete_int
                0x08001788      0x104 build/stm32f4xx_hal_pcd.o
 .text.PCD_EP_OutSetupPacket_int
                0x0800188c       0x50 build/stm32f4xx_hal_pcd.o
 .text.HAL_PCD_SetAddress
                0x080018dc       0x26 build/stm32f4xx_hal_pcd.o
                0x080018dc                HAL_PCD_SetAddress
 .text.HAL_PCD_EP_Open
                0x08001902       0x8c build/stm32f4xx_hal_pcd.o
                0x08001902                HAL_PCD_EP_Open
 .text.HAL_PCD_EP_Close
                0x0800198e       0x70 build/stm32f4xx_hal_pcd.o
                0x0800198e                HAL_PCD_EP_Close
 .text.HAL_PCD_EP_Receive
                0x080019fe       0x4a build/stm32f4xx_hal_pcd.o
                0x080019fe                HAL_PCD_EP_Receive
 .text.HAL_PCD_EP_GetRxCount
                0x08001a48       0x12 build/stm32f4xx_hal_pcd.o
                0x08001a48                HAL_PCD_EP_GetRxCount
 .text.HAL_PCD_EP_Transmit
                0x08001a5a       0x4a build/stm32f4xx_hal_pcd.o
                0x08001a5a                HAL_PCD_EP_Transmit
 .text.HAL_PCD_EP_SetStall
                0x08001aa4       0x86 build/stm32f4xx_hal_pcd.o
                0x08001aa4                HAL_PCD_EP_SetStall
 .text.HAL_PCD_EP_ClrStall
                0x08001b2a       0x74 build/stm32f4xx_hal_pcd.o
                0x08001b2a                HAL_PCD_EP_ClrStall
 .text.HAL_PCD_EP_Abort
                0x08001b9e       0x34 build/stm32f4xx_hal_pcd.o
                0x08001b9e                HAL_PCD_EP_Abort
 .text.HAL_PCD_IRQHandler
                0x08001bd2      0x5ba build/stm32f4xx_hal_pcd.o
                0x08001bd2                HAL_PCD_IRQHandler
 .text.HAL_PCDEx_SetTxFiFo
                0x0800218c       0x4c build/stm32f4xx_hal_pcd_ex.o
                0x0800218c                HAL_PCDEx_SetTxFiFo
 .text.HAL_PCDEx_SetRxFiFo
                0x080021d8        0x8 build/stm32f4xx_hal_pcd_ex.o
                0x080021d8                HAL_PCDEx_SetRxFiFo
 .text.HAL_PCDEx_LPM_Callback
                0x080021e0        0x2 build/stm32f4xx_hal_pcd_ex.o
                0x080021e0                HAL_PCDEx_LPM_Callback
 .text.USB_CoreReset
                0x080021e2       0x58 build/stm32f4xx_ll_usb.o
 .text.USB_CoreInit
                0x0800223a       0x92 build/stm32f4xx_ll_usb.o
                0x0800223a                USB_CoreInit
 .text.USB_SetTurnaroundTime
                0x080022cc       0xe4 build/stm32f4xx_ll_usb.o
                0x080022cc                USB_SetTurnaroundTime
 .text.USB_EnableGlobalInt
                0x080023b0        0xc build/stm32f4xx_ll_usb.o
                0x080023b0                USB_EnableGlobalInt
 .text.USB_DisableGlobalInt
                0x080023bc        0xc build/stm32f4xx_ll_usb.o
                0x080023bc                USB_DisableGlobalInt
 .text.USB_FlushTxFifo
                0x080023c8       0x4a build/stm32f4xx_ll_usb.o
                0x080023c8                USB_FlushTxFifo
 .text.USB_FlushRxFifo
                0x08002412       0x46 build/stm32f4xx_ll_usb.o
                0x08002412                USB_FlushRxFifo
 .text.USB_SetDevSpeed
                0x08002458        0xe build/stm32f4xx_ll_usb.o
                0x08002458                USB_SetDevSpeed
 *fill*         0x08002466        0x2 
 .text.USB_DevInit
                0x08002468      0x194 build/stm32f4xx_ll_usb.o
                0x08002468                USB_DevInit
 .text.USB_GetDevSpeed
                0x080025fc       0x22 build/stm32f4xx_ll_usb.o
                0x080025fc                USB_GetDevSpeed
 .text.USB_ActivateEndpoint
                0x0800261e       0x9c build/stm32f4xx_ll_usb.o
                0x0800261e                USB_ActivateEndpoint
 *fill*         0x080026ba        0x2 
 .text.USB_DeactivateEndpoint
                0x080026bc       0xe0 build/stm32f4xx_ll_usb.o
                0x080026bc                USB_DeactivateEndpoint
 .text.USB_EPStopXfer
                0x0800279c       0xbe build/stm32f4xx_ll_usb.o
                0x0800279c                USB_EPStopXfer
 .text.USB_WritePacket
                0x0800285a       0x2e build/stm32f4xx_ll_usb.o
                0x0800285a                USB_WritePacket
 .text.USB_EPStartXfer
                0x08002888      0x250 build/stm32f4xx_ll_usb.o
                0x08002888                USB_EPStartXfer
 .text.USB_ReadPacket
                0x08002ad8       0x54 build/stm32f4xx_ll_usb.o
                0x08002ad8                USB_ReadPacket
 .text.USB_EPSetStall
                0x08002b2c       0x5a build/stm32f4xx_ll_usb.o
                0x08002b2c                USB_EPSetStall
 .text.USB_EPClearStall
                0x08002b86       0x5c build/stm32f4xx_ll_usb.o
                0x08002b86                USB_EPClearStall
 .text.USB_SetDevAddress
                0x08002be2       0x20 build/stm32f4xx_ll_usb.o
                0x08002be2                USB_SetDevAddress
 .text.USB_DevConnect
                0x08002c02       0x1c build/stm32f4xx_ll_usb.o
                0x08002c02                USB_DevConnect
 .text.USB_DevDisconnect
                0x08002c1e       0x1c build/stm32f4xx_ll_usb.o
                0x08002c1e                USB_DevDisconnect
 .text.USB_ReadInterrupts
                0x08002c3a        0x8 build/stm32f4xx_ll_usb.o
                0x08002c3a                USB_ReadInterrupts
 .text.USB_ReadDevAllOutEpInterrupt
                0x08002c42       0x10 build/stm32f4xx_ll_usb.o
                0x08002c42                USB_ReadDevAllOutEpInterrupt
 .text.USB_ReadDevAllInEpInterrupt
                0x08002c52       0x10 build/stm32f4xx_ll_usb.o
                0x08002c52                USB_ReadDevAllInEpInterrupt
 .text.USB_ReadDevOutEPInterrupt
                0x08002c62       0x12 build/stm32f4xx_ll_usb.o
                0x08002c62                USB_ReadDevOutEPInterrupt
 .text.USB_ReadDevInEPInterrupt
                0x08002c74       0x28 build/stm32f4xx_ll_usb.o
                0x08002c74                USB_ReadDevInEPInterrupt
 .text.USB_GetMode
                0x08002c9c        0x8 build/stm32f4xx_ll_usb.o
                0x08002c9c                USB_GetMode
 .text.USB_SetCurrentMode
                0x08002ca4       0x62 build/stm32f4xx_ll_usb.o
                0x08002ca4                USB_SetCurrentMode
 .text.USB_ActivateSetup
                0x08002d06       0x20 build/stm32f4xx_ll_usb.o
                0x08002d06                USB_ActivateSetup
 *fill*         0x08002d26        0x2 
 .text.USB_EP0_OutStart
                0x08002d28       0x60 build/stm32f4xx_ll_usb.o
                0x08002d28                USB_EP0_OutStart
 .text.HAL_RCC_OscConfig
                0x08002d88      0x3f8 build/stm32f4xx_hal_rcc.o
                0x08002d88                HAL_RCC_OscConfig
 .text.HAL_RCC_GetSysClockFreq
                0x08003180       0xd4 build/stm32f4xx_hal_rcc.o
                0x08003180                HAL_RCC_GetSysClockFreq
 .text.HAL_RCC_ClockConfig
                0x08003254      0x160 build/stm32f4xx_hal_rcc.o
                0x08003254                HAL_RCC_ClockConfig
 .text.HAL_RCC_GetHCLKFreq
                0x080033b4        0xc build/stm32f4xx_hal_rcc.o
                0x080033b4                HAL_RCC_GetHCLKFreq
 .text.HAL_GPIO_Init
                0x080033c0      0x1c0 build/stm32f4xx_hal_gpio.o
                0x080033c0                HAL_GPIO_Init
 .text.HAL_GPIO_WritePin
                0x08003580        0xc build/stm32f4xx_hal_gpio.o
                0x08003580                HAL_GPIO_WritePin
 .text.HAL_NVIC_SetPriorityGrouping
                0x0800358c       0x24 build/stm32f4xx_hal_cortex.o
                0x0800358c                HAL_NVIC_SetPriorityGrouping
 .text.HAL_NVIC_SetPriority
                0x080035b0       0x70 build/stm32f4xx_hal_cortex.o
                0x080035b0                HAL_NVIC_SetPriority
 .text.HAL_NVIC_EnableIRQ
                0x08003620       0x1c build/stm32f4xx_hal_cortex.o
                0x08003620                HAL_NVIC_EnableIRQ
 .text.HAL_SYSTICK_Config
                0x0800363c       0x28 build/stm32f4xx_hal_cortex.o
                0x0800363c                HAL_SYSTICK_Config
 .text.HAL_InitTick
                0x08003664       0x4c build/stm32f4xx_hal.o
                0x08003664                HAL_InitTick
 .text.HAL_Init
                0x080036b0       0x34 build/stm32f4xx_hal.o
                0x080036b0                HAL_Init
 .text.HAL_IncTick
                0x080036e4       0x18 build/stm32f4xx_hal.o
                0x080036e4                HAL_IncTick
 .text.HAL_GetTick
                0x080036fc        0xc build/stm32f4xx_hal.o
                0x080036fc                HAL_GetTick
 .text.HAL_Delay
                0x08003708       0x28 build/stm32f4xx_hal.o
                0x08003708                HAL_Delay
 .text.SystemInit
                0x08003730       0x14 build/system_stm32f4xx.o
                0x08003730                SystemInit
 .text.USBD_Init
                0x08003744       0x2e build/usbd_core.o
                0x08003744                USBD_Init
 .text.USBD_RegisterClass
                0x08003772       0x34 build/usbd_core.o
                0x08003772                USBD_RegisterClass
 .text.USBD_Start
                0x080037a6        0x8 build/usbd_core.o
                0x080037a6                USBD_Start
 .text.USBD_SetClassConfig
                0x080037ae       0x12 build/usbd_core.o
                0x080037ae                USBD_SetClassConfig
 .text.USBD_ClrClassConfig
                0x080037c0       0x12 build/usbd_core.o
                0x080037c0                USBD_ClrClassConfig
 .text.USBD_LL_SetupStage
                0x080037d2       0x58 build/usbd_core.o
                0x080037d2                USBD_LL_SetupStage
 .text.USBD_LL_Reset
                0x0800382a       0x66 build/usbd_core.o
                0x0800382a                USBD_LL_Reset
 .text.USBD_LL_SetSpeed
                0x08003890        0x6 build/usbd_core.o
                0x08003890                USBD_LL_SetSpeed
 .text.USBD_LL_Suspend
                0x08003896       0x1e build/usbd_core.o
                0x08003896                USBD_LL_Suspend
 .text.USBD_LL_Resume
                0x080038b4       0x1a build/usbd_core.o
                0x080038b4                USBD_LL_Resume
 .text.USBD_LL_SOF
                0x080038ce       0x22 build/usbd_core.o
                0x080038ce                USBD_LL_SOF
 .text.USBD_LL_IsoINIncomplete
                0x080038f0       0x2e build/usbd_core.o
                0x080038f0                USBD_LL_IsoINIncomplete
 .text.USBD_LL_IsoOUTIncomplete
                0x0800391e       0x2e build/usbd_core.o
                0x0800391e                USBD_LL_IsoOUTIncomplete
 .text.USBD_LL_DevConnected
                0x0800394c        0x4 build/usbd_core.o
                0x0800394c                USBD_LL_DevConnected
 .text.USBD_LL_DevDisconnected
                0x08003950       0x20 build/usbd_core.o
                0x08003950                USBD_LL_DevDisconnected
 .text.USBD_CoreFindIF
                0x08003970        0x4 build/usbd_core.o
                0x08003970                USBD_CoreFindIF
 .text.USBD_CoreFindEP
                0x08003974        0x4 build/usbd_core.o
                0x08003974                USBD_CoreFindEP
 .text.USBD_LL_DataOutStage
                0x08003978       0xcc build/usbd_core.o
                0x08003978                USBD_LL_DataOutStage
 .text.USBD_LL_DataInStage
                0x08003a44       0xd8 build/usbd_core.o
                0x08003a44                USBD_LL_DataInStage
 .text.USBD_GetNextDesc
                0x08003b1c        0xe build/usbd_core.o
                0x08003b1c                USBD_GetNextDesc
 .text.USBD_GetEpDesc
                0x08003b2a       0x3e build/usbd_core.o
                0x08003b2a                USBD_GetEpDesc
 .text.USBD_GetLen
                0x08003b68       0x14 build/usbd_ctlreq.o
 .text.USBD_ParseSetupRequest
                0x08003b7c       0x28 build/usbd_ctlreq.o
                0x08003b7c                USBD_ParseSetupRequest
 .text.USBD_CtlError
                0x08003ba4       0x14 build/usbd_ctlreq.o
                0x08003ba4                USBD_CtlError
 .text.USBD_GetDescriptor
                0x08003bb8      0x18a build/usbd_ctlreq.o
 .text.USBD_SetAddress
                0x08003d42       0x50 build/usbd_ctlreq.o
 *fill*         0x08003d92        0x2 
 .text.USBD_SetConfig
                0x08003d94       0xcc build/usbd_ctlreq.o
 .text.USBD_GetConfig
                0x08003e60       0x40 build/usbd_ctlreq.o
 .text.USBD_GetStatus
                0x08003ea0       0x38 build/usbd_ctlreq.o
 .text.USBD_SetFeature
                0x08003ed8       0x2a build/usbd_ctlreq.o
 .text.USBD_ClrFeature
                0x08003f02       0x26 build/usbd_ctlreq.o
 .text.USBD_StdDevReq
                0x08003f28       0x76 build/usbd_ctlreq.o
                0x08003f28                USBD_StdDevReq
 .text.USBD_StdItfReq
                0x08003f9e       0x84 build/usbd_ctlreq.o
                0x08003f9e                USBD_StdItfReq
 .text.USBD_StdEPReq
                0x08004022      0x232 build/usbd_ctlreq.o
                0x08004022                USBD_StdEPReq
 .text.USBD_GetString
                0x08004254       0x46 build/usbd_ctlreq.o
                0x08004254                USBD_GetString
 .text.USBD_CtlSendData
                0x0800429a       0x1c build/usbd_ioreq.o
                0x0800429a                USBD_CtlSendData
 .text.USBD_CtlContinueSendData
                0x080042b6       0x10 build/usbd_ioreq.o
                0x080042b6                USBD_CtlContinueSendData
 .text.USBD_CtlPrepareRx
                0x080042c6       0x22 build/usbd_ioreq.o
                0x080042c6                USBD_CtlPrepareRx
 .text.USBD_CtlContinueRx
                0x080042e8       0x10 build/usbd_ioreq.o
                0x080042e8                USBD_CtlContinueRx
 .text.USBD_CtlSendStatus
                0x080042f8       0x16 build/usbd_ioreq.o
                0x080042f8                USBD_CtlSendStatus
 .text.USBD_CtlReceiveStatus
                0x0800430e       0x16 build/usbd_ioreq.o
                0x0800430e                USBD_CtlReceiveStatus
 .text.USBD_CDC_EP0_RxReady
                0x08004324       0x40 build/usbd_cdc.o
 .text.USBD_CDC_GetDeviceQualifierDescriptor
                0x08004364        0xc build/usbd_cdc.o
                0x08004364                USBD_CDC_GetDeviceQualifierDescriptor
 .text.USBD_CDC_GetOtherSpeedCfgDesc
                0x08004370       0x48 build/usbd_cdc.o
 .text.USBD_CDC_GetFSCfgDesc
                0x080043b8       0x48 build/usbd_cdc.o
 .text.USBD_CDC_GetHSCfgDesc
                0x08004400       0x48 build/usbd_cdc.o
 .text.USBD_CDC_DataOut
                0x08004448       0x38 build/usbd_cdc.o
 .text.USBD_CDC_DataIn
                0x08004480       0x7c build/usbd_cdc.o
 .text.USBD_CDC_Setup
                0x080044fc      0x11a build/usbd_cdc.o
 .text.USBD_CDC_DeInit
                0x08004616       0x64 build/usbd_cdc.o
 .text.USBD_CDC_Init
                0x0800467a       0xee build/usbd_cdc.o
 .text.USBD_CDC_RegisterInterface
                0x08004768       0x16 build/usbd_cdc.o
                0x08004768                USBD_CDC_RegisterInterface
 .text.USBD_CDC_SetTxBuffer
                0x0800477e       0x1c build/usbd_cdc.o
                0x0800477e                USBD_CDC_SetTxBuffer
 .text.USBD_CDC_SetRxBuffer
                0x0800479a       0x18 build/usbd_cdc.o
                0x0800479a                USBD_CDC_SetRxBuffer
 .text.USBD_CDC_TransmitPacket
                0x080047b2       0x3a build/usbd_cdc.o
                0x080047b2                USBD_CDC_TransmitPacket
 .text.USBD_CDC_ReceivePacket
                0x080047ec       0x38 build/usbd_cdc.o
                0x080047ec                USBD_CDC_ReceivePacket
 .text._sbrk    0x08004824       0x48 build/sysmem.o
                0x08004824                _sbrk
 .text._read    0x0800486c       0x20 build/syscalls.o
                0x0800486c                _read
 .text._write   0x0800488c       0x1c build/syscalls.o
                0x0800488c                _write
 .text._close   0x080048a8        0x6 build/syscalls.o
                0x080048a8                _close
 .text._fstat   0x080048ae        0xa build/syscalls.o
                0x080048ae                _fstat
 .text._isatty  0x080048b8        0x4 build/syscalls.o
                0x080048b8                _isatty
 .text._lseek   0x080048bc        0x4 build/syscalls.o
                0x080048bc                _lseek
 .text.get_fattime
                0x080048c0        0x4 build/diskio.o
                0x080048c0                get_fattime
 .text.disk_initialize
                0x080048c4      0x21c build/diskio.o
                0x080048c4                disk_initialize
 .text.disk_status
                0x08004ae0       0x74 build/diskio.o
                0x08004ae0                disk_status
 .text.disk_read
                0x08004b54      0x1f8 build/diskio.o
                0x08004b54                disk_read
 .text.disk_write
                0x08004d4c      0x24c build/diskio.o
                0x08004d4c                disk_write
 .text.disk_ioctl
                0x08004f98       0x38 build/diskio.o
                0x08004f98                disk_ioctl
 .text.SetCartNo
                0x08004fd0       0x28 build/diskio.o
                0x08004fd0                SetCartNo
 .text.ForceCartridgeReinit
                0x08004ff8       0x20 build/diskio.o
                0x08004ff8                ForceCartridgeReinit
 .text.ld_word  0x08005018        0xa build/ff.o
 .text.ld_dword
                0x08005022       0x16 build/ff.o
 .text.st_word  0x08005038        0x8 build/ff.o
 .text.st_dword
                0x08005040       0x14 build/ff.o
 .text.dbc_1st  0x08005054       0x24 build/ff.o
 .text.dbc_2nd  0x08005078       0x28 build/ff.o
 .text.clst2sect
                0x080050a0       0x18 build/ff.o
 .text.ld_clust
                0x080050b8       0x26 build/ff.o
 .text.st_clust
                0x080050de       0x26 build/ff.o
 .text.get_fileinfo
                0x08005104       0x74 build/ff.o
 .text.get_ldnumber
                0x08005178       0x56 build/ff.o
 .text.validate
                0x080051ce       0x46 build/ff.o
 .text.sync_window
                0x08005214       0x48 build/ff.o
 .text.move_window
                0x0800525c       0x36 build/ff.o
 *fill*         0x08005292        0x2 
 .text.check_fs
                0x08005294       0xd4 build/ff.o
 .text.find_volume
                0x08005368       0x70 build/ff.o
 .text.mount_volume
                0x080053d8      0x2a8 build/ff.o
 .text.put_fat  0x08005680      0x10e build/ff.o
 .text.get_fat  0x0800578e       0xd0 build/ff.o
 .text.dir_sdi  0x0800585e       0xac build/ff.o
 .text.create_chain
                0x0800590a      0x10e build/ff.o
 .text.remove_chain
                0x08005a18       0x7e build/ff.o
 .text.dir_remove
                0x08005a96       0x1c build/ff.o
 .text.dir_clear
                0x08005ab2       0x52 build/ff.o
 .text.dir_next
                0x08005b04       0xc8 build/ff.o
 .text.dir_find
                0x08005bcc       0x5a build/ff.o
 .text.dir_alloc
                0x08005c26       0x50 build/ff.o
 .text.dir_read
                0x08005c76       0x5e build/ff.o
 .text.create_name
                0x08005cd4      0x108 build/ff.o
 .text.follow_path
                0x08005ddc       0x8c build/ff.o
 .text.dir_register
                0x08005e68       0x46 build/ff.o
 *fill*         0x08005eae        0x2 
 .text.sync_fs  0x08005eb0       0x8c build/ff.o
 .text.create_partition
                0x08005f3c      0x13c build/ff.o
 .text.f_mount  0x08006078       0x58 build/ff.o
                0x08006078                f_mount
 .text.f_open   0x080060d0      0x1fc build/ff.o
                0x080060d0                f_open
 .text.f_read   0x080062cc      0x1a2 build/ff.o
                0x080062cc                f_read
 .text.f_write  0x0800646e      0x1de build/ff.o
                0x0800646e                f_write
 .text.f_sync   0x0800664c       0x96 build/ff.o
                0x0800664c                f_sync
 .text.f_close  0x080066e2       0x20 build/ff.o
                0x080066e2                f_close
 .text.f_opendir
                0x08006702       0x6e build/ff.o
                0x08006702                f_opendir
 .text.f_closedir
                0x08006770       0x14 build/ff.o
                0x08006770                f_closedir
 .text.f_readdir
                0x08006784       0x4e build/ff.o
                0x08006784                f_readdir
 .text.f_stat   0x080067d2       0x44 build/ff.o
                0x080067d2                f_stat
 .text.f_unlink
                0x08006816       0xac build/ff.o
                0x08006816                f_unlink
 *fill*         0x080068c2        0x2 
 .text.f_mkfs   0x080068c4      0x650 build/ff.o
                0x080068c4                f_mkfs
 .text._ZN21IIspSubCommandHandler12prepareForRxEPKhhm
                0x08006f14        0x6 build/main.o
                0x08006f14                IIspSubCommandHandler::prepareForRx(unsigned char const*, unsigned char, unsigned long)
 .text._ZN21IIspSubCommandHandler13processRxDataEPKhhm
                0x08006f1a        0x4 build/main.o
                0x08006f1a                IIspSubCommandHandler::processRxData(unsigned char const*, unsigned char, unsigned long)
 .text._ZN21IIspSubCommandHandler15prepareDataToTxEPKhhRm
                0x08006f1e        0x4 build/main.o
                0x08006f1e                IIspSubCommandHandler::prepareDataToTx(unsigned char const*, unsigned char, unsigned long&)
 .text._ZN21IIspSubCommandHandler9getSubCmdEv
                0x08006f22        0x4 build/main.o
                0x08006f22                IIspSubCommandHandler::getSubCmd()
 .text._ZN21IIspSubCommandHandler13processCmdReqEPh
                0x08006f26        0x4 build/main.o
                0x08006f26                IIspSubCommandHandler::processCmdReq(unsigned char*)
 *fill*         0x08006f2a        0x2 
 .text._ZN21IIspSubCommandHandlerD2Ev
                0x08006f2c        0xc build/main.o
                0x08006f2c                IIspSubCommandHandler::~IIspSubCommandHandler()
                0x08006f2c                IIspSubCommandHandler::~IIspSubCommandHandler()
 .text._ZN19Erase_SubCmdProcess9getSubCmdEv
                0x08006f38        0x4 build/main.o
                0x08006f38                Erase_SubCmdProcess::getSubCmd()
 .text._ZN29FirmwareVersion_SubCmdProcess13processCmdReqEPh
                0x08006f3c       0x30 build/main.o
                0x08006f3c                FirmwareVersion_SubCmdProcess::processCmdReq(unsigned char*)
 .text._ZN29FirmwareVersion_SubCmdProcess9getSubCmdEv
                0x08006f6c        0x4 build/main.o
                0x08006f6c                FirmwareVersion_SubCmdProcess::getSubCmd()
 .text._ZN21BoardID_SubCmdProcess13processCmdReqEPh
                0x08006f70       0x24 build/main.o
                0x08006f70                BoardID_SubCmdProcess::processCmdReq(unsigned char*)
 .text._ZN21BoardID_SubCmdProcess9getSubCmdEv
                0x08006f94        0x4 build/main.o
                0x08006f94                BoardID_SubCmdProcess::getSubCmd()
 .text._ZN24CartStatus_SubCmdProcess9getSubCmdEv
                0x08006f98        0x4 build/main.o
                0x08006f98                CartStatus_SubCmdProcess::getSubCmd()
 .text._ZN24GuiCtrlLed_SubCmdProcess13processCmdReqEPh
                0x08006f9c       0x2c build/main.o
                0x08006f9c                GuiCtrlLed_SubCmdProcess::processCmdReq(unsigned char*)
 .text._ZN24GuiCtrlLed_SubCmdProcess9getSubCmdEv
                0x08006fc8        0x4 build/main.o
                0x08006fc8                GuiCtrlLed_SubCmdProcess::getSubCmd()
 .text._ZN22GreenLed_SubCmdProcess9getSubCmdEv
                0x08006fcc        0x4 build/main.o
                0x08006fcc                GreenLed_SubCmdProcess::getSubCmd()
 .text._ZN20RedLed_SubCmdProcess9getSubCmdEv
                0x08006fd0        0x4 build/main.o
                0x08006fd0                RedLed_SubCmdProcess::getSubCmd()
 .text._ZN20Format_SubCmdProcess9getSubCmdEv
                0x08006fd4        0x4 build/main.o
                0x08006fd4                Format_SubCmdProcess::getSubCmd()
 .text._ZN26SlotLedBlink_SubCmdProcess9getSubCmdEv
                0x08006fd8        0x4 build/main.o
                0x08006fd8                SlotLedBlink_SubCmdProcess::getSubCmd()
 .text._ZN25BlinkAllLed_SubCmdProcess9getSubCmdEv
                0x08006fdc        0x4 build/main.o
                0x08006fdc                BlinkAllLed_SubCmdProcess::getSubCmd()
 .text._ZN25LedLoopBack_SubCmdProcess9getSubCmdEv
                0x08006fe0        0x4 build/main.o
                0x08006fe0                LedLoopBack_SubCmdProcess::getSubCmd()
 .text._ZN28D3_Power_Cycle_SubCmdProcess9getSubCmdEv
                0x08006fe4        0x4 build/main.o
                0x08006fe4                D3_Power_Cycle_SubCmdProcess::getSubCmd()
 .text._ZN21IspTransportInterface7receiveEPhj
                0x08006fe8        0x4 build/main.o
                0x08006fe8                IspTransportInterface::receive(unsigned char*, unsigned int)
 .text._ZNK21IspTransportInterface6statusEv
                0x08006fec        0x4 build/main.o
                0x08006fec                IspTransportInterface::status() const
 .text._ZN21IspTransportInterface5flushEv
                0x08006ff0        0x2 build/main.o
                0x08006ff0                IspTransportInterface::flush()
 *fill*         0x08006ff2        0x2 
 .text._ZNK21IspTransportInterface4nameEv
                0x08006ff4        0x8 build/main.o
                0x08006ff4                IspTransportInterface::name() const
 .text._ZN17IspCommandHandler12setTransportEP21IspTransportInterface
                0x08006ffc        0x4 build/main.o
                0x08006ffc                IspCommandHandler::setTransport(IspTransportInterface*)
 .text._ZN28D3_Power_Cycle_SubCmdProcessD2Ev
                0x08007000       0x14 build/main.o
                0x08007000                D3_Power_Cycle_SubCmdProcess::~D3_Power_Cycle_SubCmdProcess()
                0x08007000                D3_Power_Cycle_SubCmdProcess::~D3_Power_Cycle_SubCmdProcess()
 .text._ZN25LedLoopBack_SubCmdProcessD2Ev
                0x08007014       0x14 build/main.o
                0x08007014                LedLoopBack_SubCmdProcess::~LedLoopBack_SubCmdProcess()
                0x08007014                LedLoopBack_SubCmdProcess::~LedLoopBack_SubCmdProcess()
 .text._ZN25BlinkAllLed_SubCmdProcessD2Ev
                0x08007028       0x14 build/main.o
                0x08007028                BlinkAllLed_SubCmdProcess::~BlinkAllLed_SubCmdProcess()
                0x08007028                BlinkAllLed_SubCmdProcess::~BlinkAllLed_SubCmdProcess()
 .text._ZN26SlotLedBlink_SubCmdProcessD2Ev
                0x0800703c       0x14 build/main.o
                0x0800703c                SlotLedBlink_SubCmdProcess::~SlotLedBlink_SubCmdProcess()
                0x0800703c                SlotLedBlink_SubCmdProcess::~SlotLedBlink_SubCmdProcess()
 .text._ZN20Format_SubCmdProcessD2Ev
                0x08007050       0x14 build/main.o
                0x08007050                Format_SubCmdProcess::~Format_SubCmdProcess()
                0x08007050                Format_SubCmdProcess::~Format_SubCmdProcess()
 .text._ZN20RedLed_SubCmdProcessD2Ev
                0x08007064       0x14 build/main.o
                0x08007064                RedLed_SubCmdProcess::~RedLed_SubCmdProcess()
                0x08007064                RedLed_SubCmdProcess::~RedLed_SubCmdProcess()
 .text._ZN22GreenLed_SubCmdProcessD2Ev
                0x08007078       0x14 build/main.o
                0x08007078                GreenLed_SubCmdProcess::~GreenLed_SubCmdProcess()
                0x08007078                GreenLed_SubCmdProcess::~GreenLed_SubCmdProcess()
 .text._ZN24GuiCtrlLed_SubCmdProcessD2Ev
                0x0800708c       0x14 build/main.o
                0x0800708c                GuiCtrlLed_SubCmdProcess::~GuiCtrlLed_SubCmdProcess()
                0x0800708c                GuiCtrlLed_SubCmdProcess::~GuiCtrlLed_SubCmdProcess()
 .text._ZN24CartStatus_SubCmdProcessD2Ev
                0x080070a0       0x14 build/main.o
                0x080070a0                CartStatus_SubCmdProcess::~CartStatus_SubCmdProcess()
                0x080070a0                CartStatus_SubCmdProcess::~CartStatus_SubCmdProcess()
 .text._ZN21BoardID_SubCmdProcessD2Ev
                0x080070b4       0x14 build/main.o
                0x080070b4                BoardID_SubCmdProcess::~BoardID_SubCmdProcess()
                0x080070b4                BoardID_SubCmdProcess::~BoardID_SubCmdProcess()
 .text._ZN29FirmwareVersion_SubCmdProcessD2Ev
                0x080070c8       0x14 build/main.o
                0x080070c8                FirmwareVersion_SubCmdProcess::~FirmwareVersion_SubCmdProcess()
                0x080070c8                FirmwareVersion_SubCmdProcess::~FirmwareVersion_SubCmdProcess()
 .text._ZN19Erase_SubCmdProcessD2Ev
                0x080070dc       0x14 build/main.o
                0x080070dc                Erase_SubCmdProcess::~Erase_SubCmdProcess()
                0x080070dc                Erase_SubCmdProcess::~Erase_SubCmdProcess()
 .text._ZN15UsbIspTransportD2Ev
                0x080070f0       0x14 build/main.o
                0x080070f0                UsbIspTransport::~UsbIspTransport()
                0x080070f0                UsbIspTransport::~UsbIspTransport()
 .text._ZN17IspCmdReceiveDataD2Ev
                0x08007104       0x14 build/main.o
                0x08007104                IspCmdReceiveData::~IspCmdReceiveData()
                0x08007104                IspCmdReceiveData::~IspCmdReceiveData()
 .text._ZN18IspCmdTransmitDataD2Ev
                0x08007118       0x14 build/main.o
                0x08007118                IspCmdTransmitData::~IspCmdTransmitData()
                0x08007118                IspCmdTransmitData::~IspCmdTransmitData()
 .text._ZN24GuiCtrlLed_SubCmdProcessD0Ev
                0x0800712c       0x20 build/main.o
                0x0800712c                GuiCtrlLed_SubCmdProcess::~GuiCtrlLed_SubCmdProcess()
 .text._ZN21IIspSubCommandHandlerD0Ev
                0x0800714c       0x18 build/main.o
                0x0800714c                IIspSubCommandHandler::~IIspSubCommandHandler()
 .text._ZN28D3_Power_Cycle_SubCmdProcessD0Ev
                0x08007164       0x20 build/main.o
                0x08007164                D3_Power_Cycle_SubCmdProcess::~D3_Power_Cycle_SubCmdProcess()
 .text._ZN25LedLoopBack_SubCmdProcessD0Ev
                0x08007184       0x20 build/main.o
                0x08007184                LedLoopBack_SubCmdProcess::~LedLoopBack_SubCmdProcess()
 .text._ZN26SlotLedBlink_SubCmdProcessD0Ev
                0x080071a4       0x20 build/main.o
                0x080071a4                SlotLedBlink_SubCmdProcess::~SlotLedBlink_SubCmdProcess()
 .text._ZN25BlinkAllLed_SubCmdProcessD0Ev
                0x080071c4       0x20 build/main.o
                0x080071c4                BlinkAllLed_SubCmdProcess::~BlinkAllLed_SubCmdProcess()
 .text._ZN20Format_SubCmdProcessD0Ev
                0x080071e4       0x20 build/main.o
                0x080071e4                Format_SubCmdProcess::~Format_SubCmdProcess()
 .text._ZN19Erase_SubCmdProcessD0Ev
                0x08007204       0x20 build/main.o
                0x08007204                Erase_SubCmdProcess::~Erase_SubCmdProcess()
 .text._ZN24CartStatus_SubCmdProcessD0Ev
                0x08007224       0x20 build/main.o
                0x08007224                CartStatus_SubCmdProcess::~CartStatus_SubCmdProcess()
 .text._ZN20RedLed_SubCmdProcessD0Ev
                0x08007244       0x20 build/main.o
                0x08007244                RedLed_SubCmdProcess::~RedLed_SubCmdProcess()
 .text._ZN22GreenLed_SubCmdProcessD0Ev
                0x08007264       0x20 build/main.o
                0x08007264                GreenLed_SubCmdProcess::~GreenLed_SubCmdProcess()
 .text._ZN21BoardID_SubCmdProcessD0Ev
                0x08007284       0x20 build/main.o
                0x08007284                BoardID_SubCmdProcess::~BoardID_SubCmdProcess()
 .text._ZN29FirmwareVersion_SubCmdProcessD0Ev
                0x080072a4       0x20 build/main.o
                0x080072a4                FirmwareVersion_SubCmdProcess::~FirmwareVersion_SubCmdProcess()
 .text._ZN24CartStatus_SubCmdProcess13processCmdReqEPh
                0x080072c4       0x4c build/main.o
                0x080072c4                CartStatus_SubCmdProcess::processCmdReq(unsigned char*)
 .text._ZN21IIspSubCommandHandler12EnocdeCmdResEhPht
                0x08007310       0x2c build/main.o
                0x08007310                IIspSubCommandHandler::EnocdeCmdRes(unsigned char, unsigned char*, unsigned short)
 .text._ZN21IIspSubCommandHandler12DecodeCmdReqEPh
                0x0800733c       0x22 build/main.o
                0x0800733c                IIspSubCommandHandler::DecodeCmdReq(unsigned char*)
 .text._ZN12FatFsWrapperD2Ev
                0x0800735e        0xc build/main.o
                0x0800735e                FatFsWrapper::~FatFsWrapper()
                0x0800735e                FatFsWrapper::~FatFsWrapper()
 *fill*         0x0800736a        0x2 
 .text._ZN25LedLoopBack_SubCmdProcess13processCmdReqEPh
                0x0800736c       0x30 build/main.o
                0x0800736c                LedLoopBack_SubCmdProcess::processCmdReq(unsigned char*)
 .text._ZN26SlotLedBlink_SubCmdProcess13processCmdReqEPh
                0x0800739c       0x2c build/main.o
                0x0800739c                SlotLedBlink_SubCmdProcess::processCmdReq(unsigned char*)
 .text._ZN25BlinkAllLed_SubCmdProcess13processCmdReqEPh
                0x080073c8       0x28 build/main.o
                0x080073c8                BlinkAllLed_SubCmdProcess::processCmdReq(unsigned char*)
 .text._ZN20RedLed_SubCmdProcess13processCmdReqEPh
                0x080073f0       0x2c build/main.o
                0x080073f0                RedLed_SubCmdProcess::processCmdReq(unsigned char*)
 .text._ZN22GreenLed_SubCmdProcess13processCmdReqEPh
                0x0800741c       0x2c build/main.o
                0x0800741c                GreenLed_SubCmdProcess::processCmdReq(unsigned char*)
 .text._ZL12MX_GPIO_Initv
                0x08007448      0x158 build/main.o
 .text._Z41__static_initialization_and_destruction_0ii
                0x080075a0       0x90 build/main.o
 .text._ZN19Erase_SubCmdProcess13processCmdReqEPh
                0x08007630       0xd0 build/main.o
                0x08007630                Erase_SubCmdProcess::processCmdReq(unsigned char*)
 .text._ZN28D3_Power_Cycle_SubCmdProcess13processCmdReqEPh
                0x08007700       0xa0 build/main.o
                0x08007700                D3_Power_Cycle_SubCmdProcess::processCmdReq(unsigned char*)
 .text._ZN20Format_SubCmdProcess13processCmdReqEPh
                0x080077a0       0xd0 build/main.o
                0x080077a0                Format_SubCmdProcess::processCmdReq(unsigned char*)
 .text._Z13UpdateSlotLedv
                0x08007870       0x68 build/main.o
                0x08007870                UpdateSlotLed()
 .text._Z16BlinkLed_PA1_PA8t
                0x080078d8       0x40 build/main.o
                0x080078d8                BlinkLed_PA1_PA8(unsigned short)
 .text.Isp_forward_data
                0x08007918       0xb4 build/main.o
                0x08007918                Isp_forward_data
 .text.Error_Handler
                0x080079cc        0x4 build/main.o
                0x080079cc                Error_Handler
 .text._Z18SystemClock_Configv
                0x080079d0       0xa4 build/main.o
                0x080079d0                SystemClock_Config()
 .text.main     0x08007a74      0x524 build/main.o
                0x08007a74                main
 .text._ZN15UsbIspTransportD0Ev
                0x08007f98       0x20 build/main.o
                0x08007f98                UsbIspTransport::~UsbIspTransport()
 .text._ZN17IspCmdReceiveDataD0Ev
                0x08007fb8       0x20 build/main.o
                0x08007fb8                IspCmdReceiveData::~IspCmdReceiveData()
 .text._ZN18IspCmdTransmitDataD0Ev
                0x08007fd8       0x20 build/main.o
                0x08007fd8                IspCmdTransmitData::~IspCmdTransmitData()
 .text._GLOBAL__sub_I_usbTransport
                0x08007ff8        0xe build/main.o
 .text.__cxa_guard_acquire
                0x08008006        0xa build/cpp_minimal.o
                0x08008006                __cxa_guard_acquire
 .text.__cxa_guard_release
                0x08008010        0x6 build/cpp_minimal.o
                0x08008010                __cxa_guard_release
 .text.__cxa_pure_virtual
                0x08008016        0x2 build/cpp_minimal.o
                0x08008016                __cxa_pure_virtual
 .text._ZdlPvj  0x08008018        0x8 build/cpp_minimal.o
                0x08008018                operator delete(void*, unsigned int)
 .text._ZN12FatFsWrapper12lookupFileIdEPKc
                0x08008020       0x3c build/FatFsWrapperSingleton.o
                0x08008020                FatFsWrapper::lookupFileId(char const*)
 .text._ZNK12FatFsWrapper15getFilenameByIdEi
                0x0800805c       0x28 build/FatFsWrapperSingleton.o
                0x0800805c                FatFsWrapper::getFilenameById(int) const
 .text._ZN12FatFsWrapper5mountEv
                0x08008084       0x38 build/FatFsWrapperSingleton.o
                0x08008084                FatFsWrapper::mount()
 .text._ZN12FatFsWrapper7unmountEv
                0x080080bc       0x24 build/FatFsWrapperSingleton.o
                0x080080bc                FatFsWrapper::unmount()
 .text._ZN12FatFsWrapper20forceCartridgeReinitE11CartridgeID
                0x080080e0        0xa build/FatFsWrapperSingleton.o
                0x080080e0                FatFsWrapper::forceCartridgeReinit(CartridgeID)
 .text._ZN12FatFsWrapper8fileSizeEiRm
                0x080080ea       0x38 build/FatFsWrapperSingleton.o
                0x080080ea                FatFsWrapper::fileSize(int, unsigned long&)
 *fill*         0x08008122        0x2 
 .text._ZN12FatFsWrapper14deleteAllFilesEPKc
                0x08008124       0xa8 build/FatFsWrapperSingleton.o
                0x08008124                FatFsWrapper::deleteAllFiles(char const*)
 .text._ZN12FatFsWrapper9scanFilesEPKcPNS_8FileInfoEjRj
                0x080081cc       0xcc build/FatFsWrapperSingleton.o
                0x080081cc                FatFsWrapper::scanFiles(char const*, FatFsWrapper::FileInfo*, unsigned int, unsigned int&)
 .text._ZN12FatFsWrapper15buildFilePacketEPhj
                0x08008298       0xb8 build/FatFsWrapperSingleton.o
                0x08008298                FatFsWrapper::buildFilePacket(unsigned char*, unsigned int)
 .text._ZN12FatFsWrapper15buildFilePacketEPhjRm
                0x08008350       0x1a build/FatFsWrapperSingleton.o
                0x08008350                FatFsWrapper::buildFilePacket(unsigned char*, unsigned int, unsigned long&)
 *fill*         0x0800836a        0x2 
 .text._ZN12FatFsWrapper6formatEPKchj
                0x0800836c       0x2c build/FatFsWrapperSingleton.o
                0x0800836c                FatFsWrapper::format(char const*, unsigned char, unsigned int)
 .text._ZN12FatFsWrapper10FileStream5closeEv
                0x08008398       0x20 build/FatFsWrapperSingleton.o
                0x08008398                FatFsWrapper::FileStream::close()
 .text._ZN12FatFsWrapper10FileStream4openERS_ibb
                0x080083b8       0x72 build/FatFsWrapperSingleton.o
                0x080083b8                FatFsWrapper::FileStream::open(FatFsWrapper&, int, bool, bool)
 .text._ZN12FatFsWrapper10FileStream8readNextEPvjRj
                0x0800842a       0x1c build/FatFsWrapperSingleton.o
                0x0800842a                FatFsWrapper::FileStream::readNext(void*, unsigned int, unsigned int&)
 .text._ZN12FatFsWrapper10FileStream9writeNextEPKvjRj
                0x08008446       0x1c build/FatFsWrapperSingleton.o
                0x08008446                FatFsWrapper::FileStream::writeNext(void const*, unsigned int, unsigned int&)
 .text._ZN12FatFsWrapper10FileStream4syncEv
                0x08008462       0x12 build/FatFsWrapperSingleton.o
                0x08008462                FatFsWrapper::FileStream::sync()
 .text._ZN6Darin3C2Ev
                0x08008474       0xa4 build/Darin3.o
                0x08008474                Darin3::Darin3()
                0x08008474                Darin3::Darin3()
 .text._ZN6Darin315closeReadStreamEv
                0x08008518       0x1e build/Darin3.o
                0x08008518                Darin3::closeReadStream()
 .text._ZN6Darin316closeWriteStreamEv
                0x08008536       0x24 build/Darin3.o
                0x08008536                Darin3::closeWriteStream()
 *fill*         0x0800855a        0x2 
 .text._ZN6Darin3D2Ev
                0x0800855c       0x24 build/Darin3.o
                0x0800855c                Darin3::~Darin3()
                0x0800855c                Darin3::~Darin3()
 .text._ZN6Darin3D0Ev
                0x08008580       0x16 build/Darin3.o
                0x08008580                Darin3::~Darin3()
 *fill*         0x08008596        0x2 
 .text._ZN6Darin312prepareForRxEPKhhm
                0x08008598       0xdc build/Darin3.o
                0x08008598                Darin3::prepareForRx(unsigned char const*, unsigned char, unsigned long)
 .text._ZN6Darin313processRxDataEPKhhm
                0x08008674       0x7c build/Darin3.o
                0x08008674                Darin3::processRxData(unsigned char const*, unsigned char, unsigned long)
 .text._ZN6Darin315prepareDataToTxEPKhhRm
                0x080086f0      0x1a8 build/Darin3.o
                0x080086f0                Darin3::prepareDataToTx(unsigned char const*, unsigned char, unsigned long&)
 .text._ZNK15UsbIspTransport4nameEv
                0x08008898        0x8 build/SerialTransport.o
                0x08008898                UsbIspTransport::name() const
 .text._ZN15UsbIspTransport8transmitEPVKhj
                0x080088a0       0x12 build/SerialTransport.o
                0x080088a0                UsbIspTransport::transmit(unsigned char const volatile*, unsigned int)
 *fill*         0x080088b2        0x2 
 .text._ZN13IspCmdControlD2Ev
                0x080088b4       0x38 build/IspCmdControl.o
                0x080088b4                IspCmdControl::~IspCmdControl()
                0x080088b4                IspCmdControl::~IspCmdControl()
 .text._ZN13IspCmdControl5matchEh
                0x080088ec        0xa build/IspCmdControl.o
                0x080088ec                IspCmdControl::match(unsigned char)
 .text._ZN13IspCmdControlD0Ev
                0x080088f6       0x14 build/IspCmdControl.o
                0x080088f6                IspCmdControl::~IspCmdControl()
 *fill*         0x0800890a        0x2 
 .text._ZN13IspCmdControlC2Ev
                0x0800890c       0x4c build/IspCmdControl.o
                0x0800890c                IspCmdControl::IspCmdControl()
                0x0800890c                IspCmdControl::IspCmdControl()
 .text._ZN13IspCmdControl15setSubProcessorEP22IspSubCommandProcessor
                0x08008958        0x4 build/IspCmdControl.o
                0x08008958                IspCmdControl::setSubProcessor(IspSubCommandProcessor*)
 .text._ZN13IspCmdControl11findHandlerE13IspSubCommand
                0x0800895c       0x3c build/IspCmdControl.o
                0x0800895c                IspCmdControl::findHandler(IspSubCommand)
 .text._ZN13IspCmdControl7executeEPhm
                0x08008998       0xac build/IspCmdControl.o
                0x08008998                IspCmdControl::execute(unsigned char*, unsigned long)
 .text._ZN13IspCmdControl22registerSubCmdHandlersEP21IIspSubCommandHandler
                0x08008a44       0x3c build/IspCmdControl.o
                0x08008a44                IspCmdControl::registerSubCmdHandlers(IIspSubCommandHandler*)
 .text._ZN17IspCmdReceiveData5matchEh
                0x08008a80       0x14 build/IspCmdReceiveData.o
                0x08008a80                IspCmdReceiveData::match(unsigned char)
 .text._ZN17IspCmdReceiveData15setSubProcessorEP22IspSubCommandProcessor
                0x08008a94        0x4 build/IspCmdReceiveData.o
                0x08008a94                IspCmdReceiveData::setSubProcessor(IspSubCommandProcessor*)
 .text._ZN17IspCmdReceiveData5resetEv
                0x08008a98        0xe build/IspCmdReceiveData.o
                0x08008a98                IspCmdReceiveData::reset()
 *fill*         0x08008aa6        0x2 
 .text._ZN17IspCmdReceiveDataC2Ev
                0x08008aa8       0x24 build/IspCmdReceiveData.o
                0x08008aa8                IspCmdReceiveData::IspCmdReceiveData()
                0x08008aa8                IspCmdReceiveData::IspCmdReceiveData()
 .text._ZN17IspCmdReceiveData7sendAckEt14IspReturnCodes
                0x08008acc       0x9a build/IspCmdReceiveData.o
                0x08008acc                IspCmdReceiveData::sendAck(unsigned short, IspReturnCodes)
 .text._ZN17IspCmdReceiveData8sendNackEt14IspReturnCodes
                0x08008b66       0x9c build/IspCmdReceiveData.o
                0x08008b66                IspCmdReceiveData::sendNack(unsigned short, IspReturnCodes)
 .text._ZN17IspCmdReceiveData11sendDoneAckE14IspReturnCodes
                0x08008c02       0x9e build/IspCmdReceiveData.o
                0x08008c02                IspCmdReceiveData::sendDoneAck(IspReturnCodes)
 .text._ZN17IspCmdReceiveData15handleDataChunkEPKhm
                0x08008ca0      0x140 build/IspCmdReceiveData.o
                0x08008ca0                IspCmdReceiveData::handleDataChunk(unsigned char const*, unsigned long)
 .text._ZN17IspCmdReceiveData9sendRXAckEh
                0x08008de0       0x92 build/IspCmdReceiveData.o
                0x08008de0                IspCmdReceiveData::sendRXAck(unsigned char)
 .text._ZN17IspCmdReceiveData10sendRXNackEh14IspReturnCodes
                0x08008e72       0x9c build/IspCmdReceiveData.o
                0x08008e72                IspCmdReceiveData::sendRXNack(unsigned char, IspReturnCodes)
 .text._ZN17IspCmdReceiveData18handleStartCommandEPKhm
                0x08008f0e       0x7e build/IspCmdReceiveData.o
                0x08008f0e                IspCmdReceiveData::handleStartCommand(unsigned char const*, unsigned long)
 .text._ZN17IspCmdReceiveData7executeEPhm
                0x08008f8c       0x2c build/IspCmdReceiveData.o
                0x08008f8c                IspCmdReceiveData::execute(unsigned char*, unsigned long)
 .text._ZN18IspCmdTransmitData5matchEh
                0x08008fb8       0x3c build/IspCmdTransmitData.o
                0x08008fb8                IspCmdTransmitData::match(unsigned char)
 .text._ZN18IspCmdTransmitDataC2Ev
                0x08008ff4       0x24 build/IspCmdTransmitData.o
                0x08008ff4                IspCmdTransmitData::IspCmdTransmitData()
                0x08008ff4                IspCmdTransmitData::IspCmdTransmitData()
 .text._ZN18IspCmdTransmitData15setSubProcessorEP22IspSubCommandProcessor
                0x08009018        0x4 build/IspCmdTransmitData.o
                0x08009018                IspCmdTransmitData::setSubProcessor(IspSubCommandProcessor*)
 .text._ZN18IspCmdTransmitData13setDataToSendEm
                0x0800901c        0xc build/IspCmdTransmitData.o
                0x0800901c                IspCmdTransmitData::setDataToSend(unsigned long)
 .text._ZN18IspCmdTransmitData13handleAckDoneEv
                0x08009028        0x6 build/IspCmdTransmitData.o
                0x08009028                IspCmdTransmitData::handleAckDone()
 .text._ZN18IspCmdTransmitData10sendTXNackEhh
                0x0800902e       0x9c build/IspCmdTransmitData.o
                0x0800902e                IspCmdTransmitData::sendTXNack(unsigned char, unsigned char)
 *fill*         0x080090ca        0x2 
 .text._ZN18IspCmdTransmitData14sendNextPacketEt
                0x080090cc      0x1bc build/IspCmdTransmitData.o
                0x080090cc                IspCmdTransmitData::sendNextPacket(unsigned short)
 .text._ZN18IspCmdTransmitData17startTransmissionEv
                0x08009288       0x16 build/IspCmdTransmitData.o
                0x08009288                IspCmdTransmitData::startTransmission()
 *fill*         0x0800929e        0x2 
 .text._ZN18IspCmdTransmitData23resendPacketForSequenceEt
                0x080092a0       0xfc build/IspCmdTransmitData.o
                0x080092a0                IspCmdTransmitData::resendPacketForSequence(unsigned short)
 .text._ZN18IspCmdTransmitData9handleAckEPhm
                0x0800939c       0x40 build/IspCmdTransmitData.o
                0x0800939c                IspCmdTransmitData::handleAck(unsigned char*, unsigned long)
 .text._ZN18IspCmdTransmitData5resetEv
                0x080093dc       0x14 build/IspCmdTransmitData.o
                0x080093dc                IspCmdTransmitData::reset()
 .text._ZN18IspCmdTransmitData13handleTxResetEv
                0x080093f0        0x8 build/IspCmdTransmitData.o
                0x080093f0                IspCmdTransmitData::handleTxReset()
 .text._ZN18IspCmdTransmitData19handleTxDataCommandEPhm
                0x080093f8       0x6a build/IspCmdTransmitData.o
                0x080093f8                IspCmdTransmitData::handleTxDataCommand(unsigned char*, unsigned long)
 .text._ZN18IspCmdTransmitData10handleNackEPhm
                0x08009462       0x30 build/IspCmdTransmitData.o
                0x08009462                IspCmdTransmitData::handleNack(unsigned char*, unsigned long)
 .text._ZN18IspCmdTransmitData7executeEPhm
                0x08009492       0x3e build/IspCmdTransmitData.o
                0x08009492                IspCmdTransmitData::execute(unsigned char*, unsigned long)
 .text._ZN17IspCommandManagerC2Ev
                0x080094d0       0x1e build/IspCommandManager.o
                0x080094d0                IspCommandManager::IspCommandManager()
                0x080094d0                IspCommandManager::IspCommandManager()
 .text._ZN17IspCommandManager10addHandlerEP17IspCommandHandler
                0x080094ee       0x14 build/IspCommandManager.o
                0x080094ee                IspCommandManager::addHandler(IspCommandHandler*)
 .text._ZN17IspCommandManager10handleDataEPhm
                0x08009502       0x42 build/IspCommandManager.o
                0x08009502                IspCommandManager::handleData(unsigned char*, unsigned long)
 .text._ZN17IspCommandManager10setBoardIDE10IspBoardId
                0x08009544        0x6 build/IspCommandManager.o
                0x08009544                IspCommandManager::setBoardID(IspBoardId)
 .text._ZN22IspSubCommandProcessorC2Ev
                0x0800954a       0x34 build/IspSubCommandProcessor.o
                0x0800954a                IspSubCommandProcessor::IspSubCommandProcessor()
                0x0800954a                IspSubCommandProcessor::IspSubCommandProcessor()
 .text._ZN22IspSubCommandProcessor15registerHandlerEhP21IIspSubCommandHandler
                0x0800957e       0x2c build/IspSubCommandProcessor.o
                0x0800957e                IspSubCommandProcessor::registerHandler(unsigned char, IIspSubCommandHandler*)
 .text._ZN22IspSubCommandProcessor11findHandlerEh
                0x080095aa       0x3a build/IspSubCommandProcessor.o
                0x080095aa                IspSubCommandProcessor::findHandler(unsigned char)
 .text._ZN22IspSubCommandProcessor12prepareForRxEhPKhm
                0x080095e4       0x30 build/IspSubCommandProcessor.o
                0x080095e4                IspSubCommandProcessor::prepareForRx(unsigned char, unsigned char const*, unsigned long)
 .text._ZN22IspSubCommandProcessor19processRxSubCommandEhPKhm
                0x08009614       0x2c build/IspSubCommandProcessor.o
                0x08009614                IspSubCommandProcessor::processRxSubCommand(unsigned char, unsigned char const*, unsigned long)
 .text._ZN22IspSubCommandProcessor13prepareTxDataEhPKhRm
                0x08009640       0x30 build/IspSubCommandProcessor.o
                0x08009640                IspSubCommandProcessor::prepareTxData(unsigned char, unsigned char const*, unsigned long&)
 .text._Z19SafeWriteToTxBufferPKhmm
                0x08009670       0x24 build/safeBuffer.o
                0x08009670                SafeWriteToTxBuffer(unsigned char const*, unsigned long, unsigned long)
 .text._Z19SafeWriteToRxBufferPKhmm
                0x08009694       0x24 build/safeBuffer.o
                0x08009694                SafeWriteToRxBuffer(unsigned char const*, unsigned long, unsigned long)
 .text.Reset_Handler
                0x080096b8       0x50 build/startup_stm32f411xe.o
                0x080096b8                Reset_Handler
 .text.Default_Handler
                0x08009708        0x2 build/startup_stm32f411xe.o
                0x08009708                RTC_Alarm_IRQHandler
                0x08009708                EXTI2_IRQHandler
                0x08009708                SPI4_IRQHandler
                0x08009708                TIM1_CC_IRQHandler
                0x08009708                DMA2_Stream5_IRQHandler
                0x08009708                DMA1_Stream5_IRQHandler
                0x08009708                PVD_IRQHandler
                0x08009708                SDIO_IRQHandler
                0x08009708                TAMP_STAMP_IRQHandler
                0x08009708                EXTI3_IRQHandler
                0x08009708                TIM1_UP_TIM10_IRQHandler
                0x08009708                I2C3_ER_IRQHandler
                0x08009708                EXTI0_IRQHandler
                0x08009708                I2C2_EV_IRQHandler
                0x08009708                DMA1_Stream2_IRQHandler
                0x08009708                FPU_IRQHandler
                0x08009708                DMA2_Stream2_IRQHandler
                0x08009708                SPI1_IRQHandler
                0x08009708                TIM1_BRK_TIM9_IRQHandler
                0x08009708                DMA2_Stream3_IRQHandler
                0x08009708                USART6_IRQHandler
                0x08009708                DMA2_Stream0_IRQHandler
                0x08009708                TIM4_IRQHandler
                0x08009708                I2C1_EV_IRQHandler
                0x08009708                DMA1_Stream6_IRQHandler
                0x08009708                DMA1_Stream1_IRQHandler
                0x08009708                TIM3_IRQHandler
                0x08009708                RCC_IRQHandler
                0x08009708                Default_Handler
                0x08009708                EXTI15_10_IRQHandler
                0x08009708                ADC_IRQHandler
                0x08009708                DMA1_Stream7_IRQHandler
                0x08009708                SPI5_IRQHandler
                0x08009708                TIM5_IRQHandler
                0x08009708                DMA2_Stream7_IRQHandler
                0x08009708                I2C3_EV_IRQHandler
                0x08009708                EXTI9_5_IRQHandler
                0x08009708                RTC_WKUP_IRQHandler
                0x08009708                SPI2_IRQHandler
                0x08009708                DMA1_Stream0_IRQHandler
                0x08009708                EXTI4_IRQHandler
                0x08009708                WWDG_IRQHandler
                0x08009708                TIM2_IRQHandler
                0x08009708                OTG_FS_WKUP_IRQHandler
                0x08009708                TIM1_TRG_COM_TIM11_IRQHandler
                0x08009708                EXTI1_IRQHandler
                0x08009708                USART2_IRQHandler
                0x08009708                I2C2_ER_IRQHandler
                0x08009708                DMA2_Stream1_IRQHandler
                0x08009708                FLASH_IRQHandler
                0x08009708                DMA2_Stream4_IRQHandler
                0x08009708                USART1_IRQHandler
                0x08009708                SPI3_IRQHandler
                0x08009708                DMA1_Stream4_IRQHandler
                0x08009708                I2C1_ER_IRQHandler
                0x08009708                DMA2_Stream6_IRQHandler
                0x08009708                DMA1_Stream3_IRQHandler
 .text.__aeabi_atexit
                0x0800970a        0xa c:/program files (x86)/gnu arm embedded toolchain/10 2021.10/bin/../lib/gcc/arm-none-eabi/10.3.1/../../../../arm-none-eabi/lib/thumb/v7e-m+fp/hard\libc_nano.a(lib_a-aeabi_atexit.o)
                0x0800970a                __aeabi_atexit
 .text.__cxa_atexit
                0x08009714       0x1c c:/program files (x86)/gnu arm embedded toolchain/10 2021.10/bin/../lib/gcc/arm-none-eabi/10.3.1/../../../../arm-none-eabi/lib/thumb/v7e-m+fp/hard\libc_nano.a(lib_a-cxa_atexit.o)
                0x08009714                __cxa_atexit
 .text.__errno  0x08009730        0xc c:/program files (x86)/gnu arm embedded toolchain/10 2021.10/bin/../lib/gcc/arm-none-eabi/10.3.1/../../../../arm-none-eabi/lib/thumb/v7e-m+fp/hard\libc_nano.a(lib_a-errno.o)
                0x08009730                __errno
 .text.__libc_init_array
                0x0800973c       0x48 c:/program files (x86)/gnu arm embedded toolchain/10 2021.10/bin/../lib/gcc/arm-none-eabi/10.3.1/../../../../arm-none-eabi/lib/thumb/v7e-m+fp/hard\libc_nano.a(lib_a-init.o)
                0x0800973c                __libc_init_array
 .text.free     0x08009784       0x10 c:/program files (x86)/gnu arm embedded toolchain/10 2021.10/bin/../lib/gcc/arm-none-eabi/10.3.1/../../../../arm-none-eabi/lib/thumb/v7e-m+fp/hard\libc_nano.a(lib_a-malloc.o)
                0x08009784                free
 .text.memcmp   0x08009794       0x20 c:/program files (x86)/gnu arm embedded toolchain/10 2021.10/bin/../lib/gcc/arm-none-eabi/10.3.1/../../../../arm-none-eabi/lib/thumb/v7e-m+fp/hard\libc_nano.a(lib_a-memcmp.o)
                0x08009794                memcmp
 .text.memcpy   0x080097b4       0x1c c:/program files (x86)/gnu arm embedded toolchain/10 2021.10/bin/../lib/gcc/arm-none-eabi/10.3.1/../../../../arm-none-eabi/lib/thumb/v7e-m+fp/hard\libc_nano.a(lib_a-memcpy-stub.o)
                0x080097b4                memcpy
 .text.memmove  0x080097d0       0x34 c:/program files (x86)/gnu arm embedded toolchain/10 2021.10/bin/../lib/gcc/arm-none-eabi/10.3.1/../../../../arm-none-eabi/lib/thumb/v7e-m+fp/hard\libc_nano.a(lib_a-memmove.o)
                0x080097d0                memmove
 .text.memset   0x08009804       0x10 c:/program files (x86)/gnu arm embedded toolchain/10 2021.10/bin/../lib/gcc/arm-none-eabi/10.3.1/../../../../arm-none-eabi/lib/thumb/v7e-m+fp/hard\libc_nano.a(lib_a-memset.o)
                0x08009804                memset
 .text._free_r  0x08009814       0x98 c:/program files (x86)/gnu arm embedded toolchain/10 2021.10/bin/../lib/gcc/arm-none-eabi/10.3.1/../../../../arm-none-eabi/lib/thumb/v7e-m+fp/hard\libc_nano.a(lib_a-nano-freer.o)
                0x08009814                _free_r
 .text.sbrk_aligned
                0x080098ac       0x40 c:/program files (x86)/gnu arm embedded toolchain/10 2021.10/bin/../lib/gcc/arm-none-eabi/10.3.1/../../../../arm-none-eabi/lib/thumb/v7e-m+fp/hard\libc_nano.a(lib_a-nano-mallocr.o)
 .text._malloc_r
                0x080098ec       0xe8 c:/program files (x86)/gnu arm embedded toolchain/10 2021.10/bin/../lib/gcc/arm-none-eabi/10.3.1/../../../../arm-none-eabi/lib/thumb/v7e-m+fp/hard\libc_nano.a(lib_a-nano-mallocr.o)
                0x080098ec                _malloc_r
 .text.printf   0x080099d4       0x30 c:/program files (x86)/gnu arm embedded toolchain/10 2021.10/bin/../lib/gcc/arm-none-eabi/10.3.1/../../../../arm-none-eabi/lib/thumb/v7e-m+fp/hard\libc_nano.a(lib_a-printf.o)
                0x080099d4                iprintf
                0x080099d4                printf
 .text._sbrk_r  0x08009a04       0x20 c:/program files (x86)/gnu arm embedded toolchain/10 2021.10/bin/../lib/gcc/arm-none-eabi/10.3.1/../../../../arm-none-eabi/lib/thumb/v7e-m+fp/hard\libc_nano.a(lib_a-sbrkr.o)
                0x08009a04                _sbrk_r
 .text.snprintf
                0x08009a24       0x68 c:/program files (x86)/gnu arm embedded toolchain/10 2021.10/bin/../lib/gcc/arm-none-eabi/10.3.1/../../../../arm-none-eabi/lib/thumb/v7e-m+fp/hard\libc_nano.a(lib_a-snprintf.o)
                0x08009a24                sniprintf
                0x08009a24                snprintf
 .text.strchr   0x08009a8c       0x1a c:/program files (x86)/gnu arm embedded toolchain/10 2021.10/bin/../lib/gcc/arm-none-eabi/10.3.1/../../../../arm-none-eabi/lib/thumb/v7e-m+fp/hard\libc_nano.a(lib_a-strchr.o)
                0x08009a8c                strchr
 .text.strncpy  0x08009aa6       0x26 c:/program files (x86)/gnu arm embedded toolchain/10 2021.10/bin/../lib/gcc/arm-none-eabi/10.3.1/../../../../arm-none-eabi/lib/thumb/v7e-m+fp/hard\libc_nano.a(lib_a-strncpy.o)
                0x08009aa6                strncpy
 .text.std      0x08009acc       0x48 c:/program files (x86)/gnu arm embedded toolchain/10 2021.10/bin/../lib/gcc/arm-none-eabi/10.3.1/../../../../arm-none-eabi/lib/thumb/v7e-m+fp/hard\libc_nano.a(lib_a-findfp.o)
 .text._cleanup_r
                0x08009b14        0xc c:/program files (x86)/gnu arm embedded toolchain/10 2021.10/bin/../lib/gcc/arm-none-eabi/10.3.1/../../../../arm-none-eabi/lib/thumb/v7e-m+fp/hard\libc_nano.a(lib_a-findfp.o)
                0x08009b14                _cleanup_r
 .text.__sfmoreglue
                0x08009b20       0x2c c:/program files (x86)/gnu arm embedded toolchain/10 2021.10/bin/../lib/gcc/arm-none-eabi/10.3.1/../../../../arm-none-eabi/lib/thumb/v7e-m+fp/hard\libc_nano.a(lib_a-findfp.o)
                0x08009b20                __sfmoreglue
 .text.__sfp_lock_acquire
                0x08009b4c        0xc c:/program files (x86)/gnu arm embedded toolchain/10 2021.10/bin/../lib/gcc/arm-none-eabi/10.3.1/../../../../arm-none-eabi/lib/thumb/v7e-m+fp/hard\libc_nano.a(lib_a-findfp.o)
                0x08009b4c                __sfp_lock_acquire
 .text.__sfp_lock_release
                0x08009b58        0xc c:/program files (x86)/gnu arm embedded toolchain/10 2021.10/bin/../lib/gcc/arm-none-eabi/10.3.1/../../../../arm-none-eabi/lib/thumb/v7e-m+fp/hard\libc_nano.a(lib_a-findfp.o)
                0x08009b58                __sfp_lock_release
 .text.__sinit_lock_acquire
                0x08009b64        0xc c:/program files (x86)/gnu arm embedded toolchain/10 2021.10/bin/../lib/gcc/arm-none-eabi/10.3.1/../../../../arm-none-eabi/lib/thumb/v7e-m+fp/hard\libc_nano.a(lib_a-findfp.o)
                0x08009b64                __sinit_lock_acquire
 .text.__sinit_lock_release
                0x08009b70        0xc c:/program files (x86)/gnu arm embedded toolchain/10 2021.10/bin/../lib/gcc/arm-none-eabi/10.3.1/../../../../arm-none-eabi/lib/thumb/v7e-m+fp/hard\libc_nano.a(lib_a-findfp.o)
                0x08009b70                __sinit_lock_release
 .text.__sinit  0x08009b7c       0x70 c:/program files (x86)/gnu arm embedded toolchain/10 2021.10/bin/../lib/gcc/arm-none-eabi/10.3.1/../../../../arm-none-eabi/lib/thumb/v7e-m+fp/hard\libc_nano.a(lib_a-findfp.o)
                0x08009b7c                __sinit
 .text.__sfp    0x08009bec       0x8c c:/program files (x86)/gnu arm embedded toolchain/10 2021.10/bin/../lib/gcc/arm-none-eabi/10.3.1/../../../../arm-none-eabi/lib/thumb/v7e-m+fp/hard\libc_nano.a(lib_a-findfp.o)
                0x08009bec                __sfp
 .text._fwalk_reent
                0x08009c78       0x3e c:/program files (x86)/gnu arm embedded toolchain/10 2021.10/bin/../lib/gcc/arm-none-eabi/10.3.1/../../../../arm-none-eabi/lib/thumb/v7e-m+fp/hard\libc_nano.a(lib_a-fwalk.o)
                0x08009c78                _fwalk_reent
 .text.__retarget_lock_init_recursive
                0x08009cb6        0x2 c:/program files (x86)/gnu arm embedded toolchain/10 2021.10/bin/../lib/gcc/arm-none-eabi/10.3.1/../../../../arm-none-eabi/lib/thumb/v7e-m+fp/hard\libc_nano.a(lib_a-lock.o)
                0x08009cb6                __retarget_lock_init_recursive
 .text.__retarget_lock_acquire_recursive
                0x08009cb8        0x2 c:/program files (x86)/gnu arm embedded toolchain/10 2021.10/bin/../lib/gcc/arm-none-eabi/10.3.1/../../../../arm-none-eabi/lib/thumb/v7e-m+fp/hard\libc_nano.a(lib_a-lock.o)
                0x08009cb8                __retarget_lock_acquire_recursive
 .text.__retarget_lock_release_recursive
                0x08009cba        0x2 c:/program files (x86)/gnu arm embedded toolchain/10 2021.10/bin/../lib/gcc/arm-none-eabi/10.3.1/../../../../arm-none-eabi/lib/thumb/v7e-m+fp/hard\libc_nano.a(lib_a-lock.o)
                0x08009cba                __retarget_lock_release_recursive
 .text.__malloc_lock
                0x08009cbc        0xc c:/program files (x86)/gnu arm embedded toolchain/10 2021.10/bin/../lib/gcc/arm-none-eabi/10.3.1/../../../../arm-none-eabi/lib/thumb/v7e-m+fp/hard\libc_nano.a(lib_a-mlock.o)
                0x08009cbc                __malloc_lock
 .text.__malloc_unlock
                0x08009cc8        0xc c:/program files (x86)/gnu arm embedded toolchain/10 2021.10/bin/../lib/gcc/arm-none-eabi/10.3.1/../../../../arm-none-eabi/lib/thumb/v7e-m+fp/hard\libc_nano.a(lib_a-mlock.o)
                0x08009cc8                __malloc_unlock
 .text.__ssputs_r
                0x08009cd4       0xb6 c:/program files (x86)/gnu arm embedded toolchain/10 2021.10/bin/../lib/gcc/arm-none-eabi/10.3.1/../../../../arm-none-eabi/lib/thumb/v7e-m+fp/hard\libc_nano.a(lib_a-nano-svfprintf.o)
                0x08009cd4                __ssputs_r
 *fill*         0x08009d8a        0x2 
 .text._svfprintf_r
                0x08009d8c      0x200 c:/program files (x86)/gnu arm embedded toolchain/10 2021.10/bin/../lib/gcc/arm-none-eabi/10.3.1/../../../../arm-none-eabi/lib/thumb/v7e-m+fp/hard\libc_nano.a(lib_a-nano-svfprintf.o)
                0x08009d8c                _svfiprintf_r
                0x08009d8c                _svfprintf_r
 .text.__sfputc_r
                0x08009f8c       0x2e c:/program files (x86)/gnu arm embedded toolchain/10 2021.10/bin/../lib/gcc/arm-none-eabi/10.3.1/../../../../arm-none-eabi/lib/thumb/v7e-m+fp/hard\libc_nano.a(lib_a-nano-vfprintf.o)
 .text.__sfputs_r
                0x08009fba       0x24 c:/program files (x86)/gnu arm embedded toolchain/10 2021.10/bin/../lib/gcc/arm-none-eabi/10.3.1/../../../../arm-none-eabi/lib/thumb/v7e-m+fp/hard\libc_nano.a(lib_a-nano-vfprintf.o)
                0x08009fba                __sfputs_r
 *fill*         0x08009fde        0x2 
 .text._vfprintf_r
                0x08009fe0      0x260 c:/program files (x86)/gnu arm embedded toolchain/10 2021.10/bin/../lib/gcc/arm-none-eabi/10.3.1/../../../../arm-none-eabi/lib/thumb/v7e-m+fp/hard\libc_nano.a(lib_a-nano-vfprintf.o)
                0x08009fe0                _vfprintf_r
                0x08009fe0                _vfiprintf_r
 .text._printf_common
                0x0800a240       0xda c:/program files (x86)/gnu arm embedded toolchain/10 2021.10/bin/../lib/gcc/arm-none-eabi/10.3.1/../../../../arm-none-eabi/lib/thumb/v7e-m+fp/hard\libc_nano.a(lib_a-nano-vfprintf_i.o)
                0x0800a240                _printf_common
 *fill*         0x0800a31a        0x2 
 .text._printf_i
                0x0800a31c      0x24c c:/program files (x86)/gnu arm embedded toolchain/10 2021.10/bin/../lib/gcc/arm-none-eabi/10.3.1/../../../../arm-none-eabi/lib/thumb/v7e-m+fp/hard\libc_nano.a(lib_a-nano-vfprintf_i.o)
                0x0800a31c                _printf_i
 .text.__sread  0x0800a568       0x22 c:/program files (x86)/gnu arm embedded toolchain/10 2021.10/bin/../lib/gcc/arm-none-eabi/10.3.1/../../../../arm-none-eabi/lib/thumb/v7e-m+fp/hard\libc_nano.a(lib_a-stdio.o)
                0x0800a568                __sread
 .text.__swrite
                0x0800a58a       0x38 c:/program files (x86)/gnu arm embedded toolchain/10 2021.10/bin/../lib/gcc/arm-none-eabi/10.3.1/../../../../arm-none-eabi/lib/thumb/v7e-m+fp/hard\libc_nano.a(lib_a-stdio.o)
                0x0800a58a                __swrite
 .text.__sseek  0x0800a5c2       0x24 c:/program files (x86)/gnu arm embedded toolchain/10 2021.10/bin/../lib/gcc/arm-none-eabi/10.3.1/../../../../arm-none-eabi/lib/thumb/v7e-m+fp/hard\libc_nano.a(lib_a-stdio.o)
                0x0800a5c2                __sseek
 .text.__sclose
                0x0800a5e6        0x8 c:/program files (x86)/gnu arm embedded toolchain/10 2021.10/bin/../lib/gcc/arm-none-eabi/10.3.1/../../../../arm-none-eabi/lib/thumb/v7e-m+fp/hard\libc_nano.a(lib_a-stdio.o)
                0x0800a5e6                __sclose
 *fill*         0x0800a5ee        0x2 
 .text.__swbuf_r
                0x0800a5f0       0xa4 c:/program files (x86)/gnu arm embedded toolchain/10 2021.10/bin/../lib/gcc/arm-none-eabi/10.3.1/../../../../arm-none-eabi/lib/thumb/v7e-m+fp/hard\libc_nano.a(lib_a-wbuf.o)
                0x0800a5f0                __swbuf_r
 .text._write_r
                0x0800a694       0x24 c:/program files (x86)/gnu arm embedded toolchain/10 2021.10/bin/../lib/gcc/arm-none-eabi/10.3.1/../../../../arm-none-eabi/lib/thumb/v7e-m+fp/hard\libc_nano.a(lib_a-writer.o)
                0x0800a694                _write_r
 .text.__swsetup_r
                0x0800a6b8       0xdc c:/program files (x86)/gnu arm embedded toolchain/10 2021.10/bin/../lib/gcc/arm-none-eabi/10.3.1/../../../../arm-none-eabi/lib/thumb/v7e-m+fp/hard\libc_nano.a(lib_a-wsetup.o)
                0x0800a6b8                __swsetup_r
 .text._close_r
                0x0800a794       0x20 c:/program files (x86)/gnu arm embedded toolchain/10 2021.10/bin/../lib/gcc/arm-none-eabi/10.3.1/../../../../arm-none-eabi/lib/thumb/v7e-m+fp/hard\libc_nano.a(lib_a-closer.o)
                0x0800a794                _close_r
 .text.__sflush_r
                0x0800a7b4      0x10c c:/program files (x86)/gnu arm embedded toolchain/10 2021.10/bin/../lib/gcc/arm-none-eabi/10.3.1/../../../../arm-none-eabi/lib/thumb/v7e-m+fp/hard\libc_nano.a(lib_a-fflush.o)
                0x0800a7b4                __sflush_r
 .text._fflush_r
                0x0800a8c0       0x78 c:/program files (x86)/gnu arm embedded toolchain/10 2021.10/bin/../lib/gcc/arm-none-eabi/10.3.1/../../../../arm-none-eabi/lib/thumb/v7e-m+fp/hard\libc_nano.a(lib_a-fflush.o)
                0x0800a8c0                _fflush_r
 .text._lseek_r
                0x0800a938       0x24 c:/program files (x86)/gnu arm embedded toolchain/10 2021.10/bin/../lib/gcc/arm-none-eabi/10.3.1/../../../../arm-none-eabi/lib/thumb/v7e-m+fp/hard\libc_nano.a(lib_a-lseekr.o)
                0x0800a938                _lseek_r
 .text.__swhatbuf_r
                0x0800a95c       0x4a c:/program files (x86)/gnu arm embedded toolchain/10 2021.10/bin/../lib/gcc/arm-none-eabi/10.3.1/../../../../arm-none-eabi/lib/thumb/v7e-m+fp/hard\libc_nano.a(lib_a-makebuf.o)
                0x0800a95c                __swhatbuf_r
 *fill*         0x0800a9a6        0x2 
 .text.__smakebuf_r
                0x0800a9a8       0x80 c:/program files (x86)/gnu arm embedded toolchain/10 2021.10/bin/../lib/gcc/arm-none-eabi/10.3.1/../../../../arm-none-eabi/lib/thumb/v7e-m+fp/hard\libc_nano.a(lib_a-makebuf.o)
                0x0800a9a8                __smakebuf_r
 .text._realloc_r
                0x0800aa28       0x5e c:/program files (x86)/gnu arm embedded toolchain/10 2021.10/bin/../lib/gcc/arm-none-eabi/10.3.1/../../../../arm-none-eabi/lib/thumb/v7e-m+fp/hard\libc_nano.a(lib_a-nano-reallocr.o)
                0x0800aa28                _realloc_r
 *fill*         0x0800aa86        0x2 
 .text._read_r  0x0800aa88       0x24 c:/program files (x86)/gnu arm embedded toolchain/10 2021.10/bin/../lib/gcc/arm-none-eabi/10.3.1/../../../../arm-none-eabi/lib/thumb/v7e-m+fp/hard\libc_nano.a(lib_a-readr.o)
                0x0800aa88                _read_r
 .text._fstat_r
                0x0800aaac       0x24 c:/program files (x86)/gnu arm embedded toolchain/10 2021.10/bin/../lib/gcc/arm-none-eabi/10.3.1/../../../../arm-none-eabi/lib/thumb/v7e-m+fp/hard\libc_nano.a(lib_a-fstatr.o)
                0x0800aaac                _fstat_r
 .text._isatty_r
                0x0800aad0       0x20 c:/program files (x86)/gnu arm embedded toolchain/10 2021.10/bin/../lib/gcc/arm-none-eabi/10.3.1/../../../../arm-none-eabi/lib/thumb/v7e-m+fp/hard\libc_nano.a(lib_a-isattyr.o)
                0x0800aad0                _isatty_r
 .text._malloc_usable_size_r
                0x0800aaf0       0x10 c:/program files (x86)/gnu arm embedded toolchain/10 2021.10/bin/../lib/gcc/arm-none-eabi/10.3.1/../../../../arm-none-eabi/lib/thumb/v7e-m+fp/hard\libc_nano.a(lib_a-nano-msizer.o)
                0x0800aaf0                _malloc_usable_size_r
 *(.glue_7)
 .glue_7        0x0800ab00        0x0 linker stubs
 *(.glue_7t)
 .glue_7t       0x0800ab00        0x0 linker stubs
 *(.eh_frame)
 .eh_frame      0x0800ab00        0x0 c:/program files (x86)/gnu arm embedded toolchain/10 2021.10/bin/../lib/gcc/arm-none-eabi/10.3.1/thumb/v7e-m+fp/hard/crtbegin.o
 *(.init)
 .init          0x0800ab00        0x4 c:/program files (x86)/gnu arm embedded toolchain/10 2021.10/bin/../lib/gcc/arm-none-eabi/10.3.1/thumb/v7e-m+fp/hard/crti.o
                0x0800ab00                _init
 .init          0x0800ab04        0x8 c:/program files (x86)/gnu arm embedded toolchain/10 2021.10/bin/../lib/gcc/arm-none-eabi/10.3.1/thumb/v7e-m+fp/hard/crtn.o
 *(.fini)
 .fini          0x0800ab0c        0x4 c:/program files (x86)/gnu arm embedded toolchain/10 2021.10/bin/../lib/gcc/arm-none-eabi/10.3.1/thumb/v7e-m+fp/hard/crti.o
                0x0800ab0c                _fini
 .fini          0x0800ab10        0x8 c:/program files (x86)/gnu arm embedded toolchain/10 2021.10/bin/../lib/gcc/arm-none-eabi/10.3.1/thumb/v7e-m+fp/hard/crtn.o
                0x0800ab18                . = ALIGN (0x4)
                0x0800ab18                _etext = .

.vfp11_veneer   0x0800ab18        0x0
 .vfp11_veneer  0x0800ab18        0x0 linker stubs

.v4_bx          0x0800ab18        0x0
 .v4_bx         0x0800ab18        0x0 linker stubs

.iplt           0x0800ab18        0x0
 .iplt          0x0800ab18        0x0 c:/program files (x86)/gnu arm embedded toolchain/10 2021.10/bin/../lib/gcc/arm-none-eabi/10.3.1/thumb/v7e-m+fp/hard/crtbegin.o

.rodata         0x0800ab18      0x764
                0x0800ab18                . = ALIGN (0x4)
 *(.rodata)
 *(.rodata*)
 .rodata.GREEN_LED
                0x0800ab18        0x8 build/Darin3Cart_Driver.o
 .rodata.RED_LED
                0x0800ab20        0x8 build/Darin3Cart_Driver.o
 .rodata.USBD_FS_ProductStrDescriptor.str1.4
                0x0800ab28       0x16 build/usbd_desc.o
 *fill*         0x0800ab3e        0x2 
 .rodata.USBD_FS_ManufacturerStrDescriptor.str1.4
                0x0800ab40       0x13 build/usbd_desc.o
 *fill*         0x0800ab53        0x1 
 .rodata.USBD_FS_ConfigStrDescriptor.str1.4
                0x0800ab54        0xb build/usbd_desc.o
 *fill*         0x0800ab5f        0x1 
 .rodata.USBD_FS_InterfaceStrDescriptor.str1.4
                0x0800ab60        0xe build/usbd_desc.o
 *fill*         0x0800ab6e        0x2 
 .rodata.AHBPrescTable
                0x0800ab70       0x10 build/system_stm32f4xx.o
                0x0800ab70                AHBPrescTable
 .rodata.check_fs.str1.4
                0x0800ab80        0x9 build/ff.o
 *fill*         0x0800ab89        0x3 
 .rodata.create_name.str1.4
                0x0800ab8c        0xf build/ff.o
 *fill*         0x0800ab9b        0x1 
 .rodata.f_mkfs.str1.4
                0x0800ab9c       0x34 build/ff.o
 .rodata.cst.0  0x0800abd0        0xe build/ff.o
 *fill*         0x0800abde        0x2 
 .rodata.cst32.1
                0x0800abe0        0xe build/ff.o
 *fill*         0x0800abee        0x2 
 .rodata.defopt.2
                0x0800abf0       0x10 build/ff.o
 .rodata._ZN29FirmwareVersion_SubCmdProcess13processCmdReqEPh.str1.4
                0x0800ac00        0x4 build/main.o
 .rodata._ZNK21IspTransportInterface4nameEv.str1.4
                0x0800ac04       0x11 build/main.o
 *fill*         0x0800ac15        0x3 
 .rodata._ZN19Erase_SubCmdProcess13processCmdReqEPh.str1.4
                0x0800ac18        0x2 build/main.o
 *fill*         0x0800ac1a        0x2 
 .rodata._ZTV21IIspSubCommandHandler
                0x0800ac1c       0x2c build/main.o
                0x0800ac1c                vtable for IIspSubCommandHandler
 .rodata._ZTV19Erase_SubCmdProcess
                0x0800ac48       0x2c build/main.o
                0x0800ac48                vtable for Erase_SubCmdProcess
 .rodata._ZTV29FirmwareVersion_SubCmdProcess
                0x0800ac74       0x2c build/main.o
                0x0800ac74                vtable for FirmwareVersion_SubCmdProcess
 .rodata._ZTV21BoardID_SubCmdProcess
                0x0800aca0       0x2c build/main.o
                0x0800aca0                vtable for BoardID_SubCmdProcess
 .rodata._ZTV24CartStatus_SubCmdProcess
                0x0800accc       0x2c build/main.o
                0x0800accc                vtable for CartStatus_SubCmdProcess
 .rodata._ZTV24GuiCtrlLed_SubCmdProcess
                0x0800acf8       0x2c build/main.o
                0x0800acf8                vtable for GuiCtrlLed_SubCmdProcess
 .rodata._ZTV22GreenLed_SubCmdProcess
                0x0800ad24       0x2c build/main.o
                0x0800ad24                vtable for GreenLed_SubCmdProcess
 .rodata._ZTV20RedLed_SubCmdProcess
                0x0800ad50       0x2c build/main.o
                0x0800ad50                vtable for RedLed_SubCmdProcess
 .rodata._ZTV20Format_SubCmdProcess
                0x0800ad7c       0x2c build/main.o
                0x0800ad7c                vtable for Format_SubCmdProcess
 .rodata._ZTV26SlotLedBlink_SubCmdProcess
                0x0800ada8       0x2c build/main.o
                0x0800ada8                vtable for SlotLedBlink_SubCmdProcess
 .rodata._ZTV25BlinkAllLed_SubCmdProcess
                0x0800add4       0x2c build/main.o
                0x0800add4                vtable for BlinkAllLed_SubCmdProcess
 .rodata._ZTV25LedLoopBack_SubCmdProcess
                0x0800ae00       0x2c build/main.o
                0x0800ae00                vtable for LedLoopBack_SubCmdProcess
 .rodata._ZTV28D3_Power_Cycle_SubCmdProcess
                0x0800ae2c       0x2c build/main.o
                0x0800ae2c                vtable for D3_Power_Cycle_SubCmdProcess
 .rodata._ZTV21IspTransportInterface
                0x0800ae58       0x24 build/main.o
                0x0800ae58                vtable for IspTransportInterface
 .rodata._ZTV17IspCommandHandler
                0x0800ae7c       0x1c build/main.o
                0x0800ae7c                vtable for IspCommandHandler
 .rodata._ZN12FatFsWrapper5mountEv.str1.4
                0x0800ae98        0x2 build/FatFsWrapperSingleton.o
                                  0x1 (size before relaxing)
 .rodata._ZN12FatFsWrapper14deleteAllFilesEPKc.str1.4
                0x0800ae98        0xe build/FatFsWrapperSingleton.o
 .rodata._ZN12FatFsWrapper15buildFilePacketEPhj.str1.4
                0x0800aea6        0x2 build/FatFsWrapperSingleton.o
 *fill*         0x0800aea6        0x2 
 .rodata.str1.4
                0x0800aea8      0x157 build/FatFsWrapperSingleton.o
 *fill*         0x0800afff        0x1 
 .rodata._ZN12FatFsWrapper11kKnownFilesE
                0x0800b000       0xe8 build/FatFsWrapperSingleton.o
                0x0800b000                FatFsWrapper::kKnownFiles
 .rodata._ZN6Darin312prepareForRxEPKhhm.str1.4
                0x0800b0e8        0x2 build/Darin3.o
 .rodata._ZTV6Darin3
                0x0800b0e8       0x2c build/Darin3.o
                0x0800b0e8                vtable for Darin3
 .rodata._ZNK15UsbIspTransport4nameEv.str1.4
                0x0800b114        0x8 build/SerialTransport.o
 .rodata._ZTV15UsbIspTransport
                0x0800b11c       0x24 build/SerialTransport.o
                0x0800b11c                vtable for UsbIspTransport
 .rodata._ZTV13IspCmdControl
                0x0800b140       0x1c build/IspCmdControl.o
                0x0800b140                vtable for IspCmdControl
 .rodata._ZTV17IspCmdReceiveData
                0x0800b15c       0x1c build/IspCmdReceiveData.o
                0x0800b15c                vtable for IspCmdReceiveData
 .rodata._ZTV18IspCmdTransmitData
                0x0800b178       0x1c build/IspCmdTransmitData.o
                0x0800b178                vtable for IspCmdTransmitData
 .rodata._ZN22IspSubCommandProcessor12prepareForRxEhPKhm.str1.4
                0x0800b194       0x28 build/IspSubCommandProcessor.o
 .rodata._ZN22IspSubCommandProcessor13prepareTxDataEhPKhRm.str1.4
                0x0800b1bc       0x28 build/IspSubCommandProcessor.o
 .rodata._global_impure_ptr
                0x0800b1e4        0x4 c:/program files (x86)/gnu arm embedded toolchain/10 2021.10/bin/../lib/gcc/arm-none-eabi/10.3.1/../../../../arm-none-eabi/lib/thumb/v7e-m+fp/hard\libc_nano.a(lib_a-impure.o)
                0x0800b1e4                _global_impure_ptr
 .rodata.__sf_fake_stderr
                0x0800b1e8       0x20 c:/program files (x86)/gnu arm embedded toolchain/10 2021.10/bin/../lib/gcc/arm-none-eabi/10.3.1/../../../../arm-none-eabi/lib/thumb/v7e-m+fp/hard\libc_nano.a(lib_a-findfp.o)
                0x0800b1e8                __sf_fake_stderr
 .rodata.__sf_fake_stdin
                0x0800b208       0x20 c:/program files (x86)/gnu arm embedded toolchain/10 2021.10/bin/../lib/gcc/arm-none-eabi/10.3.1/../../../../arm-none-eabi/lib/thumb/v7e-m+fp/hard\libc_nano.a(lib_a-findfp.o)
                0x0800b208                __sf_fake_stdin
 .rodata.__sf_fake_stdout
                0x0800b228       0x20 c:/program files (x86)/gnu arm embedded toolchain/10 2021.10/bin/../lib/gcc/arm-none-eabi/10.3.1/../../../../arm-none-eabi/lib/thumb/v7e-m+fp/hard\libc_nano.a(lib_a-findfp.o)
                0x0800b228                __sf_fake_stdout
 .rodata._svfprintf_r.str1.1
                0x0800b248       0x11 c:/program files (x86)/gnu arm embedded toolchain/10 2021.10/bin/../lib/gcc/arm-none-eabi/10.3.1/../../../../arm-none-eabi/lib/thumb/v7e-m+fp/hard\libc_nano.a(lib_a-nano-svfprintf.o)
 .rodata._vfprintf_r.str1.1
                0x0800b259       0x11 c:/program files (x86)/gnu arm embedded toolchain/10 2021.10/bin/../lib/gcc/arm-none-eabi/10.3.1/../../../../arm-none-eabi/lib/thumb/v7e-m+fp/hard\libc_nano.a(lib_a-nano-vfprintf.o)
 .rodata._printf_i.str1.1
                0x0800b259       0x22 c:/program files (x86)/gnu arm embedded toolchain/10 2021.10/bin/../lib/gcc/arm-none-eabi/10.3.1/../../../../arm-none-eabi/lib/thumb/v7e-m+fp/hard\libc_nano.a(lib_a-nano-vfprintf_i.o)
                0x0800b27c                . = ALIGN (0x4)
 *fill*         0x0800b27b        0x1 

.ARM.extab      0x0800b27c        0x0
                0x0800b27c                . = ALIGN (0x4)
 *(.ARM.extab* .gnu.linkonce.armextab.*)
                0x0800b27c                . = ALIGN (0x4)

.ARM            0x0800b27c        0x8
                0x0800b27c                . = ALIGN (0x4)
                0x0800b27c                __exidx_start = .
 *(.ARM.exidx*)
 .ARM.exidx     0x0800b27c        0x8 c:/program files (x86)/gnu arm embedded toolchain/10 2021.10/bin/../lib/gcc/arm-none-eabi/10.3.1/thumb/v7e-m+fp/hard\libgcc.a(_udivmoddi4.o)
                0x0800b284                __exidx_end = .
                0x0800b284                . = ALIGN (0x4)

.rel.dyn        0x0800b284        0x0
 .rel.iplt      0x0800b284        0x0 c:/program files (x86)/gnu arm embedded toolchain/10 2021.10/bin/../lib/gcc/arm-none-eabi/10.3.1/thumb/v7e-m+fp/hard/crtbegin.o

.preinit_array  0x0800b284        0x0
                0x0800b284                . = ALIGN (0x4)
                0x0800b284                PROVIDE (__preinit_array_start = .)
 *(.preinit_array*)
                0x0800b284                PROVIDE (__preinit_array_end = .)
                0x0800b284                . = ALIGN (0x4)

.init_array     0x0800b284        0x8
                0x0800b284                . = ALIGN (0x4)
                0x0800b284                PROVIDE (__init_array_start = .)
 *(SORT_BY_NAME(.init_array.*))
 *(.init_array*)
 .init_array    0x0800b284        0x4 c:/program files (x86)/gnu arm embedded toolchain/10 2021.10/bin/../lib/gcc/arm-none-eabi/10.3.1/thumb/v7e-m+fp/hard/crtbegin.o
 .init_array    0x0800b288        0x4 build/main.o
                0x0800b28c                PROVIDE (__init_array_end = .)
                0x0800b28c                . = ALIGN (0x4)

.fini_array     0x0800b28c        0x4
                0x0800b28c                . = ALIGN (0x4)
                [!provide]                PROVIDE (__fini_array_start = .)
 *(SORT_BY_NAME(.fini_array.*))
 *(.fini_array*)
 .fini_array    0x0800b28c        0x4 c:/program files (x86)/gnu arm embedded toolchain/10 2021.10/bin/../lib/gcc/arm-none-eabi/10.3.1/thumb/v7e-m+fp/hard/crtbegin.o
                [!provide]                PROVIDE (__fini_array_end = .)
                0x0800b290                . = ALIGN (0x4)
                0x0800b290                _sidata = LOADADDR (.data)

.data           0x20000000      0x198 load address 0x0800b290
                0x20000000                . = ALIGN (0x4)
                0x20000000                _sdata = .
 *(.data)
 .data          0x20000000        0x4 c:/program files (x86)/gnu arm embedded toolchain/10 2021.10/bin/../lib/gcc/arm-none-eabi/10.3.1/thumb/v7e-m+fp/hard/crtbegin.o
                0x20000000                __dso_handle
 *(.data*)
 .data.A0       0x20000004        0x2 build/Darin3Cart_Driver.o
                0x20000004                A0
 .data.A1       0x20000006        0x2 build/Darin3Cart_Driver.o
                0x20000006                A1
 .data.A2       0x20000008        0x2 build/Darin3Cart_Driver.o
                0x20000008                A2
 .data.A3       0x2000000a        0x2 build/Darin3Cart_Driver.o
                0x2000000a                A3
 .data.CD2_SLT  0x2000000c        0x8 build/Darin3Cart_Driver.o
                0x2000000c                CD2_SLT
 .data.CF_CE    0x20000014        0x8 build/Darin3Cart_Driver.o
                0x20000014                CF_CE
 .data.CF_OE    0x2000001c        0x2 build/Darin3Cart_Driver.o
                0x2000001c                CF_OE
 .data.CF_RST   0x2000001e        0x2 build/Darin3Cart_Driver.o
                0x2000001e                CF_RST
 .data.CF_WE    0x20000020        0x2 build/Darin3Cart_Driver.o
                0x20000020                CF_WE
 .data.M_D0     0x20000022        0x2 build/Darin3Cart_Driver.o
                0x20000022                M_D0
 .data.M_D1     0x20000024        0x2 build/Darin3Cart_Driver.o
                0x20000024                M_D1
 .data.M_D2     0x20000026        0x2 build/Darin3Cart_Driver.o
                0x20000026                M_D2
 .data.M_D3     0x20000028        0x2 build/Darin3Cart_Driver.o
                0x20000028                M_D3
 .data.M_D4     0x2000002a        0x2 build/Darin3Cart_Driver.o
                0x2000002a                M_D4
 .data.M_D5     0x2000002c        0x2 build/Darin3Cart_Driver.o
                0x2000002c                M_D5
 .data.M_D6     0x2000002e        0x2 build/Darin3Cart_Driver.o
                0x2000002e                M_D6
 .data.M_D7     0x20000030        0x2 build/Darin3Cart_Driver.o
                0x20000030                M_D7
 *fill*         0x20000032        0x2 
 .data.SLT_STATUS
                0x20000034        0x4 build/Darin3Cart_Driver.o
 .data.FS_Desc  0x20000038       0x1c build/usbd_desc.o
                0x20000038                FS_Desc
 .data.USBD_FS_DeviceDesc
                0x20000054       0x12 build/usbd_desc.o
                0x20000054                USBD_FS_DeviceDesc
 *fill*         0x20000066        0x2 
 .data.USBD_LangIDDesc
                0x20000068        0x4 build/usbd_desc.o
                0x20000068                USBD_LangIDDesc
 .data.USBD_StringSerial
                0x2000006c       0x1a build/usbd_desc.o
                0x2000006c                USBD_StringSerial
 *fill*         0x20000086        0x2 
 .data.USBD_Interface_fops_FS
                0x20000088       0x14 build/usbd_cdc_if.o
                0x20000088                USBD_Interface_fops_FS
 .data.uwTickFreq
                0x2000009c        0x1 build/stm32f4xx_hal.o
                0x2000009c                uwTickFreq
 *fill*         0x2000009d        0x3 
 .data.uwTickPrio
                0x200000a0        0x4 build/stm32f4xx_hal.o
                0x200000a0                uwTickPrio
 .data.SystemCoreClock
                0x200000a4        0x4 build/system_stm32f4xx.o
                0x200000a4                SystemCoreClock
 .data.USBD_CDC
                0x200000a8       0x38 build/usbd_cdc.o
                0x200000a8                USBD_CDC
 .data.USBD_CDC_CfgDesc
                0x200000e0       0x43 build/usbd_cdc.o
 *fill*         0x20000123        0x1 
 .data.USBD_CDC_DeviceQualifierDesc
                0x20000124        0xa build/usbd_cdc.o
 .data.last_initialized_cart
                0x2000012e        0x1 build/diskio.o
 *fill*         0x2000012f        0x1 
 .data.usbTransport
                0x20000130        0x4 build/main.o
                0x20000130                usbTransport
 .data._impure_ptr
                0x20000134        0x4 c:/program files (x86)/gnu arm embedded toolchain/10 2021.10/bin/../lib/gcc/arm-none-eabi/10.3.1/../../../../arm-none-eabi/lib/thumb/v7e-m+fp/hard\libc_nano.a(lib_a-impure.o)
                0x20000134                _impure_ptr
 .data.impure_data
                0x20000138       0x60 c:/program files (x86)/gnu arm embedded toolchain/10 2021.10/bin/../lib/gcc/arm-none-eabi/10.3.1/../../../../arm-none-eabi/lib/thumb/v7e-m+fp/hard\libc_nano.a(lib_a-impure.o)
 *(.RamFunc)
 *(.RamFunc*)
                0x20000198                . = ALIGN (0x4)
                0x20000198                _edata = .

.igot.plt       0x20000198        0x0 load address 0x0800b428
 .igot.plt      0x20000198        0x0 c:/program files (x86)/gnu arm embedded toolchain/10 2021.10/bin/../lib/gcc/arm-none-eabi/10.3.1/thumb/v7e-m+fp/hard/crtbegin.o
                0x20000198                . = ALIGN (0x4)

.bss            0x20000198     0x2f8c load address 0x0800b428
                0x20000198                _sbss = .
                0x20000198                __bss_start__ = _sbss
 *(.bss)
 .bss           0x20000198       0x1c c:/program files (x86)/gnu arm embedded toolchain/10 2021.10/bin/../lib/gcc/arm-none-eabi/10.3.1/thumb/v7e-m+fp/hard/crtbegin.o
 *(.bss*)
 .bss.hUsbDeviceFS
                0x200001b4      0x2dc build/usb_device.o
                0x200001b4                hUsbDeviceFS
 .bss.USBD_StrDesc
                0x20000490      0x200 build/usbd_desc.o
                0x20000490                USBD_StrDesc
 .bss.UserRxBufferFS
                0x20000690      0x800 build/usbd_cdc_if.o
                0x20000690                UserRxBufferFS
 .bss.UserTxBufferFS
                0x20000e90      0x800 build/usbd_cdc_if.o
                0x20000e90                UserTxBufferFS
 .bss.hpcd_USB_OTG_FS
                0x20001690      0x4e4 build/usbd_conf.o
                0x20001690                hpcd_USB_OTG_FS
 .bss.mem.0     0x20001b74      0x220 build/usbd_conf.o
 .bss.uwTick    0x20001d94        0x4 build/stm32f4xx_hal.o
                0x20001d94                uwTick
 .bss.cfgidx.0  0x20001d98        0x1 build/usbd_ctlreq.o
 *fill*         0x20001d99        0x3 
 .bss.__sbrk_heap_end
                0x20001d9c        0x4 build/sysmem.o
 .bss.disk_initialized
                0x20001da0        0x4 build/diskio.o
 .bss.m_CartId  0x20001da4        0x1 build/diskio.o
                0x20001da4                m_CartId
 *fill*         0x20001da5        0x3 
 .bss.FatFs     0x20001da8        0x4 build/ff.o
 .bss.Fsid      0x20001dac        0x2 build/ff.o
 *fill*         0x20001dae        0x2 
 .bss._ZGVZN12FatFsWrapper11getInstanceEvE8instance
                0x20001db0        0x4 build/main.o
                0x20001db0                guard variable for FatFsWrapper::getInstance()::instance
 .bss._ZZN12FatFsWrapper11getInstanceEvE8instance
                0x20001db4      0x238 build/main.o
                0x20001db4                FatFsWrapper::getInstance()::instance
 .bss.IspCtrl   0x20001fec       0xd0 build/main.o
                0x20001fec                IspCtrl
 .bss.IspManager
                0x200020bc       0x24 build/main.o
                0x200020bc                IspManager
 .bss.IspRx     0x200020e0       0x1c build/main.o
                0x200020e0                IspRx
 .bss.IspTx     0x200020fc       0x64 build/main.o
                0x200020fc                IspTx
 .bss._ZGVZ4mainE12eraseHandler
                0x20002160        0x4 build/main.o
 .bss._ZGVZ4mainE13formatHandler
                0x20002164        0x4 build/main.o
 .bss._ZGVZ4mainE13redLedHandler
                0x20002168        0x4 build/main.o
 .bss._ZGVZ4mainE14boardIdHandler
                0x2000216c        0x4 build/main.o
 .bss._ZGVZ4mainE15greenLedHandler
                0x20002170        0x4 build/main.o
 .bss._ZGVZ4mainE17cartStatusHandler
                0x20002174        0x4 build/main.o
 .bss._ZGVZ4mainE17guiCtrlLedHandler
                0x20002178        0x4 build/main.o
 .bss._ZGVZ4mainE17powerCycleHandler
                0x2000217c        0x4 build/main.o
 .bss._ZGVZ4mainE18blinkAllLedHandler
                0x20002180        0x4 build/main.o
 .bss._ZGVZ4mainE19loopbackTestHandler
                0x20002184        0x4 build/main.o
 .bss._ZGVZ4mainE19slotLedBlinkHandler
                0x20002188        0x4 build/main.o
 .bss._ZGVZ4mainE22firmwareVersionHandler
                0x2000218c        0x4 build/main.o
 .bss._ZGVZ4mainE9darin3Obj
                0x20002190        0x4 build/main.o
 .bss._ZZ4mainE12eraseHandler
                0x20002194        0x4 build/main.o
 .bss._ZZ4mainE13formatHandler
                0x20002198        0x4 build/main.o
 .bss._ZZ4mainE13redLedHandler
                0x2000219c        0x4 build/main.o
 .bss._ZZ4mainE14boardIdHandler
                0x200021a0        0x4 build/main.o
 .bss._ZZ4mainE15greenLedHandler
                0x200021a4        0x4 build/main.o
 .bss._ZZ4mainE17cartStatusHandler
                0x200021a8        0x4 build/main.o
 .bss._ZZ4mainE17guiCtrlLedHandler
                0x200021ac        0x4 build/main.o
 .bss._ZZ4mainE17powerCycleHandler
                0x200021b0        0x4 build/main.o
 .bss._ZZ4mainE18blinkAllLedHandler
                0x200021b4        0x4 build/main.o
 .bss._ZZ4mainE19loopbackTestHandler
                0x200021b8        0x4 build/main.o
 .bss._ZZ4mainE19slotLedBlinkHandler
                0x200021bc        0x4 build/main.o
 .bss._ZZ4mainE22firmwareVersionHandler
                0x200021c0        0x4 build/main.o
 .bss._ZZ4mainE9darin3Obj
                0x200021c4      0x480 build/main.o
 .bss.subcmdProcess
                0x20002644       0xc4 build/main.o
                0x20002644                subcmdProcess
 .bss._ZZN12FatFsWrapper6formatEPKchjE4work
                0x20002708      0x200 build/FatFsWrapperSingleton.o
 .bss._ZN24GuiCtrlLed_SubCmdProcess14LED_CTRL_STATEE
                0x20002908        0x1 build/Darin3.o
                0x20002908                GuiCtrlLed_SubCmdProcess::LED_CTRL_STATE
 *fill*         0x20002909        0x3 
 .bss._ZZN6Darin313processRxDataEPKhhmE10chunkCount
                0x2000290c        0x4 build/Darin3.o
 .bss._ZZN6Darin313processRxDataEPKhhmE12totalWritten
                0x20002910        0x4 build/Darin3.o
 .bss.rxBuffer  0x20002914      0x3ff build/safeBuffer.o
                0x20002914                rxBuffer
 *fill*         0x20002d13        0x1 
 .bss.txBuffer  0x20002d14      0x3ff build/safeBuffer.o
                0x20002d14                txBuffer
 *fill*         0x20003113        0x1 
 .bss.__malloc_free_list
                0x20003114        0x4 c:/program files (x86)/gnu arm embedded toolchain/10 2021.10/bin/../lib/gcc/arm-none-eabi/10.3.1/../../../../arm-none-eabi/lib/thumb/v7e-m+fp/hard\libc_nano.a(lib_a-nano-mallocr.o)
                0x20003114                __malloc_free_list
 .bss.__malloc_sbrk_start
                0x20003118        0x4 c:/program files (x86)/gnu arm embedded toolchain/10 2021.10/bin/../lib/gcc/arm-none-eabi/10.3.1/../../../../arm-none-eabi/lib/thumb/v7e-m+fp/hard\libc_nano.a(lib_a-nano-mallocr.o)
                0x20003118                __malloc_sbrk_start
 .bss.__lock___malloc_recursive_mutex
                0x2000311c        0x1 c:/program files (x86)/gnu arm embedded toolchain/10 2021.10/bin/../lib/gcc/arm-none-eabi/10.3.1/../../../../arm-none-eabi/lib/thumb/v7e-m+fp/hard\libc_nano.a(lib_a-lock.o)
                0x2000311c                __lock___malloc_recursive_mutex
 .bss.__lock___sfp_recursive_mutex
                0x2000311d        0x1 c:/program files (x86)/gnu arm embedded toolchain/10 2021.10/bin/../lib/gcc/arm-none-eabi/10.3.1/../../../../arm-none-eabi/lib/thumb/v7e-m+fp/hard\libc_nano.a(lib_a-lock.o)
                0x2000311d                __lock___sfp_recursive_mutex
 .bss.__lock___sinit_recursive_mutex
                0x2000311e        0x1 c:/program files (x86)/gnu arm embedded toolchain/10 2021.10/bin/../lib/gcc/arm-none-eabi/10.3.1/../../../../arm-none-eabi/lib/thumb/v7e-m+fp/hard\libc_nano.a(lib_a-lock.o)
                0x2000311e                __lock___sinit_recursive_mutex
 *fill*         0x2000311f        0x1 
 .bss.errno     0x20003120        0x4 c:/program files (x86)/gnu arm embedded toolchain/10 2021.10/bin/../lib/gcc/arm-none-eabi/10.3.1/../../../../arm-none-eabi/lib/thumb/v7e-m+fp/hard\libc_nano.a(lib_a-reent.o)
                0x20003120                errno
 *(COMMON)
                0x20003124                . = ALIGN (0x4)
                0x20003124                _ebss = .
                0x20003124                __bss_end__ = _ebss

._user_heap_stack
                0x20003124      0x604 load address 0x0800b428
                0x20003128                . = ALIGN (0x8)
 *fill*         0x20003124        0x4 
                [!provide]                PROVIDE (end = .)
                0x20003128                PROVIDE (_end = .)
                0x20003328                . = (. + _Min_Heap_Size)
 *fill*         0x20003128      0x200 
                0x20003728                . = (. + _Min_Stack_Size)
 *fill*         0x20003328      0x400 
                0x20003728                . = ALIGN (0x8)

/DISCARD/
 libc.a(*)
 libm.a(*)
 libgcc.a(*)
OUTPUT(build/D3_DPS_4IN1_V1_0.elf elf32-littlearm)
LOAD linker stubs
LOAD c:/program files (x86)/gnu arm embedded toolchain/10 2021.10/bin/../lib/gcc/arm-none-eabi/10.3.1/../../../../arm-none-eabi/lib/thumb/v7e-m+fp/hard\libc.a
LOAD c:/program files (x86)/gnu arm embedded toolchain/10 2021.10/bin/../lib/gcc/arm-none-eabi/10.3.1/../../../../arm-none-eabi/lib/thumb/v7e-m+fp/hard\libm.a
LOAD c:/program files (x86)/gnu arm embedded toolchain/10 2021.10/bin/../lib/gcc/arm-none-eabi/10.3.1/thumb/v7e-m+fp/hard\libgcc.a

.ARM.attributes
                0x00000000       0x30
 .ARM.attributes
                0x00000000       0x1e c:/program files (x86)/gnu arm embedded toolchain/10 2021.10/bin/../lib/gcc/arm-none-eabi/10.3.1/thumb/v7e-m+fp/hard/crti.o
 .ARM.attributes
                0x0000001e       0x34 c:/program files (x86)/gnu arm embedded toolchain/10 2021.10/bin/../lib/gcc/arm-none-eabi/10.3.1/thumb/v7e-m+fp/hard/crtbegin.o
 .ARM.attributes
                0x00000052       0x34 build/stm32f4xx_it.o
 .ARM.attributes
                0x00000086       0x34 build/stm32f4xx_hal_msp.o
 .ARM.attributes
                0x000000ba       0x34 build/Darin3Cart_Driver.o
 .ARM.attributes
                0x000000ee       0x34 build/usb_device.o
 .ARM.attributes
                0x00000122       0x34 build/usbd_desc.o
 .ARM.attributes
                0x00000156       0x34 build/usbd_cdc_if.o
 .ARM.attributes
                0x0000018a       0x34 build/usbd_conf.o
 .ARM.attributes
                0x000001be       0x34 build/stm32f4xx_hal_pcd.o
 .ARM.attributes
                0x000001f2       0x34 build/stm32f4xx_hal_pcd_ex.o
 .ARM.attributes
                0x00000226       0x34 build/stm32f4xx_ll_usb.o
 .ARM.attributes
                0x0000025a       0x34 build/stm32f4xx_hal_rcc.o
 .ARM.attributes
                0x0000028e       0x34 build/stm32f4xx_hal_gpio.o
 .ARM.attributes
                0x000002c2       0x34 build/stm32f4xx_hal_cortex.o
 .ARM.attributes
                0x000002f6       0x34 build/stm32f4xx_hal.o
 .ARM.attributes
                0x0000032a       0x34 build/system_stm32f4xx.o
 .ARM.attributes
                0x0000035e       0x34 build/usbd_core.o
 .ARM.attributes
                0x00000392       0x34 build/usbd_ctlreq.o
 .ARM.attributes
                0x000003c6       0x34 build/usbd_ioreq.o
 .ARM.attributes
                0x000003fa       0x34 build/usbd_cdc.o
 .ARM.attributes
                0x0000042e       0x34 build/sysmem.o
 .ARM.attributes
                0x00000462       0x34 build/syscalls.o
 .ARM.attributes
                0x00000496       0x34 build/diskio.o
 .ARM.attributes
                0x000004ca       0x34 build/ff.o
 .ARM.attributes
                0x000004fe       0x34 build/main.o
 .ARM.attributes
                0x00000532       0x34 build/cpp_minimal.o
 .ARM.attributes
                0x00000566       0x34 build/FatFsWrapperSingleton.o
 .ARM.attributes
                0x0000059a       0x34 build/Darin3.o
 .ARM.attributes
                0x000005ce       0x34 build/SerialTransport.o
 .ARM.attributes
                0x00000602       0x34 build/IspCmdControl.o
 .ARM.attributes
                0x00000636       0x34 build/IspCmdReceiveData.o
 .ARM.attributes
                0x0000066a       0x34 build/IspCmdTransmitData.o
 .ARM.attributes
                0x0000069e       0x34 build/IspCommandManager.o
 .ARM.attributes
                0x000006d2       0x34 build/IspSubCommandProcessor.o
 .ARM.attributes
                0x00000706       0x34 build/safeBuffer.o
 .ARM.attributes
                0x0000073a       0x21 build/startup_stm32f411xe.o
 .ARM.attributes
                0x0000075b       0x34 c:/program files (x86)/gnu arm embedded toolchain/10 2021.10/bin/../lib/gcc/arm-none-eabi/10.3.1/../../../../arm-none-eabi/lib/thumb/v7e-m+fp/hard\libc_nano.a(lib_a-aeabi_atexit.o)
 .ARM.attributes
                0x0000078f       0x34 c:/program files (x86)/gnu arm embedded toolchain/10 2021.10/bin/../lib/gcc/arm-none-eabi/10.3.1/../../../../arm-none-eabi/lib/thumb/v7e-m+fp/hard\libc_nano.a(lib_a-cxa_atexit.o)
 .ARM.attributes
                0x000007c3       0x34 c:/program files (x86)/gnu arm embedded toolchain/10 2021.10/bin/../lib/gcc/arm-none-eabi/10.3.1/../../../../arm-none-eabi/lib/thumb/v7e-m+fp/hard\libc_nano.a(lib_a-errno.o)
 .ARM.attributes
                0x000007f7       0x34 c:/program files (x86)/gnu arm embedded toolchain/10 2021.10/bin/../lib/gcc/arm-none-eabi/10.3.1/../../../../arm-none-eabi/lib/thumb/v7e-m+fp/hard\libc_nano.a(lib_a-impure.o)
 .ARM.attributes
                0x0000082b       0x34 c:/program files (x86)/gnu arm embedded toolchain/10 2021.10/bin/../lib/gcc/arm-none-eabi/10.3.1/../../../../arm-none-eabi/lib/thumb/v7e-m+fp/hard\libc_nano.a(lib_a-init.o)
 .ARM.attributes
                0x0000085f       0x34 c:/program files (x86)/gnu arm embedded toolchain/10 2021.10/bin/../lib/gcc/arm-none-eabi/10.3.1/../../../../arm-none-eabi/lib/thumb/v7e-m+fp/hard\libc_nano.a(lib_a-malloc.o)
 .ARM.attributes
                0x00000893       0x34 c:/program files (x86)/gnu arm embedded toolchain/10 2021.10/bin/../lib/gcc/arm-none-eabi/10.3.1/../../../../arm-none-eabi/lib/thumb/v7e-m+fp/hard\libc_nano.a(lib_a-memcmp.o)
 .ARM.attributes
                0x000008c7       0x34 c:/program files (x86)/gnu arm embedded toolchain/10 2021.10/bin/../lib/gcc/arm-none-eabi/10.3.1/../../../../arm-none-eabi/lib/thumb/v7e-m+fp/hard\libc_nano.a(lib_a-memcpy-stub.o)
 .ARM.attributes
                0x000008fb       0x34 c:/program files (x86)/gnu arm embedded toolchain/10 2021.10/bin/../lib/gcc/arm-none-eabi/10.3.1/../../../../arm-none-eabi/lib/thumb/v7e-m+fp/hard\libc_nano.a(lib_a-memmove.o)
 .ARM.attributes
                0x0000092f       0x34 c:/program files (x86)/gnu arm embedded toolchain/10 2021.10/bin/../lib/gcc/arm-none-eabi/10.3.1/../../../../arm-none-eabi/lib/thumb/v7e-m+fp/hard\libc_nano.a(lib_a-memset.o)
 .ARM.attributes
                0x00000963       0x34 c:/program files (x86)/gnu arm embedded toolchain/10 2021.10/bin/../lib/gcc/arm-none-eabi/10.3.1/../../../../arm-none-eabi/lib/thumb/v7e-m+fp/hard\libc_nano.a(lib_a-nano-freer.o)
 .ARM.attributes
                0x00000997       0x34 c:/program files (x86)/gnu arm embedded toolchain/10 2021.10/bin/../lib/gcc/arm-none-eabi/10.3.1/../../../../arm-none-eabi/lib/thumb/v7e-m+fp/hard\libc_nano.a(lib_a-nano-mallocr.o)
 .ARM.attributes
                0x000009cb       0x34 c:/program files (x86)/gnu arm embedded toolchain/10 2021.10/bin/../lib/gcc/arm-none-eabi/10.3.1/../../../../arm-none-eabi/lib/thumb/v7e-m+fp/hard\libc_nano.a(lib_a-printf.o)
 .ARM.attributes
                0x000009ff       0x34 c:/program files (x86)/gnu arm embedded toolchain/10 2021.10/bin/../lib/gcc/arm-none-eabi/10.3.1/../../../../arm-none-eabi/lib/thumb/v7e-m+fp/hard\libc_nano.a(lib_a-sbrkr.o)
 .ARM.attributes
                0x00000a33       0x34 c:/program files (x86)/gnu arm embedded toolchain/10 2021.10/bin/../lib/gcc/arm-none-eabi/10.3.1/../../../../arm-none-eabi/lib/thumb/v7e-m+fp/hard\libc_nano.a(lib_a-snprintf.o)
 .ARM.attributes
                0x00000a67       0x34 c:/program files (x86)/gnu arm embedded toolchain/10 2021.10/bin/../lib/gcc/arm-none-eabi/10.3.1/../../../../arm-none-eabi/lib/thumb/v7e-m+fp/hard\libc_nano.a(lib_a-strchr.o)
 .ARM.attributes
                0x00000a9b       0x1c c:/program files (x86)/gnu arm embedded toolchain/10 2021.10/bin/../lib/gcc/arm-none-eabi/10.3.1/../../../../arm-none-eabi/lib/thumb/v7e-m+fp/hard\libc_nano.a(lib_a-strcmp.o)
 .ARM.attributes
                0x00000ab7       0x34 c:/program files (x86)/gnu arm embedded toolchain/10 2021.10/bin/../lib/gcc/arm-none-eabi/10.3.1/../../../../arm-none-eabi/lib/thumb/v7e-m+fp/hard\libc_nano.a(lib_a-strncpy.o)
 .ARM.attributes
                0x00000aeb       0x34 c:/program files (x86)/gnu arm embedded toolchain/10 2021.10/bin/../lib/gcc/arm-none-eabi/10.3.1/../../../../arm-none-eabi/lib/thumb/v7e-m+fp/hard\libc_nano.a(lib_a-findfp.o)
 .ARM.attributes
                0x00000b1f       0x34 c:/program files (x86)/gnu arm embedded toolchain/10 2021.10/bin/../lib/gcc/arm-none-eabi/10.3.1/../../../../arm-none-eabi/lib/thumb/v7e-m+fp/hard\libc_nano.a(lib_a-fwalk.o)
 .ARM.attributes
                0x00000b53       0x34 c:/program files (x86)/gnu arm embedded toolchain/10 2021.10/bin/../lib/gcc/arm-none-eabi/10.3.1/../../../../arm-none-eabi/lib/thumb/v7e-m+fp/hard\libc_nano.a(lib_a-lock.o)
 .ARM.attributes
                0x00000b87       0x34 c:/program files (x86)/gnu arm embedded toolchain/10 2021.10/bin/../lib/gcc/arm-none-eabi/10.3.1/../../../../arm-none-eabi/lib/thumb/v7e-m+fp/hard\libc_nano.a(lib_a-mlock.o)
 .ARM.attributes
                0x00000bbb       0x34 c:/program files (x86)/gnu arm embedded toolchain/10 2021.10/bin/../lib/gcc/arm-none-eabi/10.3.1/../../../../arm-none-eabi/lib/thumb/v7e-m+fp/hard\libc_nano.a(lib_a-nano-svfprintf.o)
 .ARM.attributes
                0x00000bef       0x34 c:/program files (x86)/gnu arm embedded toolchain/10 2021.10/bin/../lib/gcc/arm-none-eabi/10.3.1/../../../../arm-none-eabi/lib/thumb/v7e-m+fp/hard\libc_nano.a(lib_a-nano-vfprintf.o)
 .ARM.attributes
                0x00000c23       0x34 c:/program files (x86)/gnu arm embedded toolchain/10 2021.10/bin/../lib/gcc/arm-none-eabi/10.3.1/../../../../arm-none-eabi/lib/thumb/v7e-m+fp/hard\libc_nano.a(lib_a-nano-vfprintf_i.o)
 .ARM.attributes
                0x00000c57       0x34 c:/program files (x86)/gnu arm embedded toolchain/10 2021.10/bin/../lib/gcc/arm-none-eabi/10.3.1/../../../../arm-none-eabi/lib/thumb/v7e-m+fp/hard\libc_nano.a(lib_a-reent.o)
 .ARM.attributes
                0x00000c8b       0x34 c:/program files (x86)/gnu arm embedded toolchain/10 2021.10/bin/../lib/gcc/arm-none-eabi/10.3.1/../../../../arm-none-eabi/lib/thumb/v7e-m+fp/hard\libc_nano.a(lib_a-stdio.o)
 .ARM.attributes
                0x00000cbf       0x34 c:/program files (x86)/gnu arm embedded toolchain/10 2021.10/bin/../lib/gcc/arm-none-eabi/10.3.1/../../../../arm-none-eabi/lib/thumb/v7e-m+fp/hard\libc_nano.a(lib_a-wbuf.o)
 .ARM.attributes
                0x00000cf3       0x34 c:/program files (x86)/gnu arm embedded toolchain/10 2021.10/bin/../lib/gcc/arm-none-eabi/10.3.1/../../../../arm-none-eabi/lib/thumb/v7e-m+fp/hard\libc_nano.a(lib_a-writer.o)
 .ARM.attributes
                0x00000d27       0x34 c:/program files (x86)/gnu arm embedded toolchain/10 2021.10/bin/../lib/gcc/arm-none-eabi/10.3.1/../../../../arm-none-eabi/lib/thumb/v7e-m+fp/hard\libc_nano.a(lib_a-wsetup.o)
 .ARM.attributes
                0x00000d5b       0x34 c:/program files (x86)/gnu arm embedded toolchain/10 2021.10/bin/../lib/gcc/arm-none-eabi/10.3.1/../../../../arm-none-eabi/lib/thumb/v7e-m+fp/hard\libc_nano.a(lib_a-closer.o)
 .ARM.attributes
                0x00000d8f       0x34 c:/program files (x86)/gnu arm embedded toolchain/10 2021.10/bin/../lib/gcc/arm-none-eabi/10.3.1/../../../../arm-none-eabi/lib/thumb/v7e-m+fp/hard\libc_nano.a(lib_a-fflush.o)
 .ARM.attributes
                0x00000dc3       0x34 c:/program files (x86)/gnu arm embedded toolchain/10 2021.10/bin/../lib/gcc/arm-none-eabi/10.3.1/../../../../arm-none-eabi/lib/thumb/v7e-m+fp/hard\libc_nano.a(lib_a-lseekr.o)
 .ARM.attributes
                0x00000df7       0x34 c:/program files (x86)/gnu arm embedded toolchain/10 2021.10/bin/../lib/gcc/arm-none-eabi/10.3.1/../../../../arm-none-eabi/lib/thumb/v7e-m+fp/hard\libc_nano.a(lib_a-makebuf.o)
 .ARM.attributes
                0x00000e2b       0x1c c:/program files (x86)/gnu arm embedded toolchain/10 2021.10/bin/../lib/gcc/arm-none-eabi/10.3.1/../../../../arm-none-eabi/lib/thumb/v7e-m+fp/hard\libc_nano.a(lib_a-memchr.o)
 .ARM.attributes
                0x00000e47       0x34 c:/program files (x86)/gnu arm embedded toolchain/10 2021.10/bin/../lib/gcc/arm-none-eabi/10.3.1/../../../../arm-none-eabi/lib/thumb/v7e-m+fp/hard\libc_nano.a(lib_a-nano-reallocr.o)
 .ARM.attributes
                0x00000e7b       0x34 c:/program files (x86)/gnu arm embedded toolchain/10 2021.10/bin/../lib/gcc/arm-none-eabi/10.3.1/../../../../arm-none-eabi/lib/thumb/v7e-m+fp/hard\libc_nano.a(lib_a-readr.o)
 .ARM.attributes
                0x00000eaf       0x34 c:/program files (x86)/gnu arm embedded toolchain/10 2021.10/bin/../lib/gcc/arm-none-eabi/10.3.1/../../../../arm-none-eabi/lib/thumb/v7e-m+fp/hard\libc_nano.a(lib_a-fstatr.o)
 .ARM.attributes
                0x00000ee3       0x34 c:/program files (x86)/gnu arm embedded toolchain/10 2021.10/bin/../lib/gcc/arm-none-eabi/10.3.1/../../../../arm-none-eabi/lib/thumb/v7e-m+fp/hard\libc_nano.a(lib_a-isattyr.o)
 .ARM.attributes
                0x00000f17       0x34 c:/program files (x86)/gnu arm embedded toolchain/10 2021.10/bin/../lib/gcc/arm-none-eabi/10.3.1/../../../../arm-none-eabi/lib/thumb/v7e-m+fp/hard\libc_nano.a(lib_a-nano-msizer.o)
 .ARM.attributes
                0x00000f4b       0x1e c:/program files (x86)/gnu arm embedded toolchain/10 2021.10/bin/../lib/gcc/arm-none-eabi/10.3.1/thumb/v7e-m+fp/hard\libgcc.a(_aeabi_uldivmod.o)
 .ARM.attributes
                0x00000f69       0x34 c:/program files (x86)/gnu arm embedded toolchain/10 2021.10/bin/../lib/gcc/arm-none-eabi/10.3.1/thumb/v7e-m+fp/hard\libgcc.a(_udivmoddi4.o)
 .ARM.attributes
                0x00000f9d       0x1e c:/program files (x86)/gnu arm embedded toolchain/10 2021.10/bin/../lib/gcc/arm-none-eabi/10.3.1/thumb/v7e-m+fp/hard\libgcc.a(_dvmd_tls.o)
 .ARM.attributes
                0x00000fbb       0x1e c:/program files (x86)/gnu arm embedded toolchain/10 2021.10/bin/../lib/gcc/arm-none-eabi/10.3.1/thumb/v7e-m+fp/hard/crtn.o

.comment        0x00000000       0x49
 .comment       0x00000000       0x49 build/stm32f4xx_it.o
                                 0x4a (size before relaxing)
 .comment       0x00000049       0x4a build/stm32f4xx_hal_msp.o
 .comment       0x00000049       0x4a build/Darin3Cart_Driver.o
 .comment       0x00000049       0x4a build/usb_device.o
 .comment       0x00000049       0x4a build/usbd_desc.o
 .comment       0x00000049       0x4a build/usbd_cdc_if.o
 .comment       0x00000049       0x4a build/usbd_conf.o
 .comment       0x00000049       0x4a build/stm32f4xx_hal_pcd.o
 .comment       0x00000049       0x4a build/stm32f4xx_hal_pcd_ex.o
 .comment       0x00000049       0x4a build/stm32f4xx_ll_usb.o
 .comment       0x00000049       0x4a build/stm32f4xx_hal_rcc.o
 .comment       0x00000049       0x4a build/stm32f4xx_hal_gpio.o
 .comment       0x00000049       0x4a build/stm32f4xx_hal_cortex.o
 .comment       0x00000049       0x4a build/stm32f4xx_hal.o
 .comment       0x00000049       0x4a build/system_stm32f4xx.o
 .comment       0x00000049       0x4a build/usbd_core.o
 .comment       0x00000049       0x4a build/usbd_ctlreq.o
 .comment       0x00000049       0x4a build/usbd_ioreq.o
 .comment       0x00000049       0x4a build/usbd_cdc.o
 .comment       0x00000049       0x4a build/sysmem.o
 .comment       0x00000049       0x4a build/syscalls.o
 .comment       0x00000049       0x4a build/diskio.o
 .comment       0x00000049       0x4a build/ff.o
 .comment       0x00000049       0x4a build/main.o
 .comment       0x00000049       0x4a build/cpp_minimal.o
 .comment       0x00000049       0x4a build/FatFsWrapperSingleton.o
 .comment       0x00000049       0x4a build/Darin3.o
 .comment       0x00000049       0x4a build/SerialTransport.o
 .comment       0x00000049       0x4a build/IspCmdControl.o
 .comment       0x00000049       0x4a build/IspCmdReceiveData.o
 .comment       0x00000049       0x4a build/IspCmdTransmitData.o
 .comment       0x00000049       0x4a build/IspCommandManager.o
 .comment       0x00000049       0x4a build/IspSubCommandProcessor.o
 .comment       0x00000049       0x4a build/safeBuffer.o

.debug_info     0x00000000    0x33b9c
 .debug_info    0x00000000      0x724 build/stm32f4xx_it.o
 .debug_info    0x00000724      0x31d build/stm32f4xx_hal_msp.o
 .debug_info    0x00000a41     0x6200 build/Darin3Cart_Driver.o
 .debug_info    0x00006c41      0x852 build/usb_device.o
 .debug_info    0x00007493      0x643 build/usbd_desc.o
 .debug_info    0x00007ad6      0xada build/usbd_cdc_if.o
 .debug_info    0x000085b0     0x2172 build/usbd_conf.o
 .debug_info    0x0000a722     0x1d0f build/stm32f4xx_hal_pcd.o
 .debug_info    0x0000c431      0x7cb build/stm32f4xx_hal_pcd_ex.o
 .debug_info    0x0000cbfc     0x220c build/stm32f4xx_ll_usb.o
 .debug_info    0x0000ee08      0xc29 build/stm32f4xx_hal_rcc.o
 .debug_info    0x0000fa31      0x872 build/stm32f4xx_hal_gpio.o
 .debug_info    0x000102a3     0x1136 build/stm32f4xx_hal_cortex.o
 .debug_info    0x000113d9      0xa66 build/stm32f4xx_hal.o
 .debug_info    0x00011e3f      0x5e5 build/system_stm32f4xx.o
 .debug_info    0x00012424     0x1354 build/usbd_core.o
 .debug_info    0x00013778     0x14d9 build/usbd_ctlreq.o
 .debug_info    0x00014c51      0x982 build/usbd_ioreq.o
 .debug_info    0x000155d3     0x187d build/usbd_cdc.o
 .debug_info    0x00016e50      0x185 build/sysmem.o
 .debug_info    0x00016fd5      0x835 build/syscalls.o
 .debug_info    0x0001780a     0x285d build/diskio.o
 .debug_info    0x0001a067     0x3ce1 build/ff.o
 .debug_info    0x0001dd48     0x724a build/main.o
 .debug_info    0x00024f92      0xc99 build/cpp_minimal.o
 .debug_info    0x00025c2b     0x1d99 build/FatFsWrapperSingleton.o
 .debug_info    0x000279c4     0x3ea2 build/Darin3.o
 .debug_info    0x0002b866      0xd88 build/SerialTransport.o
 .debug_info    0x0002c5ee     0x1271 build/IspCmdControl.o
 .debug_info    0x0002d85f     0x20bd build/IspCmdReceiveData.o
 .debug_info    0x0002f91c     0x1ba8 build/IspCmdTransmitData.o
 .debug_info    0x000314c4      0x797 build/IspCommandManager.o
 .debug_info    0x00031c5b     0x17bf build/IspSubCommandProcessor.o
 .debug_info    0x0003341a      0x760 build/safeBuffer.o
 .debug_info    0x00033b7a       0x22 build/startup_stm32f411xe.o

.debug_abbrev   0x00000000     0x70f6
 .debug_abbrev  0x00000000      0x17c build/stm32f4xx_it.o
 .debug_abbrev  0x0000017c       0xd3 build/stm32f4xx_hal_msp.o
 .debug_abbrev  0x0000024f      0x423 build/Darin3Cart_Driver.o
 .debug_abbrev  0x00000672      0x188 build/usb_device.o
 .debug_abbrev  0x000007fa      0x1eb build/usbd_desc.o
 .debug_abbrev  0x000009e5      0x2bb build/usbd_cdc_if.o
 .debug_abbrev  0x00000ca0      0x2eb build/usbd_conf.o
 .debug_abbrev  0x00000f8b      0x2d8 build/stm32f4xx_hal_pcd.o
 .debug_abbrev  0x00001263      0x1c5 build/stm32f4xx_hal_pcd_ex.o
 .debug_abbrev  0x00001428      0x300 build/stm32f4xx_ll_usb.o
 .debug_abbrev  0x00001728      0x2aa build/stm32f4xx_hal_rcc.o
 .debug_abbrev  0x000019d2      0x22b build/stm32f4xx_hal_gpio.o
 .debug_abbrev  0x00001bfd      0x379 build/stm32f4xx_hal_cortex.o
 .debug_abbrev  0x00001f76      0x23a build/stm32f4xx_hal.o
 .debug_abbrev  0x000021b0      0x11b build/system_stm32f4xx.o
 .debug_abbrev  0x000022cb      0x2b8 build/usbd_core.o
 .debug_abbrev  0x00002583      0x358 build/usbd_ctlreq.o
 .debug_abbrev  0x000028db      0x176 build/usbd_ioreq.o
 .debug_abbrev  0x00002a51      0x317 build/usbd_cdc.o
 .debug_abbrev  0x00002d68       0xea build/sysmem.o
 .debug_abbrev  0x00002e52      0x1c4 build/syscalls.o
 .debug_abbrev  0x00003016      0x338 build/diskio.o
 .debug_abbrev  0x0000334e      0x2c6 build/ff.o
 .debug_abbrev  0x00003614      0xa59 build/main.o
 .debug_abbrev  0x0000406d      0x319 build/cpp_minimal.o
 .debug_abbrev  0x00004386      0x4b4 build/FatFsWrapperSingleton.o
 .debug_abbrev  0x0000483a      0x842 build/Darin3.o
 .debug_abbrev  0x0000507c      0x435 build/SerialTransport.o
 .debug_abbrev  0x000054b1      0x5c8 build/IspCmdControl.o
 .debug_abbrev  0x00005a79      0x6c3 build/IspCmdReceiveData.o
 .debug_abbrev  0x0000613c      0x69e build/IspCmdTransmitData.o
 .debug_abbrev  0x000067da      0x2c2 build/IspCommandManager.o
 .debug_abbrev  0x00006a9c      0x4ba build/IspSubCommandProcessor.o
 .debug_abbrev  0x00006f56      0x18e build/safeBuffer.o
 .debug_abbrev  0x000070e4       0x12 build/startup_stm32f411xe.o

.debug_loc      0x00000000    0x1f6f2
 .debug_loc     0x00000000       0x40 build/stm32f4xx_it.o
 .debug_loc     0x00000040       0x2c build/stm32f4xx_hal_msp.o
 .debug_loc     0x0000006c     0x60ea build/Darin3Cart_Driver.o
 .debug_loc     0x00006156       0x20 build/usb_device.o
 .debug_loc     0x00006176      0x47b build/usbd_desc.o
 .debug_loc     0x000065f1      0x1d6 build/usbd_cdc_if.o
 .debug_loc     0x000067c7      0xf03 build/usbd_conf.o
 .debug_loc     0x000076ca     0x165a build/stm32f4xx_hal_pcd.o
 .debug_loc     0x00008d24      0x116 build/stm32f4xx_hal_pcd_ex.o
 .debug_loc     0x00008e3a     0x2937 build/stm32f4xx_ll_usb.o
 .debug_loc     0x0000b771      0x6e4 build/stm32f4xx_hal_rcc.o
 .debug_loc     0x0000be55      0x5e8 build/stm32f4xx_hal_gpio.o
 .debug_loc     0x0000c43d      0x7a4 build/stm32f4xx_hal_cortex.o
 .debug_loc     0x0000cbe1      0x1e1 build/stm32f4xx_hal.o
 .debug_loc     0x0000cdc2       0xbe build/system_stm32f4xx.o
 .debug_loc     0x0000ce80     0x1010 build/usbd_core.o
 .debug_loc     0x0000de90     0x1a36 build/usbd_ctlreq.o
 .debug_loc     0x0000f8c6      0x398 build/usbd_ioreq.o
 .debug_loc     0x0000fc5e      0xbdf build/usbd_cdc.o
 .debug_loc     0x0001083d       0x84 build/sysmem.o
 .debug_loc     0x000108c1      0x511 build/syscalls.o
 .debug_loc     0x00010dd2     0x22e3 build/diskio.o
 .debug_loc     0x000130b5     0x4d7c build/ff.o
 .debug_loc     0x00017e31     0x21b7 build/main.o
 .debug_loc     0x00019fe8      0x2dc build/cpp_minimal.o
 .debug_loc     0x0001a2c4     0x1533 build/FatFsWrapperSingleton.o
 .debug_loc     0x0001b7f7      0xf3c build/Darin3.o
 .debug_loc     0x0001c733      0x1be build/SerialTransport.o
 .debug_loc     0x0001c8f1      0x4fd build/IspCmdControl.o
 .debug_loc     0x0001cdee      0xe43 build/IspCmdReceiveData.o
 .debug_loc     0x0001dc31     0x11f6 build/IspCmdTransmitData.o
 .debug_loc     0x0001ee27      0x150 build/IspCommandManager.o
 .debug_loc     0x0001ef77      0x385 build/IspSubCommandProcessor.o
 .debug_loc     0x0001f2fc      0x3f6 build/safeBuffer.o

.debug_aranges  0x00000000     0x15e8
 .debug_aranges
                0x00000000       0x68 build/stm32f4xx_it.o
 .debug_aranges
                0x00000068       0x20 build/stm32f4xx_hal_msp.o
 .debug_aranges
                0x00000088      0x120 build/Darin3Cart_Driver.o
 .debug_aranges
                0x000001a8       0x20 build/usb_device.o
 .debug_aranges
                0x000001c8       0x60 build/usbd_desc.o
 .debug_aranges
                0x00000228       0x48 build/usbd_cdc_if.o
 .debug_aranges
                0x00000270      0x110 build/usbd_conf.o
 .debug_aranges
                0x00000380      0x148 build/stm32f4xx_hal_pcd.o
 .debug_aranges
                0x000004c8       0x38 build/stm32f4xx_hal_pcd_ex.o
 .debug_aranges
                0x00000500      0x1a0 build/stm32f4xx_ll_usb.o
 .debug_aranges
                0x000006a0       0x88 build/stm32f4xx_hal_rcc.o
 .debug_aranges
                0x00000728       0x58 build/stm32f4xx_hal_gpio.o
 .debug_aranges
                0x00000780       0xc0 build/stm32f4xx_hal_cortex.o
 .debug_aranges
                0x00000840       0xf0 build/stm32f4xx_hal.o
 .debug_aranges
                0x00000930       0x28 build/system_stm32f4xx.o
 .debug_aranges
                0x00000958       0xd8 build/usbd_core.o
 .debug_aranges
                0x00000a30       0x88 build/usbd_ctlreq.o
 .debug_aranges
                0x00000ab8       0x50 build/usbd_ioreq.o
 .debug_aranges
                0x00000b08       0x90 build/usbd_cdc.o
 .debug_aranges
                0x00000b98       0x20 build/sysmem.o
 .debug_aranges
                0x00000bb8       0xa8 build/syscalls.o
 .debug_aranges
                0x00000c60       0x58 build/diskio.o
 .debug_aranges
                0x00000cb8      0x1a8 build/ff.o
 .debug_aranges
                0x00000e60      0x288 build/main.o
 .debug_aranges
                0x000010e8       0xb0 build/cpp_minimal.o
 .debug_aranges
                0x00001198       0xb8 build/FatFsWrapperSingleton.o
 .debug_aranges
                0x00001250       0xb8 build/Darin3.o
 .debug_aranges
                0x00001308       0x58 build/SerialTransport.o
 .debug_aranges
                0x00001360       0x60 build/IspCmdControl.o
 .debug_aranges
                0x000013c0       0x90 build/IspCmdReceiveData.o
 .debug_aranges
                0x00001450       0xa8 build/IspCmdTransmitData.o
 .debug_aranges
                0x000014f8       0x48 build/IspCommandManager.o
 .debug_aranges
                0x00001540       0x48 build/IspSubCommandProcessor.o
 .debug_aranges
                0x00001588       0x38 build/safeBuffer.o
 .debug_aranges
                0x000015c0       0x28 build/startup_stm32f411xe.o

.debug_ranges   0x00000000     0x2360
 .debug_ranges  0x00000000       0x58 build/stm32f4xx_it.o
 .debug_ranges  0x00000058       0x10 build/stm32f4xx_hal_msp.o
 .debug_ranges  0x00000068      0xbc0 build/Darin3Cart_Driver.o
 .debug_ranges  0x00000c28       0x10 build/usb_device.o
 .debug_ranges  0x00000c38       0x50 build/usbd_desc.o
 .debug_ranges  0x00000c88       0x38 build/usbd_cdc_if.o
 .debug_ranges  0x00000cc0      0x100 build/usbd_conf.o
 .debug_ranges  0x00000dc0      0x138 build/stm32f4xx_hal_pcd.o
 .debug_ranges  0x00000ef8       0x28 build/stm32f4xx_hal_pcd_ex.o
 .debug_ranges  0x00000f20      0x190 build/stm32f4xx_ll_usb.o
 .debug_ranges  0x000010b0       0x90 build/stm32f4xx_hal_rcc.o
 .debug_ranges  0x00001140       0x48 build/stm32f4xx_hal_gpio.o
 .debug_ranges  0x00001188      0x110 build/stm32f4xx_hal_cortex.o
 .debug_ranges  0x00001298       0xe0 build/stm32f4xx_hal.o
 .debug_ranges  0x00001378       0x18 build/system_stm32f4xx.o
 .debug_ranges  0x00001390       0xc8 build/usbd_core.o
 .debug_ranges  0x00001458       0x78 build/usbd_ctlreq.o
 .debug_ranges  0x000014d0       0x40 build/usbd_ioreq.o
 .debug_ranges  0x00001510       0x80 build/usbd_cdc.o
 .debug_ranges  0x00001590       0x10 build/sysmem.o
 .debug_ranges  0x000015a0       0x98 build/syscalls.o
 .debug_ranges  0x00001638       0x60 build/diskio.o
 .debug_ranges  0x00001698      0x198 build/ff.o
 .debug_ranges  0x00001830      0x358 build/main.o
 .debug_ranges  0x00001b88       0xb8 build/cpp_minimal.o
 .debug_ranges  0x00001c40       0xc0 build/FatFsWrapperSingleton.o
 .debug_ranges  0x00001d00      0x1b0 build/Darin3.o
 .debug_ranges  0x00001eb0       0x48 build/SerialTransport.o
 .debug_ranges  0x00001ef8       0xb0 build/IspCmdControl.o
 .debug_ranges  0x00001fa8      0x188 build/IspCmdReceiveData.o
 .debug_ranges  0x00002130      0x178 build/IspCmdTransmitData.o
 .debug_ranges  0x000022a8       0x38 build/IspCommandManager.o
 .debug_ranges  0x000022e0       0x38 build/IspSubCommandProcessor.o
 .debug_ranges  0x00002318       0x28 build/safeBuffer.o
 .debug_ranges  0x00002340       0x20 build/startup_stm32f411xe.o

.debug_line     0x00000000    0x176cd
 .debug_line    0x00000000      0x2e4 build/stm32f4xx_it.o
 .debug_line    0x000002e4      0x16e build/stm32f4xx_hal_msp.o
 .debug_line    0x00000452     0x2826 build/Darin3Cart_Driver.o
 .debug_line    0x00002c78      0x221 build/usb_device.o
 .debug_line    0x00002e99      0x373 build/usbd_desc.o
 .debug_line    0x0000320c      0x27b build/usbd_cdc_if.o
 .debug_line    0x00003487      0x830 build/usbd_conf.o
 .debug_line    0x00003cb7     0x1556 build/stm32f4xx_hal_pcd.o
 .debug_line    0x0000520d      0x2c9 build/stm32f4xx_hal_pcd_ex.o
 .debug_line    0x000054d6     0x1f16 build/stm32f4xx_ll_usb.o
 .debug_line    0x000073ec      0xb5d build/stm32f4xx_hal_rcc.o
 .debug_line    0x00007f49      0x6d7 build/stm32f4xx_hal_gpio.o
 .debug_line    0x00008620      0x7c0 build/stm32f4xx_hal_cortex.o
 .debug_line    0x00008de0      0x579 build/stm32f4xx_hal.o
 .debug_line    0x00009359      0x264 build/system_stm32f4xx.o
 .debug_line    0x000095bd      0x9fb build/usbd_core.o
 .debug_line    0x00009fb8      0xd7a build/usbd_ctlreq.o
 .debug_line    0x0000ad32      0x2ce build/usbd_ioreq.o
 .debug_line    0x0000b000      0xa0c build/usbd_cdc.o
 .debug_line    0x0000ba0c      0x1e0 build/sysmem.o
 .debug_line    0x0000bbec      0x416 build/syscalls.o
 .debug_line    0x0000c002      0xff7 build/diskio.o
 .debug_line    0x0000cff9     0x3876 build/ff.o
 .debug_line    0x0001086f     0x1d39 build/main.o
 .debug_line    0x000125a8      0x604 build/cpp_minimal.o
 .debug_line    0x00012bac      0xb76 build/FatFsWrapperSingleton.o
 .debug_line    0x00013722      0xd4f build/Darin3.o
 .debug_line    0x00014471      0x4f0 build/SerialTransport.o
 .debug_line    0x00014961      0x6c3 build/IspCmdControl.o
 .debug_line    0x00015024      0xbc5 build/IspCmdReceiveData.o
 .debug_line    0x00015be9      0xca4 build/IspCmdTransmitData.o
 .debug_line    0x0001688d      0x48d build/IspCommandManager.o
 .debug_line    0x00016d1a      0x54b build/IspSubCommandProcessor.o
 .debug_line    0x00017265      0x3f2 build/safeBuffer.o
 .debug_line    0x00017657       0x76 build/startup_stm32f411xe.o

.debug_str      0x00000000     0x8605
 .debug_str     0x00000000      0x5e2 build/stm32f4xx_it.o
                                0x65b (size before relaxing)
 .debug_str     0x000005e2      0x12d build/stm32f4xx_hal_msp.o
                                0x2c6 (size before relaxing)
 .debug_str     0x0000070f      0x49a build/Darin3Cart_Driver.o
                                0x7f3 (size before relaxing)
 .debug_str     0x00000ba9      0x44e build/usb_device.o
                                0x6b3 (size before relaxing)
 .debug_str     0x00000ff7      0x181 build/usbd_desc.o
                                0x457 (size before relaxing)
 .debug_str     0x00001178      0x159 build/usbd_cdc_if.o
                                0x7a5 (size before relaxing)
 .debug_str     0x000012d1      0x96c build/usbd_conf.o
                               0x1485 (size before relaxing)
 .debug_str     0x00001c3d      0x5bc build/stm32f4xx_hal_pcd.o
                                0xdc7 (size before relaxing)
 .debug_str     0x000021f9      0x125 build/stm32f4xx_hal_pcd_ex.o
                                0x73c (size before relaxing)
 .debug_str     0x0000231e      0x4c5 build/stm32f4xx_ll_usb.o
                                0xd27 (size before relaxing)
 .debug_str     0x000027e3      0x316 build/stm32f4xx_hal_rcc.o
                                0x711 (size before relaxing)
 .debug_str     0x00002af9      0x119 build/stm32f4xx_hal_gpio.o
                                0x4eb (size before relaxing)
 .debug_str     0x00002c12      0x4c2 build/stm32f4xx_hal_cortex.o
                                0xb16 (size before relaxing)
 .debug_str     0x000030d4      0x299 build/stm32f4xx_hal.o
                                0xa0d (size before relaxing)
 .debug_str     0x0000336d       0x47 build/system_stm32f4xx.o
                                0x380 (size before relaxing)
 .debug_str     0x000033b4      0x27b build/usbd_core.o
                                0x9d8 (size before relaxing)
 .debug_str     0x0000362f      0x109 build/usbd_ctlreq.o
                                0x803 (size before relaxing)
 .debug_str     0x00003738       0x60 build/usbd_ioreq.o
                                0x6d8 (size before relaxing)
 .debug_str     0x00003798      0x1ad build/usbd_cdc.o
                                0xd91 (size before relaxing)
 .debug_str     0x00003945       0x7a build/sysmem.o
                                0x21e (size before relaxing)
 .debug_str     0x000039bf      0x1c7 build/syscalls.o
                                0x3f2 (size before relaxing)
 .debug_str     0x00003b86      0x186 build/diskio.o
                                0x4a0 (size before relaxing)
 .debug_str     0x00003d0c      0x57c build/ff.o
                                0x839 (size before relaxing)
 .debug_str     0x00004288     0x2cf1 build/main.o
                               0x388e (size before relaxing)
 .debug_str     0x00006f79      0x280 build/cpp_minimal.o
                                0x619 (size before relaxing)
 .debug_str     0x000071f9      0x13d build/FatFsWrapperSingleton.o
                                0xd9e (size before relaxing)
 .debug_str     0x00007336      0x6e2 build/Darin3.o
                               0x1e7e (size before relaxing)
 .debug_str     0x00007a18       0x5f build/SerialTransport.o
                                0x699 (size before relaxing)
 .debug_str     0x00007a77      0x22b build/IspCmdControl.o
                                0xd40 (size before relaxing)
 .debug_str     0x00007ca2      0x3a6 build/IspCmdReceiveData.o
                                0xffb (size before relaxing)
 .debug_str     0x00008048      0x466 build/IspCmdTransmitData.o
                               0x102b (size before relaxing)
 .debug_str     0x000084ae       0x43 build/IspCommandManager.o
                                0x642 (size before relaxing)
 .debug_str     0x000084f1       0x63 build/IspSubCommandProcessor.o
                                0xb95 (size before relaxing)
 .debug_str     0x00008554       0x8d build/safeBuffer.o
                                0x5c3 (size before relaxing)
 .debug_str     0x000085e1       0x24 build/startup_stm32f411xe.o
                                 0x63 (size before relaxing)

.debug_frame    0x00000000     0x4490
 .debug_frame   0x00000000       0xc0 build/stm32f4xx_it.o
 .debug_frame   0x000000c0       0x28 build/stm32f4xx_hal_msp.o
 .debug_frame   0x000000e8      0x33c build/Darin3Cart_Driver.o
 .debug_frame   0x00000424       0x28 build/usb_device.o
 .debug_frame   0x0000044c       0xe0 build/usbd_desc.o
 .debug_frame   0x0000052c       0x8c build/usbd_cdc_if.o
 .debug_frame   0x000005b8      0x2e4 build/usbd_conf.o
 .debug_frame   0x0000089c      0x388 build/stm32f4xx_hal_pcd.o
 .debug_frame   0x00000c24       0x5c build/stm32f4xx_hal_pcd_ex.o
 .debug_frame   0x00000c80      0x4a4 build/stm32f4xx_ll_usb.o
 .debug_frame   0x00001124      0x16c build/stm32f4xx_hal_rcc.o
 .debug_frame   0x00001290       0xd8 build/stm32f4xx_hal_gpio.o
 .debug_frame   0x00001368      0x178 build/stm32f4xx_hal_cortex.o
 .debug_frame   0x000014e0      0x1ec build/stm32f4xx_hal.o
 .debug_frame   0x000016cc       0x30 build/system_stm32f4xx.o
 .debug_frame   0x000016fc      0x240 build/usbd_core.o
 .debug_frame   0x0000193c      0x180 build/usbd_ctlreq.o
 .debug_frame   0x00001abc       0xb8 build/usbd_ioreq.o
 .debug_frame   0x00001b74      0x190 build/usbd_cdc.o
 .debug_frame   0x00001d04       0x28 build/sysmem.o
 .debug_frame   0x00001d2c      0x190 build/syscalls.o
 .debug_frame   0x00001ebc      0x148 build/diskio.o
 .debug_frame   0x00002004      0x650 build/ff.o
 .debug_frame   0x00002654      0x6bc build/main.o
 .debug_frame   0x00002d10      0x170 build/cpp_minimal.o
 .debug_frame   0x00002e80      0x280 build/FatFsWrapperSingleton.o
 .debug_frame   0x00003100      0x208 build/Darin3.o
 .debug_frame   0x00003308       0xa0 build/SerialTransport.o
 .debug_frame   0x000033a8       0xc8 build/IspCmdControl.o
 .debug_frame   0x00003470      0x178 build/IspCmdReceiveData.o
 .debug_frame   0x000035e8      0x1c0 build/IspCmdTransmitData.o
 .debug_frame   0x000037a8       0x84 build/IspCommandManager.o
 .debug_frame   0x0000382c       0xac build/IspSubCommandProcessor.o
 .debug_frame   0x000038d8       0x70 build/safeBuffer.o
 .debug_frame   0x00003948       0x20 c:/program files (x86)/gnu arm embedded toolchain/10 2021.10/bin/../lib/gcc/arm-none-eabi/10.3.1/../../../../arm-none-eabi/lib/thumb/v7e-m+fp/hard\libc_nano.a(lib_a-aeabi_atexit.o)
 .debug_frame   0x00003968       0x28 c:/program files (x86)/gnu arm embedded toolchain/10 2021.10/bin/../lib/gcc/arm-none-eabi/10.3.1/../../../../arm-none-eabi/lib/thumb/v7e-m+fp/hard\libc_nano.a(lib_a-cxa_atexit.o)
 .debug_frame   0x00003990       0x20 c:/program files (x86)/gnu arm embedded toolchain/10 2021.10/bin/../lib/gcc/arm-none-eabi/10.3.1/../../../../arm-none-eabi/lib/thumb/v7e-m+fp/hard\libc_nano.a(lib_a-errno.o)
 .debug_frame   0x000039b0       0x2c c:/program files (x86)/gnu arm embedded toolchain/10 2021.10/bin/../lib/gcc/arm-none-eabi/10.3.1/../../../../arm-none-eabi/lib/thumb/v7e-m+fp/hard\libc_nano.a(lib_a-init.o)
 .debug_frame   0x000039dc       0x30 c:/program files (x86)/gnu arm embedded toolchain/10 2021.10/bin/../lib/gcc/arm-none-eabi/10.3.1/../../../../arm-none-eabi/lib/thumb/v7e-m+fp/hard\libc_nano.a(lib_a-malloc.o)
 .debug_frame   0x00003a0c       0x28 c:/program files (x86)/gnu arm embedded toolchain/10 2021.10/bin/../lib/gcc/arm-none-eabi/10.3.1/../../../../arm-none-eabi/lib/thumb/v7e-m+fp/hard\libc_nano.a(lib_a-memcmp.o)
 .debug_frame   0x00003a34       0x28 c:/program files (x86)/gnu arm embedded toolchain/10 2021.10/bin/../lib/gcc/arm-none-eabi/10.3.1/../../../../arm-none-eabi/lib/thumb/v7e-m+fp/hard\libc_nano.a(lib_a-memcpy-stub.o)
 .debug_frame   0x00003a5c       0x28 c:/program files (x86)/gnu arm embedded toolchain/10 2021.10/bin/../lib/gcc/arm-none-eabi/10.3.1/../../../../arm-none-eabi/lib/thumb/v7e-m+fp/hard\libc_nano.a(lib_a-memmove.o)
 .debug_frame   0x00003a84       0x20 c:/program files (x86)/gnu arm embedded toolchain/10 2021.10/bin/../lib/gcc/arm-none-eabi/10.3.1/../../../../arm-none-eabi/lib/thumb/v7e-m+fp/hard\libc_nano.a(lib_a-memset.o)
 .debug_frame   0x00003aa4       0x38 c:/program files (x86)/gnu arm embedded toolchain/10 2021.10/bin/../lib/gcc/arm-none-eabi/10.3.1/../../../../arm-none-eabi/lib/thumb/v7e-m+fp/hard\libc_nano.a(lib_a-nano-freer.o)
 .debug_frame   0x00003adc       0x4c c:/program files (x86)/gnu arm embedded toolchain/10 2021.10/bin/../lib/gcc/arm-none-eabi/10.3.1/../../../../arm-none-eabi/lib/thumb/v7e-m+fp/hard\libc_nano.a(lib_a-nano-mallocr.o)
 .debug_frame   0x00003b28       0x74 c:/program files (x86)/gnu arm embedded toolchain/10 2021.10/bin/../lib/gcc/arm-none-eabi/10.3.1/../../../../arm-none-eabi/lib/thumb/v7e-m+fp/hard\libc_nano.a(lib_a-printf.o)
 .debug_frame   0x00003b9c       0x2c c:/program files (x86)/gnu arm embedded toolchain/10 2021.10/bin/../lib/gcc/arm-none-eabi/10.3.1/../../../../arm-none-eabi/lib/thumb/v7e-m+fp/hard\libc_nano.a(lib_a-sbrkr.o)
 .debug_frame   0x00003bc8       0x7c c:/program files (x86)/gnu arm embedded toolchain/10 2021.10/bin/../lib/gcc/arm-none-eabi/10.3.1/../../../../arm-none-eabi/lib/thumb/v7e-m+fp/hard\libc_nano.a(lib_a-snprintf.o)
 .debug_frame   0x00003c44       0x20 c:/program files (x86)/gnu arm embedded toolchain/10 2021.10/bin/../lib/gcc/arm-none-eabi/10.3.1/../../../../arm-none-eabi/lib/thumb/v7e-m+fp/hard\libc_nano.a(lib_a-strchr.o)
 .debug_frame   0x00003c64       0x20 c:/program files (x86)/gnu arm embedded toolchain/10 2021.10/bin/../lib/gcc/arm-none-eabi/10.3.1/../../../../arm-none-eabi/lib/thumb/v7e-m+fp/hard\libc_nano.a(lib_a-strcmp.o)
 .debug_frame   0x00003c84       0x28 c:/program files (x86)/gnu arm embedded toolchain/10 2021.10/bin/../lib/gcc/arm-none-eabi/10.3.1/../../../../arm-none-eabi/lib/thumb/v7e-m+fp/hard\libc_nano.a(lib_a-strncpy.o)
 .debug_frame   0x00003cac      0x14c c:/program files (x86)/gnu arm embedded toolchain/10 2021.10/bin/../lib/gcc/arm-none-eabi/10.3.1/../../../../arm-none-eabi/lib/thumb/v7e-m+fp/hard\libc_nano.a(lib_a-findfp.o)
 .debug_frame   0x00003df8       0x54 c:/program files (x86)/gnu arm embedded toolchain/10 2021.10/bin/../lib/gcc/arm-none-eabi/10.3.1/../../../../arm-none-eabi/lib/thumb/v7e-m+fp/hard\libc_nano.a(lib_a-fwalk.o)
 .debug_frame   0x00003e4c       0xb0 c:/program files (x86)/gnu arm embedded toolchain/10 2021.10/bin/../lib/gcc/arm-none-eabi/10.3.1/../../../../arm-none-eabi/lib/thumb/v7e-m+fp/hard\libc_nano.a(lib_a-lock.o)
 .debug_frame   0x00003efc       0x30 c:/program files (x86)/gnu arm embedded toolchain/10 2021.10/bin/../lib/gcc/arm-none-eabi/10.3.1/../../../../arm-none-eabi/lib/thumb/v7e-m+fp/hard\libc_nano.a(lib_a-mlock.o)
 .debug_frame   0x00003f2c       0x90 c:/program files (x86)/gnu arm embedded toolchain/10 2021.10/bin/../lib/gcc/arm-none-eabi/10.3.1/../../../../arm-none-eabi/lib/thumb/v7e-m+fp/hard\libc_nano.a(lib_a-nano-svfprintf.o)
 .debug_frame   0x00003fbc       0xac c:/program files (x86)/gnu arm embedded toolchain/10 2021.10/bin/../lib/gcc/arm-none-eabi/10.3.1/../../../../arm-none-eabi/lib/thumb/v7e-m+fp/hard\libc_nano.a(lib_a-nano-vfprintf.o)
 .debug_frame   0x00004068       0x60 c:/program files (x86)/gnu arm embedded toolchain/10 2021.10/bin/../lib/gcc/arm-none-eabi/10.3.1/../../../../arm-none-eabi/lib/thumb/v7e-m+fp/hard\libc_nano.a(lib_a-nano-vfprintf_i.o)
 .debug_frame   0x000040c8       0x5c c:/program files (x86)/gnu arm embedded toolchain/10 2021.10/bin/../lib/gcc/arm-none-eabi/10.3.1/../../../../arm-none-eabi/lib/thumb/v7e-m+fp/hard\libc_nano.a(lib_a-reent.o)
 .debug_frame   0x00004124       0x88 c:/program files (x86)/gnu arm embedded toolchain/10 2021.10/bin/../lib/gcc/arm-none-eabi/10.3.1/../../../../arm-none-eabi/lib/thumb/v7e-m+fp/hard\libc_nano.a(lib_a-stdio.o)
 .debug_frame   0x000041ac       0x40 c:/program files (x86)/gnu arm embedded toolchain/10 2021.10/bin/../lib/gcc/arm-none-eabi/10.3.1/../../../../arm-none-eabi/lib/thumb/v7e-m+fp/hard\libc_nano.a(lib_a-wbuf.o)
 .debug_frame   0x000041ec       0x2c c:/program files (x86)/gnu arm embedded toolchain/10 2021.10/bin/../lib/gcc/arm-none-eabi/10.3.1/../../../../arm-none-eabi/lib/thumb/v7e-m+fp/hard\libc_nano.a(lib_a-writer.o)
 .debug_frame   0x00004218       0x2c c:/program files (x86)/gnu arm embedded toolchain/10 2021.10/bin/../lib/gcc/arm-none-eabi/10.3.1/../../../../arm-none-eabi/lib/thumb/v7e-m+fp/hard\libc_nano.a(lib_a-wsetup.o)
 .debug_frame   0x00004244       0x2c c:/program files (x86)/gnu arm embedded toolchain/10 2021.10/bin/../lib/gcc/arm-none-eabi/10.3.1/../../../../arm-none-eabi/lib/thumb/v7e-m+fp/hard\libc_nano.a(lib_a-closer.o)
 .debug_frame   0x00004270       0x5c c:/program files (x86)/gnu arm embedded toolchain/10 2021.10/bin/../lib/gcc/arm-none-eabi/10.3.1/../../../../arm-none-eabi/lib/thumb/v7e-m+fp/hard\libc_nano.a(lib_a-fflush.o)
 .debug_frame   0x000042cc       0x2c c:/program files (x86)/gnu arm embedded toolchain/10 2021.10/bin/../lib/gcc/arm-none-eabi/10.3.1/../../../../arm-none-eabi/lib/thumb/v7e-m+fp/hard\libc_nano.a(lib_a-lseekr.o)
 .debug_frame   0x000042f8       0x58 c:/program files (x86)/gnu arm embedded toolchain/10 2021.10/bin/../lib/gcc/arm-none-eabi/10.3.1/../../../../arm-none-eabi/lib/thumb/v7e-m+fp/hard\libc_nano.a(lib_a-makebuf.o)
 .debug_frame   0x00004350       0x3c c:/program files (x86)/gnu arm embedded toolchain/10 2021.10/bin/../lib/gcc/arm-none-eabi/10.3.1/../../../../arm-none-eabi/lib/thumb/v7e-m+fp/hard\libc_nano.a(lib_a-nano-reallocr.o)
 .debug_frame   0x0000438c       0x2c c:/program files (x86)/gnu arm embedded toolchain/10 2021.10/bin/../lib/gcc/arm-none-eabi/10.3.1/../../../../arm-none-eabi/lib/thumb/v7e-m+fp/hard\libc_nano.a(lib_a-readr.o)
 .debug_frame   0x000043b8       0x2c c:/program files (x86)/gnu arm embedded toolchain/10 2021.10/bin/../lib/gcc/arm-none-eabi/10.3.1/../../../../arm-none-eabi/lib/thumb/v7e-m+fp/hard\libc_nano.a(lib_a-fstatr.o)
 .debug_frame   0x000043e4       0x2c c:/program files (x86)/gnu arm embedded toolchain/10 2021.10/bin/../lib/gcc/arm-none-eabi/10.3.1/../../../../arm-none-eabi/lib/thumb/v7e-m+fp/hard\libc_nano.a(lib_a-isattyr.o)
 .debug_frame   0x00004410       0x20 c:/program files (x86)/gnu arm embedded toolchain/10 2021.10/bin/../lib/gcc/arm-none-eabi/10.3.1/../../../../arm-none-eabi/lib/thumb/v7e-m+fp/hard\libc_nano.a(lib_a-nano-msizer.o)
 .debug_frame   0x00004430       0x2c c:/program files (x86)/gnu arm embedded toolchain/10 2021.10/bin/../lib/gcc/arm-none-eabi/10.3.1/thumb/v7e-m+fp/hard\libgcc.a(_aeabi_uldivmod.o)
 .debug_frame   0x0000445c       0x34 c:/program files (x86)/gnu arm embedded toolchain/10 2021.10/bin/../lib/gcc/arm-none-eabi/10.3.1/thumb/v7e-m+fp/hard\libgcc.a(_udivmoddi4.o)

Cross Reference Table

Symbol                                            File
A0                                                build/Darin3Cart_Driver.o
A1                                                build/Darin3Cart_Driver.o
A2                                                build/Darin3Cart_Driver.o
A3                                                build/Darin3Cart_Driver.o
ADC_IRQHandler                                    build/startup_stm32f411xe.o
AHBPrescTable                                     build/system_stm32f4xx.o
                                                  build/stm32f4xx_hal_rcc.o
APBPrescTable                                     build/system_stm32f4xx.o
                                                  build/stm32f4xx_hal_rcc.o
Address_Flash_Page1                               build/Darin3Cart_Driver.o
BlinkAllLed                                       build/Darin3Cart_Driver.o
                                                  build/main.o
BlinkAllLed_SubCmdProcess::getSubCmd()            build/main.o
BlinkAllLed_SubCmdProcess::processCmdReq(unsigned char*) build/main.o
BlinkAllLed_SubCmdProcess::~BlinkAllLed_SubCmdProcess() build/main.o
BlinkAllLed_SubCmdProcess::~BlinkAllLed_SubCmdProcess() build/main.o
BlinkAllLed_SubCmdProcess::~BlinkAllLed_SubCmdProcess() build/main.o
BlinkLed_PA1_PA8(unsigned short)                  build/main.o
BoardID_SubCmdProcess::getSubCmd()                build/main.o
BoardID_SubCmdProcess::processCmdReq(unsigned char*) build/main.o
BoardID_SubCmdProcess::~BoardID_SubCmdProcess()   build/main.o
BoardID_SubCmdProcess::~BoardID_SubCmdProcess()   build/main.o
BoardID_SubCmdProcess::~BoardID_SubCmdProcess()   build/main.o
BusFault_Handler                                  build/stm32f4xx_it.o
CD2_SLT                                           build/Darin3Cart_Driver.o
CDC_Transmit_FS                                   build/usbd_cdc_if.o
                                                  build/SerialTransport.o
CF_CE                                             build/Darin3Cart_Driver.o
CF_OE                                             build/Darin3Cart_Driver.o
                                                  build/diskio.o
CF_RST                                            build/Darin3Cart_Driver.o
                                                  build/diskio.o
CF_WE                                             build/Darin3Cart_Driver.o
                                                  build/diskio.o
CartStatus_SubCmdProcess::getSubCmd()             build/main.o
CartStatus_SubCmdProcess::processCmdReq(unsigned char*) build/main.o
CartStatus_SubCmdProcess::~CartStatus_SubCmdProcess() build/main.o
CartStatus_SubCmdProcess::~CartStatus_SubCmdProcess() build/main.o
CartStatus_SubCmdProcess::~CartStatus_SubCmdProcess() build/main.o
D3_Cartridge_Check                                build/Darin3Cart_Driver.o
D3_Power_Cycle_SubCmdProcess::getSubCmd()         build/main.o
D3_Power_Cycle_SubCmdProcess::processCmdReq(unsigned char*) build/main.o
D3_Power_Cycle_SubCmdProcess::~D3_Power_Cycle_SubCmdProcess() build/main.o
D3_Power_Cycle_SubCmdProcess::~D3_Power_Cycle_SubCmdProcess() build/main.o
D3_Power_Cycle_SubCmdProcess::~D3_Power_Cycle_SubCmdProcess() build/main.o
DMA1_Stream0_IRQHandler                           build/startup_stm32f411xe.o
DMA1_Stream1_IRQHandler                           build/startup_stm32f411xe.o
DMA1_Stream2_IRQHandler                           build/startup_stm32f411xe.o
DMA1_Stream3_IRQHandler                           build/startup_stm32f411xe.o
DMA1_Stream4_IRQHandler                           build/startup_stm32f411xe.o
DMA1_Stream5_IRQHandler                           build/startup_stm32f411xe.o
DMA1_Stream6_IRQHandler                           build/startup_stm32f411xe.o
DMA1_Stream7_IRQHandler                           build/startup_stm32f411xe.o
DMA2_Stream0_IRQHandler                           build/startup_stm32f411xe.o
DMA2_Stream1_IRQHandler                           build/startup_stm32f411xe.o
DMA2_Stream2_IRQHandler                           build/startup_stm32f411xe.o
DMA2_Stream3_IRQHandler                           build/startup_stm32f411xe.o
DMA2_Stream4_IRQHandler                           build/startup_stm32f411xe.o
DMA2_Stream5_IRQHandler                           build/startup_stm32f411xe.o
DMA2_Stream6_IRQHandler                           build/startup_stm32f411xe.o
DMA2_Stream7_IRQHandler                           build/startup_stm32f411xe.o
Darin3::Darin3()                                  build/Darin3.o
                                                  build/main.o
Darin3::Darin3()                                  build/Darin3.o
Darin3::TesFATfS()                                build/Darin3.o
Darin3::TestDarinIIIFlash()                       build/Darin3.o
Darin3::closeReadStream()                         build/Darin3.o
Darin3::closeWriteStream()                        build/Darin3.o
Darin3::prepareDataToTx(unsigned char const*, unsigned char, unsigned long&) build/Darin3.o
Darin3::prepareForRx(unsigned char const*, unsigned char, unsigned long) build/Darin3.o
Darin3::processRxData(unsigned char const*, unsigned char, unsigned long) build/Darin3.o
Darin3::~Darin3()                                 build/Darin3.o
                                                  build/main.o
Darin3::~Darin3()                                 build/Darin3.o
Darin3::~Darin3()                                 build/Darin3.o
DataBus_Configure                                 build/Darin3Cart_Driver.o
                                                  build/diskio.o
DataBus_ReadByte                                  build/Darin3Cart_Driver.o
                                                  build/diskio.o
DataBus_SetInput                                  build/Darin3Cart_Driver.o
DataBus_SetOutput                                 build/Darin3Cart_Driver.o
DataBus_WriteByte                                 build/Darin3Cart_Driver.o
                                                  build/diskio.o
DebugMon_Handler                                  build/stm32f4xx_it.o
Default_Handler                                   build/startup_stm32f411xe.o
EXTI0_IRQHandler                                  build/startup_stm32f411xe.o
EXTI15_10_IRQHandler                              build/startup_stm32f411xe.o
EXTI1_IRQHandler                                  build/startup_stm32f411xe.o
EXTI2_IRQHandler                                  build/startup_stm32f411xe.o
EXTI3_IRQHandler                                  build/startup_stm32f411xe.o
EXTI4_IRQHandler                                  build/startup_stm32f411xe.o
EXTI9_5_IRQHandler                                build/startup_stm32f411xe.o
Erase_SubCmdProcess::getSubCmd()                  build/main.o
Erase_SubCmdProcess::processCmdReq(unsigned char*) build/main.o
Erase_SubCmdProcess::~Erase_SubCmdProcess()       build/main.o
Erase_SubCmdProcess::~Erase_SubCmdProcess()       build/main.o
Erase_SubCmdProcess::~Erase_SubCmdProcess()       build/main.o
Error_Handler                                     build/main.o
                                                  build/usbd_conf.o
                                                  build/usb_device.o
FLASH_Erase_Sector                                build/stm32f4xx_hal_flash_ex.o
                                                  build/stm32f4xx_hal_flash.o
FLASH_FlushCaches                                 build/stm32f4xx_hal_flash_ex.o
                                                  build/stm32f4xx_hal_flash.o
FLASH_IRQHandler                                  build/startup_stm32f411xe.o
FLASH_WaitForLastOperation                        build/stm32f4xx_hal_flash.o
                                                  build/stm32f4xx_hal_flash_ex.o
FPU_IRQHandler                                    build/startup_stm32f411xe.o
FS_Desc                                           build/usbd_desc.o
                                                  build/usb_device.o
FatFsWrapper::FileStream::close()                 build/FatFsWrapperSingleton.o
                                                  build/Darin3.o
FatFsWrapper::FileStream::open(FatFsWrapper&, int, bool, bool) build/FatFsWrapperSingleton.o
                                                  build/Darin3.o
FatFsWrapper::FileStream::readNext(void*, unsigned int, unsigned int&) build/FatFsWrapperSingleton.o
                                                  build/Darin3.o
FatFsWrapper::FileStream::sync()                  build/FatFsWrapperSingleton.o
                                                  build/Darin3.o
FatFsWrapper::FileStream::writeNext(void const*, unsigned int, unsigned int&) build/FatFsWrapperSingleton.o
                                                  build/Darin3.o
FatFsWrapper::buildFilePacket(unsigned char*, unsigned int) build/FatFsWrapperSingleton.o
FatFsWrapper::buildFilePacket(unsigned char*, unsigned int, unsigned long&) build/FatFsWrapperSingleton.o
                                                  build/Darin3.o
FatFsWrapper::createFile(int, unsigned char)      build/FatFsWrapperSingleton.o
                                                  build/Darin3.o
FatFsWrapper::deleteAllFiles(char const*)         build/FatFsWrapperSingleton.o
                                                  build/Darin3.o
                                                  build/main.o
FatFsWrapper::deleteFile(int)                     build/FatFsWrapperSingleton.o
FatFsWrapper::fileSize(int, unsigned long&)       build/FatFsWrapperSingleton.o
                                                  build/Darin3.o
FatFsWrapper::forceCartridgeReinit(CartridgeID)   build/FatFsWrapperSingleton.o
                                                  build/Darin3.o
                                                  build/main.o
FatFsWrapper::format(char const*, unsigned char, unsigned int) build/FatFsWrapperSingleton.o
                                                  build/main.o
FatFsWrapper::getFilenameById(int) const          build/FatFsWrapperSingleton.o
FatFsWrapper::getInstance()::instance             build/main.o
                                                  build/Darin3.o
FatFsWrapper::kKnownFileCount                     build/FatFsWrapperSingleton.o
FatFsWrapper::kKnownFiles                         build/FatFsWrapperSingleton.o
FatFsWrapper::lookupFileId(char const*)           build/FatFsWrapperSingleton.o
FatFsWrapper::mount()                             build/FatFsWrapperSingleton.o
                                                  build/Darin3.o
                                                  build/main.o
FatFsWrapper::readFile(int, void*, unsigned int, unsigned int&, unsigned long) build/FatFsWrapperSingleton.o
FatFsWrapper::scanFiles(char const*, FatFsWrapper::FileInfo*, unsigned int, unsigned int&) build/FatFsWrapperSingleton.o
FatFsWrapper::unmount()                           build/FatFsWrapperSingleton.o
                                                  build/Darin3.o
                                                  build/main.o
FatFsWrapper::writeFile(int, void const*, unsigned int, unsigned int&, unsigned long) build/FatFsWrapperSingleton.o
                                                  build/Darin3.o
FatFsWrapper::~FatFsWrapper()                     build/main.o
                                                  build/Darin3.o
FatFsWrapper::~FatFsWrapper()                     build/main.o
                                                  build/Darin3.o
FirmwareVersion_SubCmdProcess::getSubCmd()        build/main.o
FirmwareVersion_SubCmdProcess::processCmdReq(unsigned char*) build/main.o
FirmwareVersion_SubCmdProcess::~FirmwareVersion_SubCmdProcess() build/main.o
FirmwareVersion_SubCmdProcess::~FirmwareVersion_SubCmdProcess() build/main.o
FirmwareVersion_SubCmdProcess::~FirmwareVersion_SubCmdProcess() build/main.o
ForceCartridgeReinit                              build/diskio.o
                                                  build/FatFsWrapperSingleton.o
Format_SubCmdProcess::getSubCmd()                 build/main.o
Format_SubCmdProcess::processCmdReq(unsigned char*) build/main.o
Format_SubCmdProcess::~Format_SubCmdProcess()     build/main.o
Format_SubCmdProcess::~Format_SubCmdProcess()     build/main.o
Format_SubCmdProcess::~Format_SubCmdProcess()     build/main.o
GreenLed_SubCmdProcess::getSubCmd()               build/main.o
GreenLed_SubCmdProcess::processCmdReq(unsigned char*) build/main.o
GreenLed_SubCmdProcess::~GreenLed_SubCmdProcess() build/main.o
GreenLed_SubCmdProcess::~GreenLed_SubCmdProcess() build/main.o
GreenLed_SubCmdProcess::~GreenLed_SubCmdProcess() build/main.o
GuiCtrlLed_SubCmdProcess::LED_CTRL_STATE          build/Darin3.o
                                                  build/main.o
GuiCtrlLed_SubCmdProcess::getSubCmd()             build/main.o
GuiCtrlLed_SubCmdProcess::processCmdReq(unsigned char*) build/main.o
GuiCtrlLed_SubCmdProcess::~GuiCtrlLed_SubCmdProcess() build/main.o
GuiCtrlLed_SubCmdProcess::~GuiCtrlLed_SubCmdProcess() build/main.o
GuiCtrlLed_SubCmdProcess::~GuiCtrlLed_SubCmdProcess() build/main.o
HAL_CORTEX_ClearEvent                             build/stm32f4xx_hal_cortex.o
HAL_DBGMCU_DisableDBGSleepMode                    build/stm32f4xx_hal.o
HAL_DBGMCU_DisableDBGStandbyMode                  build/stm32f4xx_hal.o
HAL_DBGMCU_DisableDBGStopMode                     build/stm32f4xx_hal.o
HAL_DBGMCU_EnableDBGSleepMode                     build/stm32f4xx_hal.o
HAL_DBGMCU_EnableDBGStandbyMode                   build/stm32f4xx_hal.o
HAL_DBGMCU_EnableDBGStopMode                      build/stm32f4xx_hal.o
HAL_DMAEx_ChangeMemory                            build/stm32f4xx_hal_dma_ex.o
HAL_DMAEx_MultiBufferStart                        build/stm32f4xx_hal_dma_ex.o
HAL_DMAEx_MultiBufferStart_IT                     build/stm32f4xx_hal_dma_ex.o
HAL_DMA_Abort                                     build/stm32f4xx_hal_dma.o
HAL_DMA_Abort_IT                                  build/stm32f4xx_hal_dma.o
HAL_DMA_DeInit                                    build/stm32f4xx_hal_dma.o
HAL_DMA_GetError                                  build/stm32f4xx_hal_dma.o
HAL_DMA_GetState                                  build/stm32f4xx_hal_dma.o
HAL_DMA_IRQHandler                                build/stm32f4xx_hal_dma.o
HAL_DMA_Init                                      build/stm32f4xx_hal_dma.o
HAL_DMA_PollForTransfer                           build/stm32f4xx_hal_dma.o
HAL_DMA_RegisterCallback                          build/stm32f4xx_hal_dma.o
HAL_DMA_Start                                     build/stm32f4xx_hal_dma.o
HAL_DMA_Start_IT                                  build/stm32f4xx_hal_dma.o
HAL_DMA_UnRegisterCallback                        build/stm32f4xx_hal_dma.o
HAL_DeInit                                        build/stm32f4xx_hal.o
HAL_Delay                                         build/stm32f4xx_hal.o
                                                  build/main.o
                                                  build/stm32f4xx_ll_usb.o
                                                  build/usbd_conf.o
HAL_DisableCompensationCell                       build/stm32f4xx_hal.o
HAL_EXTI_ClearConfigLine                          build/stm32f4xx_hal_exti.o
HAL_EXTI_ClearPending                             build/stm32f4xx_hal_exti.o
HAL_EXTI_GenerateSWI                              build/stm32f4xx_hal_exti.o
HAL_EXTI_GetConfigLine                            build/stm32f4xx_hal_exti.o
HAL_EXTI_GetHandle                                build/stm32f4xx_hal_exti.o
HAL_EXTI_GetPending                               build/stm32f4xx_hal_exti.o
HAL_EXTI_IRQHandler                               build/stm32f4xx_hal_exti.o
HAL_EXTI_RegisterCallback                         build/stm32f4xx_hal_exti.o
HAL_EXTI_SetConfigLine                            build/stm32f4xx_hal_exti.o
HAL_EnableCompensationCell                        build/stm32f4xx_hal.o
HAL_FLASHEx_AdvOBGetConfig                        build/stm32f4xx_hal_flash_ex.o
HAL_FLASHEx_AdvOBProgram                          build/stm32f4xx_hal_flash_ex.o
HAL_FLASHEx_DisableFlashSleepMode                 build/stm32f4xx_hal_flash_ramfunc.o
HAL_FLASHEx_EnableFlashSleepMode                  build/stm32f4xx_hal_flash_ramfunc.o
HAL_FLASHEx_Erase                                 build/stm32f4xx_hal_flash_ex.o
HAL_FLASHEx_Erase_IT                              build/stm32f4xx_hal_flash_ex.o
HAL_FLASHEx_OBGetConfig                           build/stm32f4xx_hal_flash_ex.o
HAL_FLASHEx_OBProgram                             build/stm32f4xx_hal_flash_ex.o
HAL_FLASHEx_OB_DeSelectPCROP                      build/stm32f4xx_hal_flash_ex.o
HAL_FLASHEx_OB_SelectPCROP                        build/stm32f4xx_hal_flash_ex.o
HAL_FLASHEx_StartFlashInterfaceClk                build/stm32f4xx_hal_flash_ramfunc.o
HAL_FLASHEx_StopFlashInterfaceClk                 build/stm32f4xx_hal_flash_ramfunc.o
HAL_FLASH_EndOfOperationCallback                  build/stm32f4xx_hal_flash.o
HAL_FLASH_GetError                                build/stm32f4xx_hal_flash.o
HAL_FLASH_IRQHandler                              build/stm32f4xx_hal_flash.o
HAL_FLASH_Lock                                    build/stm32f4xx_hal_flash.o
HAL_FLASH_OB_Launch                               build/stm32f4xx_hal_flash.o
HAL_FLASH_OB_Lock                                 build/stm32f4xx_hal_flash.o
HAL_FLASH_OB_Unlock                               build/stm32f4xx_hal_flash.o
HAL_FLASH_OperationErrorCallback                  build/stm32f4xx_hal_flash.o
HAL_FLASH_Program                                 build/stm32f4xx_hal_flash.o
HAL_FLASH_Program_IT                              build/stm32f4xx_hal_flash.o
HAL_FLASH_Unlock                                  build/stm32f4xx_hal_flash.o
HAL_GPIO_DeInit                                   build/stm32f4xx_hal_gpio.o
                                                  build/usbd_conf.o
HAL_GPIO_EXTI_Callback                            build/stm32f4xx_hal_gpio.o
HAL_GPIO_EXTI_IRQHandler                          build/stm32f4xx_hal_gpio.o
HAL_GPIO_Init                                     build/stm32f4xx_hal_gpio.o
                                                  build/main.o
                                                  build/stm32f4xx_hal_rcc.o
                                                  build/usbd_conf.o
HAL_GPIO_LockPin                                  build/stm32f4xx_hal_gpio.o
HAL_GPIO_ReadPin                                  build/stm32f4xx_hal_gpio.o
HAL_GPIO_TogglePin                                build/stm32f4xx_hal_gpio.o
HAL_GPIO_WritePin                                 build/stm32f4xx_hal_gpio.o
                                                  build/main.o
HAL_GetDEVID                                      build/stm32f4xx_hal.o
HAL_GetHalVersion                                 build/stm32f4xx_hal.o
HAL_GetREVID                                      build/stm32f4xx_hal.o
HAL_GetTick                                       build/stm32f4xx_hal.o
                                                  build/stm32f4xx_hal_pwr_ex.o
                                                  build/stm32f4xx_hal_dma.o
                                                  build/stm32f4xx_hal_flash.o
                                                  build/stm32f4xx_hal_rcc_ex.o
                                                  build/stm32f4xx_hal_rcc.o
HAL_GetTickFreq                                   build/stm32f4xx_hal.o
HAL_GetTickPrio                                   build/stm32f4xx_hal.o
HAL_GetUIDw0                                      build/stm32f4xx_hal.o
HAL_GetUIDw1                                      build/stm32f4xx_hal.o
HAL_GetUIDw2                                      build/stm32f4xx_hal.o
HAL_IncTick                                       build/stm32f4xx_hal.o
                                                  build/stm32f4xx_it.o
HAL_Init                                          build/stm32f4xx_hal.o
                                                  build/main.o
HAL_InitTick                                      build/stm32f4xx_hal.o
                                                  build/stm32f4xx_hal_rcc_ex.o
                                                  build/stm32f4xx_hal_rcc.o
HAL_MPU_ConfigRegion                              build/stm32f4xx_hal_cortex.o
HAL_MPU_Disable                                   build/stm32f4xx_hal_cortex.o
HAL_MPU_DisableRegion                             build/stm32f4xx_hal_cortex.o
HAL_MPU_Enable                                    build/stm32f4xx_hal_cortex.o
HAL_MPU_EnableRegion                              build/stm32f4xx_hal_cortex.o
HAL_MspDeInit                                     build/stm32f4xx_hal.o
HAL_MspInit                                       build/stm32f4xx_hal_msp.o
HAL_NVIC_ClearPendingIRQ                          build/stm32f4xx_hal_cortex.o
HAL_NVIC_DisableIRQ                               build/stm32f4xx_hal_cortex.o
                                                  build/usbd_conf.o
HAL_NVIC_EnableIRQ                                build/stm32f4xx_hal_cortex.o
                                                  build/usbd_conf.o
HAL_NVIC_GetActive                                build/stm32f4xx_hal_cortex.o
HAL_NVIC_GetPendingIRQ                            build/stm32f4xx_hal_cortex.o
HAL_NVIC_GetPriority                              build/stm32f4xx_hal_cortex.o
HAL_NVIC_GetPriorityGrouping                      build/stm32f4xx_hal_cortex.o
HAL_NVIC_SetPendingIRQ                            build/stm32f4xx_hal_cortex.o
HAL_NVIC_SetPriority                              build/stm32f4xx_hal_cortex.o
                                                  build/stm32f4xx_hal.o
                                                  build/usbd_conf.o
HAL_NVIC_SetPriorityGrouping                      build/stm32f4xx_hal_cortex.o
                                                  build/stm32f4xx_hal.o
HAL_NVIC_SystemReset                              build/stm32f4xx_hal_cortex.o
HAL_PCDEx_BCD_Callback                            build/stm32f4xx_hal_pcd_ex.o
HAL_PCDEx_LPM_Callback                            build/stm32f4xx_hal_pcd_ex.o
                                                  build/stm32f4xx_hal_pcd.o
HAL_PCDEx_SetRxFiFo                               build/stm32f4xx_hal_pcd_ex.o
                                                  build/usbd_conf.o
HAL_PCDEx_SetTxFiFo                               build/stm32f4xx_hal_pcd_ex.o
                                                  build/usbd_conf.o
HAL_PCD_ActivateRemoteWakeup                      build/stm32f4xx_hal_pcd.o
HAL_PCD_ConnectCallback                           build/usbd_conf.o
HAL_PCD_DataInStageCallback                       build/usbd_conf.o
HAL_PCD_DataOutStageCallback                      build/usbd_conf.o
HAL_PCD_DeActivateRemoteWakeup                    build/stm32f4xx_hal_pcd.o
HAL_PCD_DeInit                                    build/stm32f4xx_hal_pcd.o
                                                  build/usbd_conf.o
HAL_PCD_DevConnect                                build/stm32f4xx_hal_pcd.o
HAL_PCD_DevDisconnect                             build/stm32f4xx_hal_pcd.o
HAL_PCD_DisconnectCallback                        build/usbd_conf.o
HAL_PCD_EP_Abort                                  build/stm32f4xx_hal_pcd.o
HAL_PCD_EP_Close                                  build/stm32f4xx_hal_pcd.o
                                                  build/usbd_conf.o
HAL_PCD_EP_ClrStall                               build/stm32f4xx_hal_pcd.o
                                                  build/usbd_conf.o
HAL_PCD_EP_Flush                                  build/stm32f4xx_hal_pcd.o
                                                  build/usbd_conf.o
HAL_PCD_EP_GetRxCount                             build/stm32f4xx_hal_pcd.o
                                                  build/usbd_conf.o
HAL_PCD_EP_Open                                   build/stm32f4xx_hal_pcd.o
                                                  build/usbd_conf.o
HAL_PCD_EP_Receive                                build/stm32f4xx_hal_pcd.o
                                                  build/usbd_conf.o
HAL_PCD_EP_SetStall                               build/stm32f4xx_hal_pcd.o
                                                  build/usbd_conf.o
HAL_PCD_EP_Transmit                               build/stm32f4xx_hal_pcd.o
                                                  build/usbd_conf.o
HAL_PCD_GetState                                  build/stm32f4xx_hal_pcd.o
HAL_PCD_IRQHandler                                build/stm32f4xx_hal_pcd.o
                                                  build/stm32f4xx_it.o
HAL_PCD_ISOINIncompleteCallback                   build/usbd_conf.o
HAL_PCD_ISOOUTIncompleteCallback                  build/usbd_conf.o
HAL_PCD_Init                                      build/stm32f4xx_hal_pcd.o
                                                  build/usbd_conf.o
HAL_PCD_MspDeInit                                 build/usbd_conf.o
HAL_PCD_MspInit                                   build/usbd_conf.o
HAL_PCD_ResetCallback                             build/usbd_conf.o
HAL_PCD_ResumeCallback                            build/usbd_conf.o
HAL_PCD_SOFCallback                               build/usbd_conf.o
HAL_PCD_SetAddress                                build/stm32f4xx_hal_pcd.o
                                                  build/usbd_conf.o
HAL_PCD_SetTestMode                               build/stm32f4xx_hal_pcd.o
HAL_PCD_SetupStageCallback                        build/usbd_conf.o
HAL_PCD_Start                                     build/stm32f4xx_hal_pcd.o
                                                  build/usbd_conf.o
HAL_PCD_Stop                                      build/stm32f4xx_hal_pcd.o
                                                  build/usbd_conf.o
HAL_PCD_SuspendCallback                           build/usbd_conf.o
HAL_PCD_WKUP_IRQHandler                           build/stm32f4xx_hal_pcd.o
HAL_PWREx_ControlVoltageScaling                   build/stm32f4xx_hal_pwr_ex.o
HAL_PWREx_DisableBkUpReg                          build/stm32f4xx_hal_pwr_ex.o
HAL_PWREx_DisableFlashPowerDown                   build/stm32f4xx_hal_pwr_ex.o
HAL_PWREx_DisableLowRegulatorLowVoltage           build/stm32f4xx_hal_pwr_ex.o
HAL_PWREx_DisableMainRegulatorLowVoltage          build/stm32f4xx_hal_pwr_ex.o
HAL_PWREx_EnableBkUpReg                           build/stm32f4xx_hal_pwr_ex.o
HAL_PWREx_EnableFlashPowerDown                    build/stm32f4xx_hal_pwr_ex.o
HAL_PWREx_EnableLowRegulatorLowVoltage            build/stm32f4xx_hal_pwr_ex.o
HAL_PWREx_EnableMainRegulatorLowVoltage           build/stm32f4xx_hal_pwr_ex.o
HAL_PWREx_GetVoltageRange                         build/stm32f4xx_hal_pwr_ex.o
HAL_PWR_ConfigPVD                                 build/stm32f4xx_hal_pwr.o
HAL_PWR_DeInit                                    build/stm32f4xx_hal_pwr.o
HAL_PWR_DisableBkUpAccess                         build/stm32f4xx_hal_pwr.o
HAL_PWR_DisablePVD                                build/stm32f4xx_hal_pwr.o
HAL_PWR_DisableSEVOnPend                          build/stm32f4xx_hal_pwr.o
HAL_PWR_DisableSleepOnExit                        build/stm32f4xx_hal_pwr.o
HAL_PWR_DisableWakeUpPin                          build/stm32f4xx_hal_pwr.o
HAL_PWR_EnableBkUpAccess                          build/stm32f4xx_hal_pwr.o
HAL_PWR_EnablePVD                                 build/stm32f4xx_hal_pwr.o
HAL_PWR_EnableSEVOnPend                           build/stm32f4xx_hal_pwr.o
HAL_PWR_EnableSleepOnExit                         build/stm32f4xx_hal_pwr.o
HAL_PWR_EnableWakeUpPin                           build/stm32f4xx_hal_pwr.o
HAL_PWR_EnterSLEEPMode                            build/stm32f4xx_hal_pwr.o
HAL_PWR_EnterSTANDBYMode                          build/stm32f4xx_hal_pwr.o
HAL_PWR_EnterSTOPMode                             build/stm32f4xx_hal_pwr.o
HAL_PWR_PVDCallback                               build/stm32f4xx_hal_pwr.o
HAL_PWR_PVD_IRQHandler                            build/stm32f4xx_hal_pwr.o
HAL_RCCEx_DisablePLLI2S                           build/stm32f4xx_hal_rcc_ex.o
HAL_RCCEx_EnablePLLI2S                            build/stm32f4xx_hal_rcc_ex.o
HAL_RCCEx_GetPeriphCLKConfig                      build/stm32f4xx_hal_rcc_ex.o
HAL_RCCEx_GetPeriphCLKFreq                        build/stm32f4xx_hal_rcc_ex.o
HAL_RCCEx_PeriphCLKConfig                         build/stm32f4xx_hal_rcc_ex.o
HAL_RCCEx_SelectLSEMode                           build/stm32f4xx_hal_rcc_ex.o
HAL_RCC_CSSCallback                               build/stm32f4xx_hal_rcc.o
HAL_RCC_ClockConfig                               build/stm32f4xx_hal_rcc.o
                                                  build/main.o
HAL_RCC_DeInit                                    build/stm32f4xx_hal_rcc_ex.o
                                                  build/stm32f4xx_hal_rcc.o
HAL_RCC_DisableCSS                                build/stm32f4xx_hal_rcc.o
HAL_RCC_EnableCSS                                 build/stm32f4xx_hal_rcc.o
HAL_RCC_GetClockConfig                            build/stm32f4xx_hal_rcc.o
HAL_RCC_GetHCLKFreq                               build/stm32f4xx_hal_rcc.o
                                                  build/stm32f4xx_hal_pcd.o
HAL_RCC_GetOscConfig                              build/stm32f4xx_hal_rcc.o
HAL_RCC_GetPCLK1Freq                              build/stm32f4xx_hal_rcc.o
HAL_RCC_GetPCLK2Freq                              build/stm32f4xx_hal_rcc.o
HAL_RCC_GetSysClockFreq                           build/stm32f4xx_hal_rcc.o
HAL_RCC_MCOConfig                                 build/stm32f4xx_hal_rcc.o
HAL_RCC_NMI_IRQHandler                            build/stm32f4xx_hal_rcc.o
HAL_RCC_OscConfig                                 build/stm32f4xx_hal_rcc.o
                                                  build/main.o
HAL_ResumeTick                                    build/stm32f4xx_hal.o
HAL_SYSTICK_CLKSourceConfig                       build/stm32f4xx_hal_cortex.o
HAL_SYSTICK_Callback                              build/stm32f4xx_hal_cortex.o
HAL_SYSTICK_Config                                build/stm32f4xx_hal_cortex.o
                                                  build/stm32f4xx_hal.o
HAL_SYSTICK_IRQHandler                            build/stm32f4xx_hal_cortex.o
HAL_SetTickFreq                                   build/stm32f4xx_hal.o
HAL_SuspendTick                                   build/stm32f4xx_hal.o
HardFault_Handler                                 build/stm32f4xx_it.o
I2C1_ER_IRQHandler                                build/startup_stm32f411xe.o
I2C1_EV_IRQHandler                                build/startup_stm32f411xe.o
I2C2_ER_IRQHandler                                build/startup_stm32f411xe.o
I2C2_EV_IRQHandler                                build/startup_stm32f411xe.o
I2C3_ER_IRQHandler                                build/startup_stm32f411xe.o
I2C3_EV_IRQHandler                                build/startup_stm32f411xe.o
IIspSubCommandHandler::DecodeCmdReq(unsigned char*) build/main.o
                                                  build/Darin3.o
IIspSubCommandHandler::EnocdeCmdRes(unsigned char, unsigned char*, unsigned short) build/main.o
                                                  build/Darin3.o
IIspSubCommandHandler::getSubCmd()                build/main.o
                                                  build/Darin3.o
IIspSubCommandHandler::prepareDataToTx(unsigned char const*, unsigned char, unsigned long&) build/main.o
                                                  build/Darin3.o
IIspSubCommandHandler::prepareForRx(unsigned char const*, unsigned char, unsigned long) build/main.o
                                                  build/Darin3.o
IIspSubCommandHandler::processCmdReq(unsigned char*) build/main.o
                                                  build/Darin3.o
IIspSubCommandHandler::processRxData(unsigned char const*, unsigned char, unsigned long) build/main.o
                                                  build/Darin3.o
IIspSubCommandHandler::~IIspSubCommandHandler()   build/main.o
                                                  build/Darin3.o
IIspSubCommandHandler::~IIspSubCommandHandler()   build/main.o
                                                  build/Darin3.o
IIspSubCommandHandler::~IIspSubCommandHandler()   build/main.o
                                                  build/Darin3.o
IspCmdControl::IspCmdControl()                    build/IspCmdControl.o
IspCmdControl::IspCmdControl()                    build/IspCmdControl.o
                                                  build/main.o
IspCmdControl::execute(unsigned char*, unsigned long) build/IspCmdControl.o
IspCmdControl::findHandler(IspSubCommand)         build/IspCmdControl.o
IspCmdControl::match(unsigned char)               build/IspCmdControl.o
IspCmdControl::registerSubCmdHandlers(IIspSubCommandHandler*) build/IspCmdControl.o
                                                  build/main.o
IspCmdControl::setSubProcessor(IspSubCommandProcessor*) build/IspCmdControl.o
                                                  build/main.o
IspCmdControl::~IspCmdControl()                   build/IspCmdControl.o
                                                  build/main.o
IspCmdControl::~IspCmdControl()                   build/IspCmdControl.o
IspCmdControl::~IspCmdControl()                   build/IspCmdControl.o
IspCmdReceiveData::IspCmdReceiveData()            build/IspCmdReceiveData.o
IspCmdReceiveData::IspCmdReceiveData()            build/IspCmdReceiveData.o
                                                  build/main.o
IspCmdReceiveData::execute(unsigned char*, unsigned long) build/IspCmdReceiveData.o
IspCmdReceiveData::handleDataChunk(unsigned char const*, unsigned long) build/IspCmdReceiveData.o
IspCmdReceiveData::handleStartCommand(unsigned char const*, unsigned long) build/IspCmdReceiveData.o
IspCmdReceiveData::match(unsigned char)           build/IspCmdReceiveData.o
IspCmdReceiveData::reset()                        build/IspCmdReceiveData.o
IspCmdReceiveData::sendAck(unsigned short, IspReturnCodes) build/IspCmdReceiveData.o
IspCmdReceiveData::sendDoneAck(IspReturnCodes)    build/IspCmdReceiveData.o
IspCmdReceiveData::sendNack(unsigned short, IspReturnCodes) build/IspCmdReceiveData.o
IspCmdReceiveData::sendRXAck(unsigned char)       build/IspCmdReceiveData.o
IspCmdReceiveData::sendRXNack(unsigned char, IspReturnCodes) build/IspCmdReceiveData.o
IspCmdReceiveData::setSubProcessor(IspSubCommandProcessor*) build/IspCmdReceiveData.o
                                                  build/main.o
IspCmdReceiveData::~IspCmdReceiveData()           build/main.o
                                                  build/IspCmdReceiveData.o
IspCmdReceiveData::~IspCmdReceiveData()           build/main.o
                                                  build/IspCmdReceiveData.o
IspCmdReceiveData::~IspCmdReceiveData()           build/main.o
                                                  build/IspCmdReceiveData.o
IspCmdTransmitData::IspCmdTransmitData()          build/IspCmdTransmitData.o
                                                  build/main.o
IspCmdTransmitData::IspCmdTransmitData()          build/IspCmdTransmitData.o
IspCmdTransmitData::execute(unsigned char*, unsigned long) build/IspCmdTransmitData.o
IspCmdTransmitData::handleAck(unsigned char*, unsigned long) build/IspCmdTransmitData.o
IspCmdTransmitData::handleAckDone()               build/IspCmdTransmitData.o
IspCmdTransmitData::handleNack(unsigned char*, unsigned long) build/IspCmdTransmitData.o
IspCmdTransmitData::handleTxDataCommand(unsigned char*, unsigned long) build/IspCmdTransmitData.o
IspCmdTransmitData::handleTxReset()               build/IspCmdTransmitData.o
IspCmdTransmitData::match(unsigned char)          build/IspCmdTransmitData.o
IspCmdTransmitData::resendPacketForSequence(unsigned short) build/IspCmdTransmitData.o
IspCmdTransmitData::reset()                       build/IspCmdTransmitData.o
IspCmdTransmitData::sendNextPacket(unsigned short) build/IspCmdTransmitData.o
IspCmdTransmitData::sendTXNack(unsigned char, unsigned char) build/IspCmdTransmitData.o
IspCmdTransmitData::setDataToSend(unsigned long)  build/IspCmdTransmitData.o
IspCmdTransmitData::setSubProcessor(IspSubCommandProcessor*) build/IspCmdTransmitData.o
                                                  build/main.o
IspCmdTransmitData::startTransmission()           build/IspCmdTransmitData.o
IspCmdTransmitData::~IspCmdTransmitData()         build/main.o
                                                  build/IspCmdTransmitData.o
IspCmdTransmitData::~IspCmdTransmitData()         build/main.o
                                                  build/IspCmdTransmitData.o
IspCmdTransmitData::~IspCmdTransmitData()         build/main.o
                                                  build/IspCmdTransmitData.o
IspCommandHandler::setTransport(IspTransportInterface*) build/main.o
                                                  build/IspCmdTransmitData.o
                                                  build/IspCmdReceiveData.o
                                                  build/IspCmdControl.o
IspCommandManager::IspCommandManager()            build/IspCommandManager.o
                                                  build/main.o
IspCommandManager::IspCommandManager()            build/IspCommandManager.o
IspCommandManager::addHandler(IspCommandHandler*) build/IspCommandManager.o
                                                  build/main.o
IspCommandManager::getBoardID()                   build/IspCommandManager.o
IspCommandManager::handleData(unsigned char*, unsigned long) build/IspCommandManager.o
                                                  build/main.o
IspCommandManager::setBoardID(IspBoardId)         build/IspCommandManager.o
                                                  build/main.o
IspCommandManager::tick()                         build/IspCommandManager.o
IspCtrl                                           build/main.o
IspManager                                        build/main.o
IspRx                                             build/main.o
IspSubCommandProcessor::IspSubCommandProcessor()  build/IspSubCommandProcessor.o
IspSubCommandProcessor::IspSubCommandProcessor()  build/IspSubCommandProcessor.o
                                                  build/main.o
IspSubCommandProcessor::findHandler(unsigned char) build/IspSubCommandProcessor.o
IspSubCommandProcessor::prepareForRx(unsigned char, unsigned char const*, unsigned long) build/IspSubCommandProcessor.o
                                                  build/IspCmdReceiveData.o
IspSubCommandProcessor::prepareTxData(unsigned char, unsigned char const*, unsigned long&) build/IspSubCommandProcessor.o
                                                  build/IspCmdTransmitData.o
IspSubCommandProcessor::processRxSubCommand(unsigned char, unsigned char const*, unsigned long) build/IspSubCommandProcessor.o
                                                  build/IspCmdReceiveData.o
IspSubCommandProcessor::registerHandler(unsigned char, IIspSubCommandHandler*) build/IspSubCommandProcessor.o
                                                  build/main.o
IspTransportInterface::flush()                    build/main.o
                                                  build/SerialTransport.o
IspTransportInterface::name() const               build/main.o
                                                  build/SerialTransport.o
IspTransportInterface::receive(unsigned char*, unsigned int) build/main.o
                                                  build/SerialTransport.o
IspTransportInterface::status() const             build/main.o
                                                  build/SerialTransport.o
IspTx                                             build/main.o
Isp_forward_data                                  build/main.o
                                                  build/usbd_cdc_if.o
LedLoopBack                                       build/Darin3Cart_Driver.o
                                                  build/main.o
LedLoopBack_SubCmdProcess::getSubCmd()            build/main.o
LedLoopBack_SubCmdProcess::processCmdReq(unsigned char*) build/main.o
LedLoopBack_SubCmdProcess::~LedLoopBack_SubCmdProcess() build/main.o
LedLoopBack_SubCmdProcess::~LedLoopBack_SubCmdProcess() build/main.o
LedLoopBack_SubCmdProcess::~LedLoopBack_SubCmdProcess() build/main.o
MX_USB_DEVICE_Init                                build/usb_device.o
                                                  build/main.o
M_D0                                              build/Darin3Cart_Driver.o
M_D1                                              build/Darin3Cart_Driver.o
M_D2                                              build/Darin3Cart_Driver.o
M_D3                                              build/Darin3Cart_Driver.o
M_D4                                              build/Darin3Cart_Driver.o
M_D5                                              build/Darin3Cart_Driver.o
M_D6                                              build/Darin3Cart_Driver.o
M_D7                                              build/Darin3Cart_Driver.o
MemManage_Handler                                 build/stm32f4xx_it.o
NMI_Handler                                       build/stm32f4xx_it.o
OTG_FS_IRQHandler                                 build/stm32f4xx_it.o
OTG_FS_WKUP_IRQHandler                            build/startup_stm32f411xe.o
PVD_IRQHandler                                    build/startup_stm32f411xe.o
PendSV_Handler                                    build/stm32f4xx_it.o
RCC_IRQHandler                                    build/startup_stm32f411xe.o
RTC_Alarm_IRQHandler                              build/startup_stm32f411xe.o
RTC_WKUP_IRQHandler                               build/startup_stm32f411xe.o
Read_address_port                                 build/Darin3Cart_Driver.o
RedLed_SubCmdProcess::getSubCmd()                 build/main.o
RedLed_SubCmdProcess::processCmdReq(unsigned char*) build/main.o
RedLed_SubCmdProcess::~RedLed_SubCmdProcess()     build/main.o
RedLed_SubCmdProcess::~RedLed_SubCmdProcess()     build/main.o
RedLed_SubCmdProcess::~RedLed_SubCmdProcess()     build/main.o
Reset_Handler                                     build/startup_stm32f411xe.o
SDIO_IRQHandler                                   build/startup_stm32f411xe.o
SPI1_IRQHandler                                   build/startup_stm32f411xe.o
SPI2_IRQHandler                                   build/startup_stm32f411xe.o
SPI3_IRQHandler                                   build/startup_stm32f411xe.o
SPI4_IRQHandler                                   build/startup_stm32f411xe.o
SPI5_IRQHandler                                   build/startup_stm32f411xe.o
SVC_Handler                                       build/stm32f4xx_it.o
SafeReadFromRxBuffer(unsigned char*, unsigned long, unsigned long) build/safeBuffer.o
SafeReadFromTxBuffer(unsigned char*, unsigned long, unsigned long) build/safeBuffer.o
SafeWriteToRxBuffer(unsigned char const*, unsigned long, unsigned long) build/safeBuffer.o
                                                  build/IspCmdReceiveData.o
                                                  build/Darin3.o
                                                  build/main.o
SafeWriteToTxBuffer(unsigned char const*, unsigned long, unsigned long) build/safeBuffer.o
                                                  build/Darin3.o
                                                  build/main.o
SetCartNo                                         build/diskio.o
                                                  build/Darin3.o
                                                  build/main.o
SlotLedBlink_SubCmdProcess::getSubCmd()           build/main.o
SlotLedBlink_SubCmdProcess::processCmdReq(unsigned char*) build/main.o
SlotLedBlink_SubCmdProcess::~SlotLedBlink_SubCmdProcess() build/main.o
SlotLedBlink_SubCmdProcess::~SlotLedBlink_SubCmdProcess() build/main.o
SlotLedBlink_SubCmdProcess::~SlotLedBlink_SubCmdProcess() build/main.o
SysTick_Handler                                   build/stm32f4xx_it.o
SystemClock_Config()                              build/main.o
SystemCoreClock                                   build/system_stm32f4xx.o
                                                  build/stm32f4xx_hal.o
                                                  build/stm32f4xx_hal_dma.o
                                                  build/stm32f4xx_hal_rcc_ex.o
                                                  build/stm32f4xx_hal_rcc.o
SystemCoreClockUpdate                             build/system_stm32f4xx.o
SystemInit                                        build/system_stm32f4xx.o
                                                  build/startup_stm32f411xe.o
TAMP_STAMP_IRQHandler                             build/startup_stm32f411xe.o
TIM1_BRK_TIM9_IRQHandler                          build/startup_stm32f411xe.o
TIM1_CC_IRQHandler                                build/startup_stm32f411xe.o
TIM1_TRG_COM_TIM11_IRQHandler                     build/startup_stm32f411xe.o
TIM1_UP_TIM10_IRQHandler                          build/startup_stm32f411xe.o
TIM2_IRQHandler                                   build/startup_stm32f411xe.o
TIM3_IRQHandler                                   build/startup_stm32f411xe.o
TIM4_IRQHandler                                   build/startup_stm32f411xe.o
TIM5_IRQHandler                                   build/startup_stm32f411xe.o
USART1_IRQHandler                                 build/startup_stm32f411xe.o
USART2_IRQHandler                                 build/startup_stm32f411xe.o
USART6_IRQHandler                                 build/startup_stm32f411xe.o
USBD_CDC                                          build/usbd_cdc.o
                                                  build/usb_device.o
USBD_CDC_GetDeviceQualifierDescriptor             build/usbd_cdc.o
USBD_CDC_ReceivePacket                            build/usbd_cdc.o
                                                  build/usbd_cdc_if.o
USBD_CDC_RegisterInterface                        build/usbd_cdc.o
                                                  build/usb_device.o
USBD_CDC_SetRxBuffer                              build/usbd_cdc.o
                                                  build/usbd_cdc_if.o
USBD_CDC_SetTxBuffer                              build/usbd_cdc.o
                                                  build/usbd_cdc_if.o
USBD_CDC_TransmitPacket                           build/usbd_cdc.o
                                                  build/usbd_cdc_if.o
USBD_ClrClassConfig                               build/usbd_core.o
                                                  build/usbd_ctlreq.o
USBD_CoreFindEP                                   build/usbd_core.o
                                                  build/usbd_ctlreq.o
USBD_CoreFindIF                                   build/usbd_core.o
                                                  build/usbd_ctlreq.o
USBD_CtlContinueRx                                build/usbd_ioreq.o
                                                  build/usbd_core.o
USBD_CtlContinueSendData                          build/usbd_ioreq.o
                                                  build/usbd_core.o
USBD_CtlError                                     build/usbd_ctlreq.o
                                                  build/usbd_cdc.o
USBD_CtlPrepareRx                                 build/usbd_ioreq.o
                                                  build/usbd_cdc.o
USBD_CtlReceiveStatus                             build/usbd_ioreq.o
                                                  build/usbd_core.o
USBD_CtlSendData                                  build/usbd_ioreq.o
                                                  build/usbd_cdc.o
                                                  build/usbd_ctlreq.o
USBD_CtlSendStatus                                build/usbd_ioreq.o
                                                  build/usbd_ctlreq.o
                                                  build/usbd_core.o
USBD_DeInit                                       build/usbd_core.o
USBD_FS_ConfigStrDescriptor                       build/usbd_desc.o
USBD_FS_DeviceDesc                                build/usbd_desc.o
USBD_FS_DeviceDescriptor                          build/usbd_desc.o
USBD_FS_InterfaceStrDescriptor                    build/usbd_desc.o
USBD_FS_LangIDStrDescriptor                       build/usbd_desc.o
USBD_FS_ManufacturerStrDescriptor                 build/usbd_desc.o
USBD_FS_ProductStrDescriptor                      build/usbd_desc.o
USBD_FS_SerialStrDescriptor                       build/usbd_desc.o
USBD_GetEpDesc                                    build/usbd_core.o
                                                  build/usbd_cdc.o
USBD_GetNextDesc                                  build/usbd_core.o
USBD_GetRxCount                                   build/usbd_ioreq.o
USBD_GetString                                    build/usbd_ctlreq.o
                                                  build/usbd_desc.o
USBD_Get_USB_Status                               build/usbd_conf.o
USBD_Init                                         build/usbd_core.o
                                                  build/usb_device.o
USBD_Interface_fops_FS                            build/usbd_cdc_if.o
                                                  build/usb_device.o
USBD_LL_ClearStallEP                              build/usbd_conf.o
                                                  build/usbd_ctlreq.o
USBD_LL_CloseEP                                   build/usbd_conf.o
                                                  build/usbd_cdc.o
USBD_LL_DataInStage                               build/usbd_core.o
                                                  build/usbd_conf.o
USBD_LL_DataOutStage                              build/usbd_core.o
                                                  build/usbd_conf.o
USBD_LL_DeInit                                    build/usbd_conf.o
                                                  build/usbd_core.o
USBD_LL_Delay                                     build/usbd_conf.o
USBD_LL_DevConnected                              build/usbd_core.o
                                                  build/usbd_conf.o
USBD_LL_DevDisconnected                           build/usbd_core.o
                                                  build/usbd_conf.o
USBD_LL_FlushEP                                   build/usbd_conf.o
USBD_LL_GetRxDataSize                             build/usbd_conf.o
                                                  build/usbd_cdc.o
                                                  build/usbd_ioreq.o
USBD_LL_Init                                      build/usbd_conf.o
                                                  build/usbd_core.o
USBD_LL_IsStallEP                                 build/usbd_conf.o
                                                  build/usbd_ctlreq.o
USBD_LL_IsoINIncomplete                           build/usbd_core.o
                                                  build/usbd_conf.o
USBD_LL_IsoOUTIncomplete                          build/usbd_core.o
                                                  build/usbd_conf.o
USBD_LL_OpenEP                                    build/usbd_conf.o
                                                  build/usbd_cdc.o
                                                  build/usbd_core.o
USBD_LL_PrepareReceive                            build/usbd_conf.o
                                                  build/usbd_cdc.o
                                                  build/usbd_ioreq.o
                                                  build/usbd_core.o
USBD_LL_Reset                                     build/usbd_core.o
                                                  build/usbd_conf.o
USBD_LL_Resume                                    build/usbd_core.o
                                                  build/usbd_conf.o
USBD_LL_SOF                                       build/usbd_core.o
                                                  build/usbd_conf.o
USBD_LL_SetSpeed                                  build/usbd_core.o
                                                  build/usbd_conf.o
USBD_LL_SetUSBAddress                             build/usbd_conf.o
                                                  build/usbd_ctlreq.o
USBD_LL_SetupStage                                build/usbd_core.o
                                                  build/usbd_conf.o
USBD_LL_StallEP                                   build/usbd_conf.o
                                                  build/usbd_ctlreq.o
                                                  build/usbd_core.o
USBD_LL_Start                                     build/usbd_conf.o
                                                  build/usbd_core.o
USBD_LL_Stop                                      build/usbd_conf.o
                                                  build/usbd_core.o
USBD_LL_Suspend                                   build/usbd_core.o
                                                  build/usbd_conf.o
USBD_LL_Transmit                                  build/usbd_conf.o
                                                  build/usbd_cdc.o
                                                  build/usbd_ioreq.o
USBD_LangIDDesc                                   build/usbd_desc.o
USBD_ParseSetupRequest                            build/usbd_ctlreq.o
                                                  build/usbd_core.o
USBD_RegisterClass                                build/usbd_core.o
                                                  build/usb_device.o
USBD_RunTestMode                                  build/usbd_core.o
USBD_SetClassConfig                               build/usbd_core.o
                                                  build/usbd_ctlreq.o
USBD_Start                                        build/usbd_core.o
                                                  build/usb_device.o
USBD_StdDevReq                                    build/usbd_ctlreq.o
                                                  build/usbd_core.o
USBD_StdEPReq                                     build/usbd_ctlreq.o
                                                  build/usbd_core.o
USBD_StdItfReq                                    build/usbd_ctlreq.o
                                                  build/usbd_core.o
USBD_Stop                                         build/usbd_core.o
USBD_StrDesc                                      build/usbd_desc.o
USBD_StringSerial                                 build/usbd_desc.o
USBD_static_free                                  build/usbd_conf.o
                                                  build/usbd_cdc.o
USBD_static_malloc                                build/usbd_conf.o
                                                  build/usbd_cdc.o
USB_ActivateDedicatedEndpoint                     build/stm32f4xx_ll_usb.o
USB_ActivateEndpoint                              build/stm32f4xx_ll_usb.o
                                                  build/stm32f4xx_hal_pcd.o
USB_ActivateRemoteWakeup                          build/stm32f4xx_ll_usb.o
                                                  build/stm32f4xx_hal_pcd.o
USB_ActivateSetup                                 build/stm32f4xx_ll_usb.o
                                                  build/stm32f4xx_hal_pcd.o
USB_ClearInterrupts                               build/stm32f4xx_ll_usb.o
USB_CoreInit                                      build/stm32f4xx_ll_usb.o
                                                  build/stm32f4xx_hal_pcd.o
USB_DeActivateRemoteWakeup                        build/stm32f4xx_ll_usb.o
                                                  build/stm32f4xx_hal_pcd.o
USB_DeactivateDedicatedEndpoint                   build/stm32f4xx_ll_usb.o
USB_DeactivateEndpoint                            build/stm32f4xx_ll_usb.o
                                                  build/stm32f4xx_hal_pcd.o
USB_DevConnect                                    build/stm32f4xx_ll_usb.o
                                                  build/stm32f4xx_hal_pcd.o
USB_DevDisconnect                                 build/stm32f4xx_ll_usb.o
                                                  build/stm32f4xx_hal_pcd.o
USB_DevInit                                       build/stm32f4xx_ll_usb.o
                                                  build/stm32f4xx_hal_pcd.o
USB_DisableGlobalInt                              build/stm32f4xx_ll_usb.o
                                                  build/stm32f4xx_hal_pcd.o
USB_DoPing                                        build/stm32f4xx_ll_usb.o
USB_DriveVbus                                     build/stm32f4xx_ll_usb.o
USB_EP0_OutStart                                  build/stm32f4xx_ll_usb.o
                                                  build/stm32f4xx_hal_pcd.o
USB_EPClearStall                                  build/stm32f4xx_ll_usb.o
                                                  build/stm32f4xx_hal_pcd.o
USB_EPSetStall                                    build/stm32f4xx_ll_usb.o
                                                  build/stm32f4xx_hal_pcd.o
USB_EPStartXfer                                   build/stm32f4xx_ll_usb.o
                                                  build/stm32f4xx_hal_pcd.o
USB_EPStopXfer                                    build/stm32f4xx_ll_usb.o
                                                  build/stm32f4xx_hal_pcd.o
USB_EnableGlobalInt                               build/stm32f4xx_ll_usb.o
                                                  build/stm32f4xx_hal_pcd.o
USB_FlushRxFifo                                   build/stm32f4xx_ll_usb.o
                                                  build/stm32f4xx_hal_pcd.o
USB_FlushTxFifo                                   build/stm32f4xx_ll_usb.o
                                                  build/stm32f4xx_hal_pcd.o
USB_GetCurrentFrame                               build/stm32f4xx_ll_usb.o
USB_GetDevSpeed                                   build/stm32f4xx_ll_usb.o
                                                  build/stm32f4xx_hal_pcd.o
USB_GetHostSpeed                                  build/stm32f4xx_ll_usb.o
USB_GetMode                                       build/stm32f4xx_ll_usb.o
                                                  build/stm32f4xx_hal_pcd.o
USB_HC_Halt                                       build/stm32f4xx_ll_usb.o
USB_HC_Init                                       build/stm32f4xx_ll_usb.o
USB_HC_ReadInterrupt                              build/stm32f4xx_ll_usb.o
USB_HC_StartXfer                                  build/stm32f4xx_ll_usb.o
USB_HostInit                                      build/stm32f4xx_ll_usb.o
USB_InitFSLSPClkSel                               build/stm32f4xx_ll_usb.o
USB_ReadChInterrupts                              build/stm32f4xx_ll_usb.o
USB_ReadDevAllInEpInterrupt                       build/stm32f4xx_ll_usb.o
                                                  build/stm32f4xx_hal_pcd.o
USB_ReadDevAllOutEpInterrupt                      build/stm32f4xx_ll_usb.o
                                                  build/stm32f4xx_hal_pcd.o
USB_ReadDevInEPInterrupt                          build/stm32f4xx_ll_usb.o
                                                  build/stm32f4xx_hal_pcd.o
USB_ReadDevOutEPInterrupt                         build/stm32f4xx_ll_usb.o
                                                  build/stm32f4xx_hal_pcd.o
USB_ReadInterrupts                                build/stm32f4xx_ll_usb.o
                                                  build/stm32f4xx_hal_pcd.o
USB_ReadPacket                                    build/stm32f4xx_ll_usb.o
                                                  build/stm32f4xx_hal_pcd.o
USB_ResetPort                                     build/stm32f4xx_ll_usb.o
USB_SetCurrentMode                                build/stm32f4xx_ll_usb.o
                                                  build/stm32f4xx_hal_pcd.o
USB_SetDevAddress                                 build/stm32f4xx_ll_usb.o
                                                  build/stm32f4xx_hal_pcd.o
USB_SetDevSpeed                                   build/stm32f4xx_ll_usb.o
USB_SetTurnaroundTime                             build/stm32f4xx_ll_usb.o
                                                  build/stm32f4xx_hal_pcd.o
USB_StopDevice                                    build/stm32f4xx_ll_usb.o
                                                  build/stm32f4xx_hal_pcd.o
USB_StopHost                                      build/stm32f4xx_ll_usb.o
USB_WritePacket                                   build/stm32f4xx_ll_usb.o
                                                  build/stm32f4xx_hal_pcd.o
UpdateD3SlotStatus                                build/Darin3Cart_Driver.o
                                                  build/main.o
UpdateSlotLed()                                   build/main.o
UsageFault_Handler                                build/stm32f4xx_it.o
UsbIspTransport::name() const                     build/SerialTransport.o
UsbIspTransport::transmit(unsigned char const volatile*, unsigned int) build/SerialTransport.o
UsbIspTransport::~UsbIspTransport()               build/main.o
                                                  build/SerialTransport.o
UsbIspTransport::~UsbIspTransport()               build/main.o
                                                  build/SerialTransport.o
UsbIspTransport::~UsbIspTransport()               build/main.o
                                                  build/SerialTransport.o
UserRxBufferFS                                    build/usbd_cdc_if.o
UserTxBufferFS                                    build/usbd_cdc_if.o
WWDG_IRQHandler                                   build/startup_stm32f411xe.o
_Min_Stack_Size                                   build/sysmem.o
__aeabi_atexit                                    c:/program files (x86)/gnu arm embedded toolchain/10 2021.10/bin/../lib/gcc/arm-none-eabi/10.3.1/../../../../arm-none-eabi/lib/thumb/v7e-m+fp/hard\libc_nano.a(lib_a-aeabi_atexit.o)
                                                  build/Darin3.o
                                                  build/main.o
__aeabi_idiv0                                     c:/program files (x86)/gnu arm embedded toolchain/10 2021.10/bin/../lib/gcc/arm-none-eabi/10.3.1/thumb/v7e-m+fp/hard\libgcc.a(_dvmd_tls.o)
__aeabi_ldiv0                                     c:/program files (x86)/gnu arm embedded toolchain/10 2021.10/bin/../lib/gcc/arm-none-eabi/10.3.1/thumb/v7e-m+fp/hard\libgcc.a(_dvmd_tls.o)
                                                  c:/program files (x86)/gnu arm embedded toolchain/10 2021.10/bin/../lib/gcc/arm-none-eabi/10.3.1/thumb/v7e-m+fp/hard\libgcc.a(_aeabi_uldivmod.o)
__aeabi_uldivmod                                  c:/program files (x86)/gnu arm embedded toolchain/10 2021.10/bin/../lib/gcc/arm-none-eabi/10.3.1/thumb/v7e-m+fp/hard\libgcc.a(_aeabi_uldivmod.o)
                                                  build/stm32f4xx_hal_rcc.o
__bss_end__                                       c:/program files (x86)/gnu arm embedded toolchain/10 2021.10/bin/../lib/gcc/arm-none-eabi/10.3.1/../../../../arm-none-eabi/lib/thumb/v7e-m+fp/hard/crt0.o
__bss_start__                                     c:/program files (x86)/gnu arm embedded toolchain/10 2021.10/bin/../lib/gcc/arm-none-eabi/10.3.1/../../../../arm-none-eabi/lib/thumb/v7e-m+fp/hard/crt0.o
__call_exitprocs                                  c:/program files (x86)/gnu arm embedded toolchain/10 2021.10/bin/../lib/gcc/arm-none-eabi/10.3.1/../../../../arm-none-eabi/lib/thumb/v7e-m+fp/hard\libc_nano.a(lib_a-exit.o)
__cxa_atexit                                      c:/program files (x86)/gnu arm embedded toolchain/10 2021.10/bin/../lib/gcc/arm-none-eabi/10.3.1/../../../../arm-none-eabi/lib/thumb/v7e-m+fp/hard\libc_nano.a(lib_a-cxa_atexit.o)
                                                  c:/program files (x86)/gnu arm embedded toolchain/10 2021.10/bin/../lib/gcc/arm-none-eabi/10.3.1/../../../../arm-none-eabi/lib/thumb/v7e-m+fp/hard\libc_nano.a(lib_a-aeabi_atexit.o)
__cxa_atexit_dummy                                c:/program files (x86)/gnu arm embedded toolchain/10 2021.10/bin/../lib/gcc/arm-none-eabi/10.3.1/../../../../arm-none-eabi/lib/thumb/v7e-m+fp/hard\libc_nano.a(lib_a-cxa_atexit.o)
__cxa_end_cleanup                                 build/cpp_minimal.o
__cxa_guard_abort                                 build/cpp_minimal.o
__cxa_guard_acquire                               build/cpp_minimal.o
                                                  build/Darin3.o
                                                  build/main.o
__cxa_guard_release                               build/cpp_minimal.o
                                                  build/Darin3.o
                                                  build/main.o
__cxa_pure_virtual                                build/cpp_minimal.o
                                                  build/IspCmdTransmitData.o
                                                  build/IspCmdReceiveData.o
                                                  build/IspCmdControl.o
                                                  build/SerialTransport.o
                                                  build/main.o
__deregister_frame_info                           c:/program files (x86)/gnu arm embedded toolchain/10 2021.10/bin/../lib/gcc/arm-none-eabi/10.3.1/thumb/v7e-m+fp/hard/crtbegin.o
__dso_handle                                      c:/program files (x86)/gnu arm embedded toolchain/10 2021.10/bin/../lib/gcc/arm-none-eabi/10.3.1/thumb/v7e-m+fp/hard/crtbegin.o
                                                  build/Darin3.o
                                                  build/main.o
__env                                             build/syscalls.o
__errno                                           c:/program files (x86)/gnu arm embedded toolchain/10 2021.10/bin/../lib/gcc/arm-none-eabi/10.3.1/../../../../arm-none-eabi/lib/thumb/v7e-m+fp/hard\libc_nano.a(lib_a-errno.o)
                                                  build/syscalls.o
                                                  build/sysmem.o
__fp_lock_all                                     c:/program files (x86)/gnu arm embedded toolchain/10 2021.10/bin/../lib/gcc/arm-none-eabi/10.3.1/../../../../arm-none-eabi/lib/thumb/v7e-m+fp/hard\libc_nano.a(lib_a-findfp.o)
__fp_unlock_all                                   c:/program files (x86)/gnu arm embedded toolchain/10 2021.10/bin/../lib/gcc/arm-none-eabi/10.3.1/../../../../arm-none-eabi/lib/thumb/v7e-m+fp/hard\libc_nano.a(lib_a-findfp.o)
__gxx_personality_v0                              build/cpp_minimal.o
__init_array_end                                  c:/program files (x86)/gnu arm embedded toolchain/10 2021.10/bin/../lib/gcc/arm-none-eabi/10.3.1/../../../../arm-none-eabi/lib/thumb/v7e-m+fp/hard\libc_nano.a(lib_a-init.o)
__init_array_start                                c:/program files (x86)/gnu arm embedded toolchain/10 2021.10/bin/../lib/gcc/arm-none-eabi/10.3.1/../../../../arm-none-eabi/lib/thumb/v7e-m+fp/hard\libc_nano.a(lib_a-init.o)
__io_getchar                                      build/syscalls.o
__io_putchar                                      build/syscalls.o
__libc_fini_array                                 c:/program files (x86)/gnu arm embedded toolchain/10 2021.10/bin/../lib/gcc/arm-none-eabi/10.3.1/../../../../arm-none-eabi/lib/thumb/v7e-m+fp/hard/crt0.o
__libc_init_array                                 c:/program files (x86)/gnu arm embedded toolchain/10 2021.10/bin/../lib/gcc/arm-none-eabi/10.3.1/../../../../arm-none-eabi/lib/thumb/v7e-m+fp/hard\libc_nano.a(lib_a-init.o)
                                                  build/startup_stm32f411xe.o
                                                  c:/program files (x86)/gnu arm embedded toolchain/10 2021.10/bin/../lib/gcc/arm-none-eabi/10.3.1/../../../../arm-none-eabi/lib/thumb/v7e-m+fp/hard/crt0.o
__lock___arc4random_mutex                         c:/program files (x86)/gnu arm embedded toolchain/10 2021.10/bin/../lib/gcc/arm-none-eabi/10.3.1/../../../../arm-none-eabi/lib/thumb/v7e-m+fp/hard\libc_nano.a(lib_a-lock.o)
__lock___at_quick_exit_mutex                      c:/program files (x86)/gnu arm embedded toolchain/10 2021.10/bin/../lib/gcc/arm-none-eabi/10.3.1/../../../../arm-none-eabi/lib/thumb/v7e-m+fp/hard\libc_nano.a(lib_a-lock.o)
__lock___atexit_recursive_mutex                   c:/program files (x86)/gnu arm embedded toolchain/10 2021.10/bin/../lib/gcc/arm-none-eabi/10.3.1/../../../../arm-none-eabi/lib/thumb/v7e-m+fp/hard\libc_nano.a(lib_a-lock.o)
__lock___dd_hash_mutex                            c:/program files (x86)/gnu arm embedded toolchain/10 2021.10/bin/../lib/gcc/arm-none-eabi/10.3.1/../../../../arm-none-eabi/lib/thumb/v7e-m+fp/hard\libc_nano.a(lib_a-lock.o)
__lock___env_recursive_mutex                      c:/program files (x86)/gnu arm embedded toolchain/10 2021.10/bin/../lib/gcc/arm-none-eabi/10.3.1/../../../../arm-none-eabi/lib/thumb/v7e-m+fp/hard\libc_nano.a(lib_a-lock.o)
__lock___malloc_recursive_mutex                   c:/program files (x86)/gnu arm embedded toolchain/10 2021.10/bin/../lib/gcc/arm-none-eabi/10.3.1/../../../../arm-none-eabi/lib/thumb/v7e-m+fp/hard\libc_nano.a(lib_a-lock.o)
                                                  c:/program files (x86)/gnu arm embedded toolchain/10 2021.10/bin/../lib/gcc/arm-none-eabi/10.3.1/../../../../arm-none-eabi/lib/thumb/v7e-m+fp/hard\libc_nano.a(lib_a-mlock.o)
__lock___sfp_recursive_mutex                      c:/program files (x86)/gnu arm embedded toolchain/10 2021.10/bin/../lib/gcc/arm-none-eabi/10.3.1/../../../../arm-none-eabi/lib/thumb/v7e-m+fp/hard\libc_nano.a(lib_a-lock.o)
                                                  c:/program files (x86)/gnu arm embedded toolchain/10 2021.10/bin/../lib/gcc/arm-none-eabi/10.3.1/../../../../arm-none-eabi/lib/thumb/v7e-m+fp/hard\libc_nano.a(lib_a-findfp.o)
__lock___sinit_recursive_mutex                    c:/program files (x86)/gnu arm embedded toolchain/10 2021.10/bin/../lib/gcc/arm-none-eabi/10.3.1/../../../../arm-none-eabi/lib/thumb/v7e-m+fp/hard\libc_nano.a(lib_a-lock.o)
                                                  c:/program files (x86)/gnu arm embedded toolchain/10 2021.10/bin/../lib/gcc/arm-none-eabi/10.3.1/../../../../arm-none-eabi/lib/thumb/v7e-m+fp/hard\libc_nano.a(lib_a-findfp.o)
__lock___tz_mutex                                 c:/program files (x86)/gnu arm embedded toolchain/10 2021.10/bin/../lib/gcc/arm-none-eabi/10.3.1/../../../../arm-none-eabi/lib/thumb/v7e-m+fp/hard\libc_nano.a(lib_a-lock.o)
__malloc_free_list                                c:/program files (x86)/gnu arm embedded toolchain/10 2021.10/bin/../lib/gcc/arm-none-eabi/10.3.1/../../../../arm-none-eabi/lib/thumb/v7e-m+fp/hard\libc_nano.a(lib_a-nano-mallocr.o)
                                                  c:/program files (x86)/gnu arm embedded toolchain/10 2021.10/bin/../lib/gcc/arm-none-eabi/10.3.1/../../../../arm-none-eabi/lib/thumb/v7e-m+fp/hard\libc_nano.a(lib_a-nano-freer.o)
__malloc_lock                                     c:/program files (x86)/gnu arm embedded toolchain/10 2021.10/bin/../lib/gcc/arm-none-eabi/10.3.1/../../../../arm-none-eabi/lib/thumb/v7e-m+fp/hard\libc_nano.a(lib_a-mlock.o)
                                                  c:/program files (x86)/gnu arm embedded toolchain/10 2021.10/bin/../lib/gcc/arm-none-eabi/10.3.1/../../../../arm-none-eabi/lib/thumb/v7e-m+fp/hard\libc_nano.a(lib_a-nano-mallocr.o)
                                                  c:/program files (x86)/gnu arm embedded toolchain/10 2021.10/bin/../lib/gcc/arm-none-eabi/10.3.1/../../../../arm-none-eabi/lib/thumb/v7e-m+fp/hard\libc_nano.a(lib_a-nano-freer.o)
__malloc_sbrk_start                               c:/program files (x86)/gnu arm embedded toolchain/10 2021.10/bin/../lib/gcc/arm-none-eabi/10.3.1/../../../../arm-none-eabi/lib/thumb/v7e-m+fp/hard\libc_nano.a(lib_a-nano-mallocr.o)
__malloc_unlock                                   c:/program files (x86)/gnu arm embedded toolchain/10 2021.10/bin/../lib/gcc/arm-none-eabi/10.3.1/../../../../arm-none-eabi/lib/thumb/v7e-m+fp/hard\libc_nano.a(lib_a-mlock.o)
                                                  c:/program files (x86)/gnu arm embedded toolchain/10 2021.10/bin/../lib/gcc/arm-none-eabi/10.3.1/../../../../arm-none-eabi/lib/thumb/v7e-m+fp/hard\libc_nano.a(lib_a-nano-mallocr.o)
                                                  c:/program files (x86)/gnu arm embedded toolchain/10 2021.10/bin/../lib/gcc/arm-none-eabi/10.3.1/../../../../arm-none-eabi/lib/thumb/v7e-m+fp/hard\libc_nano.a(lib_a-nano-freer.o)
__on_exit_args                                    c:/program files (x86)/gnu arm embedded toolchain/10 2021.10/bin/../lib/gcc/arm-none-eabi/10.3.1/../../../../arm-none-eabi/lib/thumb/v7e-m+fp/hard\libc_nano.a(lib_a-on_exit_args.o)
                                                  c:/program files (x86)/gnu arm embedded toolchain/10 2021.10/bin/../lib/gcc/arm-none-eabi/10.3.1/../../../../arm-none-eabi/lib/thumb/v7e-m+fp/hard\libc_nano.a(lib_a-cxa_atexit.o)
__preinit_array_end                               c:/program files (x86)/gnu arm embedded toolchain/10 2021.10/bin/../lib/gcc/arm-none-eabi/10.3.1/../../../../arm-none-eabi/lib/thumb/v7e-m+fp/hard\libc_nano.a(lib_a-init.o)
__preinit_array_start                             c:/program files (x86)/gnu arm embedded toolchain/10 2021.10/bin/../lib/gcc/arm-none-eabi/10.3.1/../../../../arm-none-eabi/lib/thumb/v7e-m+fp/hard\libc_nano.a(lib_a-init.o)
__register_exitproc                               c:/program files (x86)/gnu arm embedded toolchain/10 2021.10/bin/../lib/gcc/arm-none-eabi/10.3.1/../../../../arm-none-eabi/lib/thumb/v7e-m+fp/hard\libc_nano.a(lib_a-cxa_atexit.o)
__register_frame_info                             c:/program files (x86)/gnu arm embedded toolchain/10 2021.10/bin/../lib/gcc/arm-none-eabi/10.3.1/thumb/v7e-m+fp/hard/crtbegin.o
__retarget_lock_acquire                           c:/program files (x86)/gnu arm embedded toolchain/10 2021.10/bin/../lib/gcc/arm-none-eabi/10.3.1/../../../../arm-none-eabi/lib/thumb/v7e-m+fp/hard\libc_nano.a(lib_a-lock.o)
__retarget_lock_acquire_recursive                 c:/program files (x86)/gnu arm embedded toolchain/10 2021.10/bin/../lib/gcc/arm-none-eabi/10.3.1/../../../../arm-none-eabi/lib/thumb/v7e-m+fp/hard\libc_nano.a(lib_a-lock.o)
                                                  c:/program files (x86)/gnu arm embedded toolchain/10 2021.10/bin/../lib/gcc/arm-none-eabi/10.3.1/../../../../arm-none-eabi/lib/thumb/v7e-m+fp/hard\libc_nano.a(lib_a-fflush.o)
                                                  c:/program files (x86)/gnu arm embedded toolchain/10 2021.10/bin/../lib/gcc/arm-none-eabi/10.3.1/../../../../arm-none-eabi/lib/thumb/v7e-m+fp/hard\libc_nano.a(lib_a-nano-vfprintf.o)
                                                  c:/program files (x86)/gnu arm embedded toolchain/10 2021.10/bin/../lib/gcc/arm-none-eabi/10.3.1/../../../../arm-none-eabi/lib/thumb/v7e-m+fp/hard\libc_nano.a(lib_a-mlock.o)
                                                  c:/program files (x86)/gnu arm embedded toolchain/10 2021.10/bin/../lib/gcc/arm-none-eabi/10.3.1/../../../../arm-none-eabi/lib/thumb/v7e-m+fp/hard\libc_nano.a(lib_a-findfp.o)
__retarget_lock_close                             c:/program files (x86)/gnu arm embedded toolchain/10 2021.10/bin/../lib/gcc/arm-none-eabi/10.3.1/../../../../arm-none-eabi/lib/thumb/v7e-m+fp/hard\libc_nano.a(lib_a-lock.o)
__retarget_lock_close_recursive                   c:/program files (x86)/gnu arm embedded toolchain/10 2021.10/bin/../lib/gcc/arm-none-eabi/10.3.1/../../../../arm-none-eabi/lib/thumb/v7e-m+fp/hard\libc_nano.a(lib_a-lock.o)
__retarget_lock_init                              c:/program files (x86)/gnu arm embedded toolchain/10 2021.10/bin/../lib/gcc/arm-none-eabi/10.3.1/../../../../arm-none-eabi/lib/thumb/v7e-m+fp/hard\libc_nano.a(lib_a-lock.o)
__retarget_lock_init_recursive                    c:/program files (x86)/gnu arm embedded toolchain/10 2021.10/bin/../lib/gcc/arm-none-eabi/10.3.1/../../../../arm-none-eabi/lib/thumb/v7e-m+fp/hard\libc_nano.a(lib_a-lock.o)
                                                  c:/program files (x86)/gnu arm embedded toolchain/10 2021.10/bin/../lib/gcc/arm-none-eabi/10.3.1/../../../../arm-none-eabi/lib/thumb/v7e-m+fp/hard\libc_nano.a(lib_a-findfp.o)
__retarget_lock_release                           c:/program files (x86)/gnu arm embedded toolchain/10 2021.10/bin/../lib/gcc/arm-none-eabi/10.3.1/../../../../arm-none-eabi/lib/thumb/v7e-m+fp/hard\libc_nano.a(lib_a-lock.o)
__retarget_lock_release_recursive                 c:/program files (x86)/gnu arm embedded toolchain/10 2021.10/bin/../lib/gcc/arm-none-eabi/10.3.1/../../../../arm-none-eabi/lib/thumb/v7e-m+fp/hard\libc_nano.a(lib_a-lock.o)
                                                  c:/program files (x86)/gnu arm embedded toolchain/10 2021.10/bin/../lib/gcc/arm-none-eabi/10.3.1/../../../../arm-none-eabi/lib/thumb/v7e-m+fp/hard\libc_nano.a(lib_a-fflush.o)
                                                  c:/program files (x86)/gnu arm embedded toolchain/10 2021.10/bin/../lib/gcc/arm-none-eabi/10.3.1/../../../../arm-none-eabi/lib/thumb/v7e-m+fp/hard\libc_nano.a(lib_a-nano-vfprintf.o)
                                                  c:/program files (x86)/gnu arm embedded toolchain/10 2021.10/bin/../lib/gcc/arm-none-eabi/10.3.1/../../../../arm-none-eabi/lib/thumb/v7e-m+fp/hard\libc_nano.a(lib_a-mlock.o)
                                                  c:/program files (x86)/gnu arm embedded toolchain/10 2021.10/bin/../lib/gcc/arm-none-eabi/10.3.1/../../../../arm-none-eabi/lib/thumb/v7e-m+fp/hard\libc_nano.a(lib_a-findfp.o)
__retarget_lock_try_acquire                       c:/program files (x86)/gnu arm embedded toolchain/10 2021.10/bin/../lib/gcc/arm-none-eabi/10.3.1/../../../../arm-none-eabi/lib/thumb/v7e-m+fp/hard\libc_nano.a(lib_a-lock.o)
__retarget_lock_try_acquire_recursive             c:/program files (x86)/gnu arm embedded toolchain/10 2021.10/bin/../lib/gcc/arm-none-eabi/10.3.1/../../../../arm-none-eabi/lib/thumb/v7e-m+fp/hard\libc_nano.a(lib_a-lock.o)
__sclose                                          c:/program files (x86)/gnu arm embedded toolchain/10 2021.10/bin/../lib/gcc/arm-none-eabi/10.3.1/../../../../arm-none-eabi/lib/thumb/v7e-m+fp/hard\libc_nano.a(lib_a-stdio.o)
                                                  c:/program files (x86)/gnu arm embedded toolchain/10 2021.10/bin/../lib/gcc/arm-none-eabi/10.3.1/../../../../arm-none-eabi/lib/thumb/v7e-m+fp/hard\libc_nano.a(lib_a-findfp.o)
__seofread                                        c:/program files (x86)/gnu arm embedded toolchain/10 2021.10/bin/../lib/gcc/arm-none-eabi/10.3.1/../../../../arm-none-eabi/lib/thumb/v7e-m+fp/hard\libc_nano.a(lib_a-stdio.o)
__sf_fake_stderr                                  c:/program files (x86)/gnu arm embedded toolchain/10 2021.10/bin/../lib/gcc/arm-none-eabi/10.3.1/../../../../arm-none-eabi/lib/thumb/v7e-m+fp/hard\libc_nano.a(lib_a-findfp.o)
                                                  c:/program files (x86)/gnu arm embedded toolchain/10 2021.10/bin/../lib/gcc/arm-none-eabi/10.3.1/../../../../arm-none-eabi/lib/thumb/v7e-m+fp/hard\libc_nano.a(lib_a-fflush.o)
                                                  c:/program files (x86)/gnu arm embedded toolchain/10 2021.10/bin/../lib/gcc/arm-none-eabi/10.3.1/../../../../arm-none-eabi/lib/thumb/v7e-m+fp/hard\libc_nano.a(lib_a-wsetup.o)
                                                  c:/program files (x86)/gnu arm embedded toolchain/10 2021.10/bin/../lib/gcc/arm-none-eabi/10.3.1/../../../../arm-none-eabi/lib/thumb/v7e-m+fp/hard\libc_nano.a(lib_a-wbuf.o)
                                                  c:/program files (x86)/gnu arm embedded toolchain/10 2021.10/bin/../lib/gcc/arm-none-eabi/10.3.1/../../../../arm-none-eabi/lib/thumb/v7e-m+fp/hard\libc_nano.a(lib_a-nano-vfprintf.o)
                                                  c:/program files (x86)/gnu arm embedded toolchain/10 2021.10/bin/../lib/gcc/arm-none-eabi/10.3.1/../../../../arm-none-eabi/lib/thumb/v7e-m+fp/hard\libc_nano.a(lib_a-impure.o)
__sf_fake_stdin                                   c:/program files (x86)/gnu arm embedded toolchain/10 2021.10/bin/../lib/gcc/arm-none-eabi/10.3.1/../../../../arm-none-eabi/lib/thumb/v7e-m+fp/hard\libc_nano.a(lib_a-findfp.o)
                                                  c:/program files (x86)/gnu arm embedded toolchain/10 2021.10/bin/../lib/gcc/arm-none-eabi/10.3.1/../../../../arm-none-eabi/lib/thumb/v7e-m+fp/hard\libc_nano.a(lib_a-fflush.o)
                                                  c:/program files (x86)/gnu arm embedded toolchain/10 2021.10/bin/../lib/gcc/arm-none-eabi/10.3.1/../../../../arm-none-eabi/lib/thumb/v7e-m+fp/hard\libc_nano.a(lib_a-wsetup.o)
                                                  c:/program files (x86)/gnu arm embedded toolchain/10 2021.10/bin/../lib/gcc/arm-none-eabi/10.3.1/../../../../arm-none-eabi/lib/thumb/v7e-m+fp/hard\libc_nano.a(lib_a-wbuf.o)
                                                  c:/program files (x86)/gnu arm embedded toolchain/10 2021.10/bin/../lib/gcc/arm-none-eabi/10.3.1/../../../../arm-none-eabi/lib/thumb/v7e-m+fp/hard\libc_nano.a(lib_a-nano-vfprintf.o)
                                                  c:/program files (x86)/gnu arm embedded toolchain/10 2021.10/bin/../lib/gcc/arm-none-eabi/10.3.1/../../../../arm-none-eabi/lib/thumb/v7e-m+fp/hard\libc_nano.a(lib_a-impure.o)
__sf_fake_stdout                                  c:/program files (x86)/gnu arm embedded toolchain/10 2021.10/bin/../lib/gcc/arm-none-eabi/10.3.1/../../../../arm-none-eabi/lib/thumb/v7e-m+fp/hard\libc_nano.a(lib_a-findfp.o)
                                                  c:/program files (x86)/gnu arm embedded toolchain/10 2021.10/bin/../lib/gcc/arm-none-eabi/10.3.1/../../../../arm-none-eabi/lib/thumb/v7e-m+fp/hard\libc_nano.a(lib_a-fflush.o)
                                                  c:/program files (x86)/gnu arm embedded toolchain/10 2021.10/bin/../lib/gcc/arm-none-eabi/10.3.1/../../../../arm-none-eabi/lib/thumb/v7e-m+fp/hard\libc_nano.a(lib_a-wsetup.o)
                                                  c:/program files (x86)/gnu arm embedded toolchain/10 2021.10/bin/../lib/gcc/arm-none-eabi/10.3.1/../../../../arm-none-eabi/lib/thumb/v7e-m+fp/hard\libc_nano.a(lib_a-wbuf.o)
                                                  c:/program files (x86)/gnu arm embedded toolchain/10 2021.10/bin/../lib/gcc/arm-none-eabi/10.3.1/../../../../arm-none-eabi/lib/thumb/v7e-m+fp/hard\libc_nano.a(lib_a-nano-vfprintf.o)
                                                  c:/program files (x86)/gnu arm embedded toolchain/10 2021.10/bin/../lib/gcc/arm-none-eabi/10.3.1/../../../../arm-none-eabi/lib/thumb/v7e-m+fp/hard\libc_nano.a(lib_a-impure.o)
__sflush_r                                        c:/program files (x86)/gnu arm embedded toolchain/10 2021.10/bin/../lib/gcc/arm-none-eabi/10.3.1/../../../../arm-none-eabi/lib/thumb/v7e-m+fp/hard\libc_nano.a(lib_a-fflush.o)
__sfmoreglue                                      c:/program files (x86)/gnu arm embedded toolchain/10 2021.10/bin/../lib/gcc/arm-none-eabi/10.3.1/../../../../arm-none-eabi/lib/thumb/v7e-m+fp/hard\libc_nano.a(lib_a-findfp.o)
__sfp                                             c:/program files (x86)/gnu arm embedded toolchain/10 2021.10/bin/../lib/gcc/arm-none-eabi/10.3.1/../../../../arm-none-eabi/lib/thumb/v7e-m+fp/hard\libc_nano.a(lib_a-findfp.o)
__sfp_lock_acquire                                c:/program files (x86)/gnu arm embedded toolchain/10 2021.10/bin/../lib/gcc/arm-none-eabi/10.3.1/../../../../arm-none-eabi/lib/thumb/v7e-m+fp/hard\libc_nano.a(lib_a-findfp.o)
__sfp_lock_release                                c:/program files (x86)/gnu arm embedded toolchain/10 2021.10/bin/../lib/gcc/arm-none-eabi/10.3.1/../../../../arm-none-eabi/lib/thumb/v7e-m+fp/hard\libc_nano.a(lib_a-findfp.o)
__sfputs_r                                        c:/program files (x86)/gnu arm embedded toolchain/10 2021.10/bin/../lib/gcc/arm-none-eabi/10.3.1/../../../../arm-none-eabi/lib/thumb/v7e-m+fp/hard\libc_nano.a(lib_a-nano-vfprintf.o)
__sfvwrite_r                                      c:/program files (x86)/gnu arm embedded toolchain/10 2021.10/bin/../lib/gcc/arm-none-eabi/10.3.1/../../../../arm-none-eabi/lib/thumb/v7e-m+fp/hard\libc_nano.a(lib_a-fvwrite.o)
                                                  c:/program files (x86)/gnu arm embedded toolchain/10 2021.10/bin/../lib/gcc/arm-none-eabi/10.3.1/../../../../arm-none-eabi/lib/thumb/v7e-m+fp/hard\libc_nano.a(lib_a-nano-vfprintf.o)
__sinit                                           c:/program files (x86)/gnu arm embedded toolchain/10 2021.10/bin/../lib/gcc/arm-none-eabi/10.3.1/../../../../arm-none-eabi/lib/thumb/v7e-m+fp/hard\libc_nano.a(lib_a-findfp.o)
                                                  c:/program files (x86)/gnu arm embedded toolchain/10 2021.10/bin/../lib/gcc/arm-none-eabi/10.3.1/../../../../arm-none-eabi/lib/thumb/v7e-m+fp/hard\libc_nano.a(lib_a-fflush.o)
                                                  c:/program files (x86)/gnu arm embedded toolchain/10 2021.10/bin/../lib/gcc/arm-none-eabi/10.3.1/../../../../arm-none-eabi/lib/thumb/v7e-m+fp/hard\libc_nano.a(lib_a-wsetup.o)
                                                  c:/program files (x86)/gnu arm embedded toolchain/10 2021.10/bin/../lib/gcc/arm-none-eabi/10.3.1/../../../../arm-none-eabi/lib/thumb/v7e-m+fp/hard\libc_nano.a(lib_a-wbuf.o)
                                                  c:/program files (x86)/gnu arm embedded toolchain/10 2021.10/bin/../lib/gcc/arm-none-eabi/10.3.1/../../../../arm-none-eabi/lib/thumb/v7e-m+fp/hard\libc_nano.a(lib_a-nano-vfprintf.o)
                                                  c:/program files (x86)/gnu arm embedded toolchain/10 2021.10/bin/../lib/gcc/arm-none-eabi/10.3.1/../../../../arm-none-eabi/lib/thumb/v7e-m+fp/hard\libc_nano.a(lib_a-printf.o)
__sinit_lock_acquire                              c:/program files (x86)/gnu arm embedded toolchain/10 2021.10/bin/../lib/gcc/arm-none-eabi/10.3.1/../../../../arm-none-eabi/lib/thumb/v7e-m+fp/hard\libc_nano.a(lib_a-findfp.o)
__sinit_lock_release                              c:/program files (x86)/gnu arm embedded toolchain/10 2021.10/bin/../lib/gcc/arm-none-eabi/10.3.1/../../../../arm-none-eabi/lib/thumb/v7e-m+fp/hard\libc_nano.a(lib_a-findfp.o)
__smakebuf_r                                      c:/program files (x86)/gnu arm embedded toolchain/10 2021.10/bin/../lib/gcc/arm-none-eabi/10.3.1/../../../../arm-none-eabi/lib/thumb/v7e-m+fp/hard\libc_nano.a(lib_a-makebuf.o)
                                                  c:/program files (x86)/gnu arm embedded toolchain/10 2021.10/bin/../lib/gcc/arm-none-eabi/10.3.1/../../../../arm-none-eabi/lib/thumb/v7e-m+fp/hard\libc_nano.a(lib_a-wsetup.o)
__sprint_r                                        c:/program files (x86)/gnu arm embedded toolchain/10 2021.10/bin/../lib/gcc/arm-none-eabi/10.3.1/../../../../arm-none-eabi/lib/thumb/v7e-m+fp/hard\libc_nano.a(lib_a-nano-vfprintf.o)
__sread                                           c:/program files (x86)/gnu arm embedded toolchain/10 2021.10/bin/../lib/gcc/arm-none-eabi/10.3.1/../../../../arm-none-eabi/lib/thumb/v7e-m+fp/hard\libc_nano.a(lib_a-stdio.o)
                                                  c:/program files (x86)/gnu arm embedded toolchain/10 2021.10/bin/../lib/gcc/arm-none-eabi/10.3.1/../../../../arm-none-eabi/lib/thumb/v7e-m+fp/hard\libc_nano.a(lib_a-findfp.o)
__sseek                                           c:/program files (x86)/gnu arm embedded toolchain/10 2021.10/bin/../lib/gcc/arm-none-eabi/10.3.1/../../../../arm-none-eabi/lib/thumb/v7e-m+fp/hard\libc_nano.a(lib_a-stdio.o)
                                                  c:/program files (x86)/gnu arm embedded toolchain/10 2021.10/bin/../lib/gcc/arm-none-eabi/10.3.1/../../../../arm-none-eabi/lib/thumb/v7e-m+fp/hard\libc_nano.a(lib_a-findfp.o)
__ssprint_r                                       c:/program files (x86)/gnu arm embedded toolchain/10 2021.10/bin/../lib/gcc/arm-none-eabi/10.3.1/../../../../arm-none-eabi/lib/thumb/v7e-m+fp/hard\libc_nano.a(lib_a-nano-svfprintf.o)
__ssputs_r                                        c:/program files (x86)/gnu arm embedded toolchain/10 2021.10/bin/../lib/gcc/arm-none-eabi/10.3.1/../../../../arm-none-eabi/lib/thumb/v7e-m+fp/hard\libc_nano.a(lib_a-nano-svfprintf.o)
__stack                                           c:/program files (x86)/gnu arm embedded toolchain/10 2021.10/bin/../lib/gcc/arm-none-eabi/10.3.1/../../../../arm-none-eabi/lib/thumb/v7e-m+fp/hard/crt0.o
__swbuf                                           c:/program files (x86)/gnu arm embedded toolchain/10 2021.10/bin/../lib/gcc/arm-none-eabi/10.3.1/../../../../arm-none-eabi/lib/thumb/v7e-m+fp/hard\libc_nano.a(lib_a-wbuf.o)
__swbuf_r                                         c:/program files (x86)/gnu arm embedded toolchain/10 2021.10/bin/../lib/gcc/arm-none-eabi/10.3.1/../../../../arm-none-eabi/lib/thumb/v7e-m+fp/hard\libc_nano.a(lib_a-wbuf.o)
                                                  c:/program files (x86)/gnu arm embedded toolchain/10 2021.10/bin/../lib/gcc/arm-none-eabi/10.3.1/../../../../arm-none-eabi/lib/thumb/v7e-m+fp/hard\libc_nano.a(lib_a-nano-vfprintf.o)
__swhatbuf_r                                      c:/program files (x86)/gnu arm embedded toolchain/10 2021.10/bin/../lib/gcc/arm-none-eabi/10.3.1/../../../../arm-none-eabi/lib/thumb/v7e-m+fp/hard\libc_nano.a(lib_a-makebuf.o)
__swrite                                          c:/program files (x86)/gnu arm embedded toolchain/10 2021.10/bin/../lib/gcc/arm-none-eabi/10.3.1/../../../../arm-none-eabi/lib/thumb/v7e-m+fp/hard\libc_nano.a(lib_a-stdio.o)
                                                  c:/program files (x86)/gnu arm embedded toolchain/10 2021.10/bin/../lib/gcc/arm-none-eabi/10.3.1/../../../../arm-none-eabi/lib/thumb/v7e-m+fp/hard\libc_nano.a(lib_a-findfp.o)
__swsetup_r                                       c:/program files (x86)/gnu arm embedded toolchain/10 2021.10/bin/../lib/gcc/arm-none-eabi/10.3.1/../../../../arm-none-eabi/lib/thumb/v7e-m+fp/hard\libc_nano.a(lib_a-wsetup.o)
                                                  c:/program files (x86)/gnu arm embedded toolchain/10 2021.10/bin/../lib/gcc/arm-none-eabi/10.3.1/../../../../arm-none-eabi/lib/thumb/v7e-m+fp/hard\libc_nano.a(lib_a-fvwrite.o)
                                                  c:/program files (x86)/gnu arm embedded toolchain/10 2021.10/bin/../lib/gcc/arm-none-eabi/10.3.1/../../../../arm-none-eabi/lib/thumb/v7e-m+fp/hard\libc_nano.a(lib_a-wbuf.o)
                                                  c:/program files (x86)/gnu arm embedded toolchain/10 2021.10/bin/../lib/gcc/arm-none-eabi/10.3.1/../../../../arm-none-eabi/lib/thumb/v7e-m+fp/hard\libc_nano.a(lib_a-nano-vfprintf.o)
__udivmoddi4                                      c:/program files (x86)/gnu arm embedded toolchain/10 2021.10/bin/../lib/gcc/arm-none-eabi/10.3.1/thumb/v7e-m+fp/hard\libgcc.a(_udivmoddi4.o)
                                                  c:/program files (x86)/gnu arm embedded toolchain/10 2021.10/bin/../lib/gcc/arm-none-eabi/10.3.1/thumb/v7e-m+fp/hard\libgcc.a(_aeabi_uldivmod.o)
_cleanup                                          c:/program files (x86)/gnu arm embedded toolchain/10 2021.10/bin/../lib/gcc/arm-none-eabi/10.3.1/../../../../arm-none-eabi/lib/thumb/v7e-m+fp/hard\libc_nano.a(lib_a-findfp.o)
_cleanup_r                                        c:/program files (x86)/gnu arm embedded toolchain/10 2021.10/bin/../lib/gcc/arm-none-eabi/10.3.1/../../../../arm-none-eabi/lib/thumb/v7e-m+fp/hard\libc_nano.a(lib_a-findfp.o)
                                                  c:/program files (x86)/gnu arm embedded toolchain/10 2021.10/bin/../lib/gcc/arm-none-eabi/10.3.1/../../../../arm-none-eabi/lib/thumb/v7e-m+fp/hard\libc_nano.a(lib_a-makebuf.o)
_close                                            build/syscalls.o
                                                  c:/program files (x86)/gnu arm embedded toolchain/10 2021.10/bin/../lib/gcc/arm-none-eabi/10.3.1/../../../../arm-none-eabi/lib/thumb/v7e-m+fp/hard\libc_nano.a(lib_a-closer.o)
_close_r                                          c:/program files (x86)/gnu arm embedded toolchain/10 2021.10/bin/../lib/gcc/arm-none-eabi/10.3.1/../../../../arm-none-eabi/lib/thumb/v7e-m+fp/hard\libc_nano.a(lib_a-closer.o)
                                                  c:/program files (x86)/gnu arm embedded toolchain/10 2021.10/bin/../lib/gcc/arm-none-eabi/10.3.1/../../../../arm-none-eabi/lib/thumb/v7e-m+fp/hard\libc_nano.a(lib_a-stdio.o)
_ebss                                             build/startup_stm32f411xe.o
_edata                                            build/startup_stm32f411xe.o
_end                                              build/sysmem.o
_estack                                           build/startup_stm32f411xe.o
                                                  build/sysmem.o
_execve                                           build/syscalls.o
_exit                                             build/syscalls.o
                                                  c:/program files (x86)/gnu arm embedded toolchain/10 2021.10/bin/../lib/gcc/arm-none-eabi/10.3.1/../../../../arm-none-eabi/lib/thumb/v7e-m+fp/hard\libc_nano.a(lib_a-exit.o)
_fflush_r                                         c:/program files (x86)/gnu arm embedded toolchain/10 2021.10/bin/../lib/gcc/arm-none-eabi/10.3.1/../../../../arm-none-eabi/lib/thumb/v7e-m+fp/hard\libc_nano.a(lib_a-fflush.o)
                                                  c:/program files (x86)/gnu arm embedded toolchain/10 2021.10/bin/../lib/gcc/arm-none-eabi/10.3.1/../../../../arm-none-eabi/lib/thumb/v7e-m+fp/hard\libc_nano.a(lib_a-fvwrite.o)
                                                  c:/program files (x86)/gnu arm embedded toolchain/10 2021.10/bin/../lib/gcc/arm-none-eabi/10.3.1/../../../../arm-none-eabi/lib/thumb/v7e-m+fp/hard\libc_nano.a(lib_a-wbuf.o)
                                                  c:/program files (x86)/gnu arm embedded toolchain/10 2021.10/bin/../lib/gcc/arm-none-eabi/10.3.1/../../../../arm-none-eabi/lib/thumb/v7e-m+fp/hard\libc_nano.a(lib_a-findfp.o)
_fini                                             c:/program files (x86)/gnu arm embedded toolchain/10 2021.10/bin/../lib/gcc/arm-none-eabi/10.3.1/thumb/v7e-m+fp/hard/crti.o
_fork                                             build/syscalls.o
_free_r                                           c:/program files (x86)/gnu arm embedded toolchain/10 2021.10/bin/../lib/gcc/arm-none-eabi/10.3.1/../../../../arm-none-eabi/lib/thumb/v7e-m+fp/hard\libc_nano.a(lib_a-nano-freer.o)
                                                  c:/program files (x86)/gnu arm embedded toolchain/10 2021.10/bin/../lib/gcc/arm-none-eabi/10.3.1/../../../../arm-none-eabi/lib/thumb/v7e-m+fp/hard\libc_nano.a(lib_a-nano-reallocr.o)
                                                  c:/program files (x86)/gnu arm embedded toolchain/10 2021.10/bin/../lib/gcc/arm-none-eabi/10.3.1/../../../../arm-none-eabi/lib/thumb/v7e-m+fp/hard\libc_nano.a(lib_a-fvwrite.o)
                                                  c:/program files (x86)/gnu arm embedded toolchain/10 2021.10/bin/../lib/gcc/arm-none-eabi/10.3.1/../../../../arm-none-eabi/lib/thumb/v7e-m+fp/hard\libc_nano.a(lib_a-fflush.o)
                                                  c:/program files (x86)/gnu arm embedded toolchain/10 2021.10/bin/../lib/gcc/arm-none-eabi/10.3.1/../../../../arm-none-eabi/lib/thumb/v7e-m+fp/hard\libc_nano.a(lib_a-wsetup.o)
                                                  c:/program files (x86)/gnu arm embedded toolchain/10 2021.10/bin/../lib/gcc/arm-none-eabi/10.3.1/../../../../arm-none-eabi/lib/thumb/v7e-m+fp/hard\libc_nano.a(lib_a-reent.o)
                                                  c:/program files (x86)/gnu arm embedded toolchain/10 2021.10/bin/../lib/gcc/arm-none-eabi/10.3.1/../../../../arm-none-eabi/lib/thumb/v7e-m+fp/hard\libc_nano.a(lib_a-nano-svfprintf.o)
                                                  c:/program files (x86)/gnu arm embedded toolchain/10 2021.10/bin/../lib/gcc/arm-none-eabi/10.3.1/../../../../arm-none-eabi/lib/thumb/v7e-m+fp/hard\libc_nano.a(lib_a-malloc.o)
_fstat                                            build/syscalls.o
                                                  c:/program files (x86)/gnu arm embedded toolchain/10 2021.10/bin/../lib/gcc/arm-none-eabi/10.3.1/../../../../arm-none-eabi/lib/thumb/v7e-m+fp/hard\libc_nano.a(lib_a-fstatr.o)
_fstat_r                                          c:/program files (x86)/gnu arm embedded toolchain/10 2021.10/bin/../lib/gcc/arm-none-eabi/10.3.1/../../../../arm-none-eabi/lib/thumb/v7e-m+fp/hard\libc_nano.a(lib_a-fstatr.o)
                                                  c:/program files (x86)/gnu arm embedded toolchain/10 2021.10/bin/../lib/gcc/arm-none-eabi/10.3.1/../../../../arm-none-eabi/lib/thumb/v7e-m+fp/hard\libc_nano.a(lib_a-makebuf.o)
_fwalk                                            c:/program files (x86)/gnu arm embedded toolchain/10 2021.10/bin/../lib/gcc/arm-none-eabi/10.3.1/../../../../arm-none-eabi/lib/thumb/v7e-m+fp/hard\libc_nano.a(lib_a-fwalk.o)
                                                  c:/program files (x86)/gnu arm embedded toolchain/10 2021.10/bin/../lib/gcc/arm-none-eabi/10.3.1/../../../../arm-none-eabi/lib/thumb/v7e-m+fp/hard\libc_nano.a(lib_a-findfp.o)
_fwalk_reent                                      c:/program files (x86)/gnu arm embedded toolchain/10 2021.10/bin/../lib/gcc/arm-none-eabi/10.3.1/../../../../arm-none-eabi/lib/thumb/v7e-m+fp/hard\libc_nano.a(lib_a-fwalk.o)
                                                  c:/program files (x86)/gnu arm embedded toolchain/10 2021.10/bin/../lib/gcc/arm-none-eabi/10.3.1/../../../../arm-none-eabi/lib/thumb/v7e-m+fp/hard\libc_nano.a(lib_a-fflush.o)
                                                  c:/program files (x86)/gnu arm embedded toolchain/10 2021.10/bin/../lib/gcc/arm-none-eabi/10.3.1/../../../../arm-none-eabi/lib/thumb/v7e-m+fp/hard\libc_nano.a(lib_a-findfp.o)
_getpid                                           build/syscalls.o
_global_impure_ptr                                c:/program files (x86)/gnu arm embedded toolchain/10 2021.10/bin/../lib/gcc/arm-none-eabi/10.3.1/../../../../arm-none-eabi/lib/thumb/v7e-m+fp/hard\libc_nano.a(lib_a-impure.o)
                                                  c:/program files (x86)/gnu arm embedded toolchain/10 2021.10/bin/../lib/gcc/arm-none-eabi/10.3.1/../../../../arm-none-eabi/lib/thumb/v7e-m+fp/hard\libc_nano.a(lib_a-fflush.o)
                                                  c:/program files (x86)/gnu arm embedded toolchain/10 2021.10/bin/../lib/gcc/arm-none-eabi/10.3.1/../../../../arm-none-eabi/lib/thumb/v7e-m+fp/hard\libc_nano.a(lib_a-findfp.o)
                                                  c:/program files (x86)/gnu arm embedded toolchain/10 2021.10/bin/../lib/gcc/arm-none-eabi/10.3.1/../../../../arm-none-eabi/lib/thumb/v7e-m+fp/hard\libc_nano.a(lib_a-exit.o)
_impure_ptr                                       c:/program files (x86)/gnu arm embedded toolchain/10 2021.10/bin/../lib/gcc/arm-none-eabi/10.3.1/../../../../arm-none-eabi/lib/thumb/v7e-m+fp/hard\libc_nano.a(lib_a-impure.o)
                                                  c:/program files (x86)/gnu arm embedded toolchain/10 2021.10/bin/../lib/gcc/arm-none-eabi/10.3.1/../../../../arm-none-eabi/lib/thumb/v7e-m+fp/hard\libc_nano.a(lib_a-fflush.o)
                                                  c:/program files (x86)/gnu arm embedded toolchain/10 2021.10/bin/../lib/gcc/arm-none-eabi/10.3.1/../../../../arm-none-eabi/lib/thumb/v7e-m+fp/hard\libc_nano.a(lib_a-wsetup.o)
                                                  c:/program files (x86)/gnu arm embedded toolchain/10 2021.10/bin/../lib/gcc/arm-none-eabi/10.3.1/../../../../arm-none-eabi/lib/thumb/v7e-m+fp/hard\libc_nano.a(lib_a-wbuf.o)
                                                  c:/program files (x86)/gnu arm embedded toolchain/10 2021.10/bin/../lib/gcc/arm-none-eabi/10.3.1/../../../../arm-none-eabi/lib/thumb/v7e-m+fp/hard\libc_nano.a(lib_a-reent.o)
                                                  c:/program files (x86)/gnu arm embedded toolchain/10 2021.10/bin/../lib/gcc/arm-none-eabi/10.3.1/../../../../arm-none-eabi/lib/thumb/v7e-m+fp/hard\libc_nano.a(lib_a-nano-vfprintf.o)
                                                  c:/program files (x86)/gnu arm embedded toolchain/10 2021.10/bin/../lib/gcc/arm-none-eabi/10.3.1/../../../../arm-none-eabi/lib/thumb/v7e-m+fp/hard\libc_nano.a(lib_a-findfp.o)
                                                  c:/program files (x86)/gnu arm embedded toolchain/10 2021.10/bin/../lib/gcc/arm-none-eabi/10.3.1/../../../../arm-none-eabi/lib/thumb/v7e-m+fp/hard\libc_nano.a(lib_a-snprintf.o)
                                                  c:/program files (x86)/gnu arm embedded toolchain/10 2021.10/bin/../lib/gcc/arm-none-eabi/10.3.1/../../../../arm-none-eabi/lib/thumb/v7e-m+fp/hard\libc_nano.a(lib_a-printf.o)
                                                  c:/program files (x86)/gnu arm embedded toolchain/10 2021.10/bin/../lib/gcc/arm-none-eabi/10.3.1/../../../../arm-none-eabi/lib/thumb/v7e-m+fp/hard\libc_nano.a(lib_a-malloc.o)
                                                  c:/program files (x86)/gnu arm embedded toolchain/10 2021.10/bin/../lib/gcc/arm-none-eabi/10.3.1/../../../../arm-none-eabi/lib/thumb/v7e-m+fp/hard\libc_nano.a(lib_a-errno.o)
_init                                             c:/program files (x86)/gnu arm embedded toolchain/10 2021.10/bin/../lib/gcc/arm-none-eabi/10.3.1/thumb/v7e-m+fp/hard/crti.o
                                                  c:/program files (x86)/gnu arm embedded toolchain/10 2021.10/bin/../lib/gcc/arm-none-eabi/10.3.1/../../../../arm-none-eabi/lib/thumb/v7e-m+fp/hard\libc_nano.a(lib_a-init.o)
_iprintf_r                                        c:/program files (x86)/gnu arm embedded toolchain/10 2021.10/bin/../lib/gcc/arm-none-eabi/10.3.1/../../../../arm-none-eabi/lib/thumb/v7e-m+fp/hard\libc_nano.a(lib_a-printf.o)
_isatty                                           build/syscalls.o
                                                  c:/program files (x86)/gnu arm embedded toolchain/10 2021.10/bin/../lib/gcc/arm-none-eabi/10.3.1/../../../../arm-none-eabi/lib/thumb/v7e-m+fp/hard\libc_nano.a(lib_a-isattyr.o)
_isatty_r                                         c:/program files (x86)/gnu arm embedded toolchain/10 2021.10/bin/../lib/gcc/arm-none-eabi/10.3.1/../../../../arm-none-eabi/lib/thumb/v7e-m+fp/hard\libc_nano.a(lib_a-isattyr.o)
                                                  c:/program files (x86)/gnu arm embedded toolchain/10 2021.10/bin/../lib/gcc/arm-none-eabi/10.3.1/../../../../arm-none-eabi/lib/thumb/v7e-m+fp/hard\libc_nano.a(lib_a-makebuf.o)
_kill                                             build/syscalls.o
_link                                             build/syscalls.o
_lseek                                            build/syscalls.o
                                                  c:/program files (x86)/gnu arm embedded toolchain/10 2021.10/bin/../lib/gcc/arm-none-eabi/10.3.1/../../../../arm-none-eabi/lib/thumb/v7e-m+fp/hard\libc_nano.a(lib_a-lseekr.o)
_lseek_r                                          c:/program files (x86)/gnu arm embedded toolchain/10 2021.10/bin/../lib/gcc/arm-none-eabi/10.3.1/../../../../arm-none-eabi/lib/thumb/v7e-m+fp/hard\libc_nano.a(lib_a-lseekr.o)
                                                  c:/program files (x86)/gnu arm embedded toolchain/10 2021.10/bin/../lib/gcc/arm-none-eabi/10.3.1/../../../../arm-none-eabi/lib/thumb/v7e-m+fp/hard\libc_nano.a(lib_a-stdio.o)
_mainCRTStartup                                   c:/program files (x86)/gnu arm embedded toolchain/10 2021.10/bin/../lib/gcc/arm-none-eabi/10.3.1/../../../../arm-none-eabi/lib/thumb/v7e-m+fp/hard/crt0.o
_malloc_r                                         c:/program files (x86)/gnu arm embedded toolchain/10 2021.10/bin/../lib/gcc/arm-none-eabi/10.3.1/../../../../arm-none-eabi/lib/thumb/v7e-m+fp/hard\libc_nano.a(lib_a-nano-mallocr.o)
                                                  c:/program files (x86)/gnu arm embedded toolchain/10 2021.10/bin/../lib/gcc/arm-none-eabi/10.3.1/../../../../arm-none-eabi/lib/thumb/v7e-m+fp/hard\libc_nano.a(lib_a-nano-reallocr.o)
                                                  c:/program files (x86)/gnu arm embedded toolchain/10 2021.10/bin/../lib/gcc/arm-none-eabi/10.3.1/../../../../arm-none-eabi/lib/thumb/v7e-m+fp/hard\libc_nano.a(lib_a-makebuf.o)
                                                  c:/program files (x86)/gnu arm embedded toolchain/10 2021.10/bin/../lib/gcc/arm-none-eabi/10.3.1/../../../../arm-none-eabi/lib/thumb/v7e-m+fp/hard\libc_nano.a(lib_a-fvwrite.o)
                                                  c:/program files (x86)/gnu arm embedded toolchain/10 2021.10/bin/../lib/gcc/arm-none-eabi/10.3.1/../../../../arm-none-eabi/lib/thumb/v7e-m+fp/hard\libc_nano.a(lib_a-nano-svfprintf.o)
                                                  c:/program files (x86)/gnu arm embedded toolchain/10 2021.10/bin/../lib/gcc/arm-none-eabi/10.3.1/../../../../arm-none-eabi/lib/thumb/v7e-m+fp/hard\libc_nano.a(lib_a-findfp.o)
                                                  c:/program files (x86)/gnu arm embedded toolchain/10 2021.10/bin/../lib/gcc/arm-none-eabi/10.3.1/../../../../arm-none-eabi/lib/thumb/v7e-m+fp/hard\libc_nano.a(lib_a-malloc.o)
_malloc_usable_size_r                             c:/program files (x86)/gnu arm embedded toolchain/10 2021.10/bin/../lib/gcc/arm-none-eabi/10.3.1/../../../../arm-none-eabi/lib/thumb/v7e-m+fp/hard\libc_nano.a(lib_a-nano-msizer.o)
                                                  c:/program files (x86)/gnu arm embedded toolchain/10 2021.10/bin/../lib/gcc/arm-none-eabi/10.3.1/../../../../arm-none-eabi/lib/thumb/v7e-m+fp/hard\libc_nano.a(lib_a-nano-reallocr.o)
_open                                             build/syscalls.o
_printf_common                                    c:/program files (x86)/gnu arm embedded toolchain/10 2021.10/bin/../lib/gcc/arm-none-eabi/10.3.1/../../../../arm-none-eabi/lib/thumb/v7e-m+fp/hard\libc_nano.a(lib_a-nano-vfprintf_i.o)
_printf_float                                     c:/program files (x86)/gnu arm embedded toolchain/10 2021.10/bin/../lib/gcc/arm-none-eabi/10.3.1/../../../../arm-none-eabi/lib/thumb/v7e-m+fp/hard\libc_nano.a(lib_a-nano-vfprintf.o)
                                                  c:/program files (x86)/gnu arm embedded toolchain/10 2021.10/bin/../lib/gcc/arm-none-eabi/10.3.1/../../../../arm-none-eabi/lib/thumb/v7e-m+fp/hard\libc_nano.a(lib_a-nano-svfprintf.o)
_printf_i                                         c:/program files (x86)/gnu arm embedded toolchain/10 2021.10/bin/../lib/gcc/arm-none-eabi/10.3.1/../../../../arm-none-eabi/lib/thumb/v7e-m+fp/hard\libc_nano.a(lib_a-nano-vfprintf_i.o)
                                                  c:/program files (x86)/gnu arm embedded toolchain/10 2021.10/bin/../lib/gcc/arm-none-eabi/10.3.1/../../../../arm-none-eabi/lib/thumb/v7e-m+fp/hard\libc_nano.a(lib_a-nano-vfprintf.o)
                                                  c:/program files (x86)/gnu arm embedded toolchain/10 2021.10/bin/../lib/gcc/arm-none-eabi/10.3.1/../../../../arm-none-eabi/lib/thumb/v7e-m+fp/hard\libc_nano.a(lib_a-nano-svfprintf.o)
_printf_r                                         c:/program files (x86)/gnu arm embedded toolchain/10 2021.10/bin/../lib/gcc/arm-none-eabi/10.3.1/../../../../arm-none-eabi/lib/thumb/v7e-m+fp/hard\libc_nano.a(lib_a-printf.o)
_read                                             build/syscalls.o
                                                  c:/program files (x86)/gnu arm embedded toolchain/10 2021.10/bin/../lib/gcc/arm-none-eabi/10.3.1/../../../../arm-none-eabi/lib/thumb/v7e-m+fp/hard\libc_nano.a(lib_a-readr.o)
_read_r                                           c:/program files (x86)/gnu arm embedded toolchain/10 2021.10/bin/../lib/gcc/arm-none-eabi/10.3.1/../../../../arm-none-eabi/lib/thumb/v7e-m+fp/hard\libc_nano.a(lib_a-readr.o)
                                                  c:/program files (x86)/gnu arm embedded toolchain/10 2021.10/bin/../lib/gcc/arm-none-eabi/10.3.1/../../../../arm-none-eabi/lib/thumb/v7e-m+fp/hard\libc_nano.a(lib_a-stdio.o)
_realloc_r                                        c:/program files (x86)/gnu arm embedded toolchain/10 2021.10/bin/../lib/gcc/arm-none-eabi/10.3.1/../../../../arm-none-eabi/lib/thumb/v7e-m+fp/hard\libc_nano.a(lib_a-nano-reallocr.o)
                                                  c:/program files (x86)/gnu arm embedded toolchain/10 2021.10/bin/../lib/gcc/arm-none-eabi/10.3.1/../../../../arm-none-eabi/lib/thumb/v7e-m+fp/hard\libc_nano.a(lib_a-fvwrite.o)
                                                  c:/program files (x86)/gnu arm embedded toolchain/10 2021.10/bin/../lib/gcc/arm-none-eabi/10.3.1/../../../../arm-none-eabi/lib/thumb/v7e-m+fp/hard\libc_nano.a(lib_a-nano-svfprintf.o)
_reclaim_reent                                    c:/program files (x86)/gnu arm embedded toolchain/10 2021.10/bin/../lib/gcc/arm-none-eabi/10.3.1/../../../../arm-none-eabi/lib/thumb/v7e-m+fp/hard\libc_nano.a(lib_a-reent.o)
_sbrk                                             build/sysmem.o
                                                  c:/program files (x86)/gnu arm embedded toolchain/10 2021.10/bin/../lib/gcc/arm-none-eabi/10.3.1/../../../../arm-none-eabi/lib/thumb/v7e-m+fp/hard\libc_nano.a(lib_a-sbrkr.o)
_sbrk_r                                           c:/program files (x86)/gnu arm embedded toolchain/10 2021.10/bin/../lib/gcc/arm-none-eabi/10.3.1/../../../../arm-none-eabi/lib/thumb/v7e-m+fp/hard\libc_nano.a(lib_a-sbrkr.o)
                                                  c:/program files (x86)/gnu arm embedded toolchain/10 2021.10/bin/../lib/gcc/arm-none-eabi/10.3.1/../../../../arm-none-eabi/lib/thumb/v7e-m+fp/hard\libc_nano.a(lib_a-nano-mallocr.o)
_sbss                                             build/startup_stm32f411xe.o
_sdata                                            build/startup_stm32f411xe.o
_sidata                                           build/startup_stm32f411xe.o
_sniprintf_r                                      c:/program files (x86)/gnu arm embedded toolchain/10 2021.10/bin/../lib/gcc/arm-none-eabi/10.3.1/../../../../arm-none-eabi/lib/thumb/v7e-m+fp/hard\libc_nano.a(lib_a-snprintf.o)
_snprintf_r                                       c:/program files (x86)/gnu arm embedded toolchain/10 2021.10/bin/../lib/gcc/arm-none-eabi/10.3.1/../../../../arm-none-eabi/lib/thumb/v7e-m+fp/hard\libc_nano.a(lib_a-snprintf.o)
_stack_init                                       c:/program files (x86)/gnu arm embedded toolchain/10 2021.10/bin/../lib/gcc/arm-none-eabi/10.3.1/../../../../arm-none-eabi/lib/thumb/v7e-m+fp/hard/crt0.o
_start                                            c:/program files (x86)/gnu arm embedded toolchain/10 2021.10/bin/../lib/gcc/arm-none-eabi/10.3.1/../../../../arm-none-eabi/lib/thumb/v7e-m+fp/hard/crt0.o
_stat                                             build/syscalls.o
_svfiprintf_r                                     c:/program files (x86)/gnu arm embedded toolchain/10 2021.10/bin/../lib/gcc/arm-none-eabi/10.3.1/../../../../arm-none-eabi/lib/thumb/v7e-m+fp/hard\libc_nano.a(lib_a-nano-svfprintf.o)
_svfprintf_r                                      c:/program files (x86)/gnu arm embedded toolchain/10 2021.10/bin/../lib/gcc/arm-none-eabi/10.3.1/../../../../arm-none-eabi/lib/thumb/v7e-m+fp/hard\libc_nano.a(lib_a-nano-svfprintf.o)
                                                  c:/program files (x86)/gnu arm embedded toolchain/10 2021.10/bin/../lib/gcc/arm-none-eabi/10.3.1/../../../../arm-none-eabi/lib/thumb/v7e-m+fp/hard\libc_nano.a(lib_a-snprintf.o)
_times                                            build/syscalls.o
_unlink                                           build/syscalls.o
_vfiprintf_r                                      c:/program files (x86)/gnu arm embedded toolchain/10 2021.10/bin/../lib/gcc/arm-none-eabi/10.3.1/../../../../arm-none-eabi/lib/thumb/v7e-m+fp/hard\libc_nano.a(lib_a-nano-vfprintf.o)
_vfprintf_r                                       c:/program files (x86)/gnu arm embedded toolchain/10 2021.10/bin/../lib/gcc/arm-none-eabi/10.3.1/../../../../arm-none-eabi/lib/thumb/v7e-m+fp/hard\libc_nano.a(lib_a-nano-vfprintf.o)
                                                  c:/program files (x86)/gnu arm embedded toolchain/10 2021.10/bin/../lib/gcc/arm-none-eabi/10.3.1/../../../../arm-none-eabi/lib/thumb/v7e-m+fp/hard\libc_nano.a(lib_a-printf.o)
_wait                                             build/syscalls.o
_write                                            build/syscalls.o
                                                  c:/program files (x86)/gnu arm embedded toolchain/10 2021.10/bin/../lib/gcc/arm-none-eabi/10.3.1/../../../../arm-none-eabi/lib/thumb/v7e-m+fp/hard\libc_nano.a(lib_a-writer.o)
_write_r                                          c:/program files (x86)/gnu arm embedded toolchain/10 2021.10/bin/../lib/gcc/arm-none-eabi/10.3.1/../../../../arm-none-eabi/lib/thumb/v7e-m+fp/hard\libc_nano.a(lib_a-writer.o)
                                                  c:/program files (x86)/gnu arm embedded toolchain/10 2021.10/bin/../lib/gcc/arm-none-eabi/10.3.1/../../../../arm-none-eabi/lib/thumb/v7e-m+fp/hard\libc_nano.a(lib_a-stdio.o)
atexit                                            c:/program files (x86)/gnu arm embedded toolchain/10 2021.10/bin/../lib/gcc/arm-none-eabi/10.3.1/../../../../arm-none-eabi/lib/thumb/v7e-m+fp/hard/crt0.o
check_stat_of_compact_flash                       build/Darin3Cart_Driver.o
cleanup_glue                                      c:/program files (x86)/gnu arm embedded toolchain/10 2021.10/bin/../lib/gcc/arm-none-eabi/10.3.1/../../../../arm-none-eabi/lib/thumb/v7e-m+fp/hard\libc_nano.a(lib_a-reent.o)
command_for_read                                  build/Darin3Cart_Driver.o
command_for_write                                 build/Darin3Cart_Driver.o
compact_flash_read                                build/Darin3Cart_Driver.o
compact_flash_ready                               build/Darin3Cart_Driver.o
compact_flash_write                               build/Darin3Cart_Driver.o
disk_initialize                                   build/diskio.o
                                                  build/Darin3.o
                                                  build/main.o
                                                  build/ff.o
disk_ioctl                                        build/diskio.o
                                                  build/ff.o
disk_read                                         build/diskio.o
                                                  build/ff.o
disk_status                                       build/diskio.o
                                                  build/ff.o
disk_write                                        build/diskio.o
                                                  build/ff.o
environ                                           build/syscalls.o
errno                                             c:/program files (x86)/gnu arm embedded toolchain/10 2021.10/bin/../lib/gcc/arm-none-eabi/10.3.1/../../../../arm-none-eabi/lib/thumb/v7e-m+fp/hard\libc_nano.a(lib_a-reent.o)
                                                  c:/program files (x86)/gnu arm embedded toolchain/10 2021.10/bin/../lib/gcc/arm-none-eabi/10.3.1/../../../../arm-none-eabi/lib/thumb/v7e-m+fp/hard\libc_nano.a(lib_a-isattyr.o)
                                                  c:/program files (x86)/gnu arm embedded toolchain/10 2021.10/bin/../lib/gcc/arm-none-eabi/10.3.1/../../../../arm-none-eabi/lib/thumb/v7e-m+fp/hard\libc_nano.a(lib_a-fstatr.o)
                                                  c:/program files (x86)/gnu arm embedded toolchain/10 2021.10/bin/../lib/gcc/arm-none-eabi/10.3.1/../../../../arm-none-eabi/lib/thumb/v7e-m+fp/hard\libc_nano.a(lib_a-readr.o)
                                                  c:/program files (x86)/gnu arm embedded toolchain/10 2021.10/bin/../lib/gcc/arm-none-eabi/10.3.1/../../../../arm-none-eabi/lib/thumb/v7e-m+fp/hard\libc_nano.a(lib_a-lseekr.o)
                                                  c:/program files (x86)/gnu arm embedded toolchain/10 2021.10/bin/../lib/gcc/arm-none-eabi/10.3.1/../../../../arm-none-eabi/lib/thumb/v7e-m+fp/hard\libc_nano.a(lib_a-closer.o)
                                                  c:/program files (x86)/gnu arm embedded toolchain/10 2021.10/bin/../lib/gcc/arm-none-eabi/10.3.1/../../../../arm-none-eabi/lib/thumb/v7e-m+fp/hard\libc_nano.a(lib_a-writer.o)
                                                  c:/program files (x86)/gnu arm embedded toolchain/10 2021.10/bin/../lib/gcc/arm-none-eabi/10.3.1/../../../../arm-none-eabi/lib/thumb/v7e-m+fp/hard\libc_nano.a(lib_a-sbrkr.o)
exit                                              c:/program files (x86)/gnu arm embedded toolchain/10 2021.10/bin/../lib/gcc/arm-none-eabi/10.3.1/../../../../arm-none-eabi/lib/thumb/v7e-m+fp/hard\libc_nano.a(lib_a-exit.o)
                                                  c:/program files (x86)/gnu arm embedded toolchain/10 2021.10/bin/../lib/gcc/arm-none-eabi/10.3.1/../../../../arm-none-eabi/lib/thumb/v7e-m+fp/hard/crt0.o
f_close                                           build/ff.o
                                                  build/FatFsWrapperSingleton.o
f_closedir                                        build/ff.o
                                                  build/FatFsWrapperSingleton.o
f_getfree                                         build/ff.o
f_lseek                                           build/ff.o
                                                  build/FatFsWrapperSingleton.o
f_mkdir                                           build/ff.o
f_mkfs                                            build/ff.o
                                                  build/FatFsWrapperSingleton.o
f_mount                                           build/ff.o
                                                  build/FatFsWrapperSingleton.o
f_open                                            build/ff.o
                                                  build/FatFsWrapperSingleton.o
f_opendir                                         build/ff.o
                                                  build/FatFsWrapperSingleton.o
f_read                                            build/ff.o
                                                  build/FatFsWrapperSingleton.o
f_readdir                                         build/ff.o
                                                  build/FatFsWrapperSingleton.o
f_rename                                          build/ff.o
f_stat                                            build/ff.o
                                                  build/FatFsWrapperSingleton.o
f_sync                                            build/ff.o
                                                  build/FatFsWrapperSingleton.o
f_truncate                                        build/ff.o
f_unlink                                          build/ff.o
                                                  build/FatFsWrapperSingleton.o
f_write                                           build/ff.o
                                                  build/FatFsWrapperSingleton.o
fflush                                            c:/program files (x86)/gnu arm embedded toolchain/10 2021.10/bin/../lib/gcc/arm-none-eabi/10.3.1/../../../../arm-none-eabi/lib/thumb/v7e-m+fp/hard\libc_nano.a(lib_a-fflush.o)
free                                              c:/program files (x86)/gnu arm embedded toolchain/10 2021.10/bin/../lib/gcc/arm-none-eabi/10.3.1/../../../../arm-none-eabi/lib/thumb/v7e-m+fp/hard\libc_nano.a(lib_a-malloc.o)
                                                  build/Darin3.o
                                                  build/cpp_minimal.o
g_pfnVectors                                      build/startup_stm32f411xe.o
generic_CF_CMD                                    build/Darin3Cart_Driver.o
get_CD2SLT_pin                                    build/Darin3Cart_Driver.o
get_CE_pin                                        build/Darin3Cart_Driver.o
                                                  build/diskio.o
get_D3_Green_LedPins                              build/Darin3Cart_Driver.o
                                                  build/main.o
get_D3_Red_LedPins                                build/Darin3Cart_Driver.o
get_D3_slt_status                                 build/Darin3Cart_Driver.o
                                                  build/main.o
get_fattime                                       build/diskio.o
                                                  build/ff.o
guard variable for FatFsWrapper::getInstance()::instance build/main.o
                                                  build/Darin3.o
hUsbDeviceFS                                      build/usb_device.o
                                                  build/usbd_cdc_if.o
hardware_init_hook                                c:/program files (x86)/gnu arm embedded toolchain/10 2021.10/bin/../lib/gcc/arm-none-eabi/10.3.1/../../../../arm-none-eabi/lib/thumb/v7e-m+fp/hard/crt0.o
hpcd_USB_OTG_FS                                   build/usbd_conf.o
                                                  build/stm32f4xx_it.o
initialise_monitor_handles                        build/syscalls.o
iprintf                                           c:/program files (x86)/gnu arm embedded toolchain/10 2021.10/bin/../lib/gcc/arm-none-eabi/10.3.1/../../../../arm-none-eabi/lib/thumb/v7e-m+fp/hard\libc_nano.a(lib_a-printf.o)
m_CartId                                          build/diskio.o
main                                              build/main.o
                                                  build/startup_stm32f411xe.o
                                                  c:/program files (x86)/gnu arm embedded toolchain/10 2021.10/bin/../lib/gcc/arm-none-eabi/10.3.1/../../../../arm-none-eabi/lib/thumb/v7e-m+fp/hard/crt0.o
malloc                                            c:/program files (x86)/gnu arm embedded toolchain/10 2021.10/bin/../lib/gcc/arm-none-eabi/10.3.1/../../../../arm-none-eabi/lib/thumb/v7e-m+fp/hard\libc_nano.a(lib_a-malloc.o)
                                                  build/Darin3.o
                                                  build/cpp_minimal.o
memchr                                            c:/program files (x86)/gnu arm embedded toolchain/10 2021.10/bin/../lib/gcc/arm-none-eabi/10.3.1/../../../../arm-none-eabi/lib/thumb/v7e-m+fp/hard\libc_nano.a(lib_a-memchr.o)
                                                  c:/program files (x86)/gnu arm embedded toolchain/10 2021.10/bin/../lib/gcc/arm-none-eabi/10.3.1/../../../../arm-none-eabi/lib/thumb/v7e-m+fp/hard\libc_nano.a(lib_a-fvwrite.o)
                                                  c:/program files (x86)/gnu arm embedded toolchain/10 2021.10/bin/../lib/gcc/arm-none-eabi/10.3.1/../../../../arm-none-eabi/lib/thumb/v7e-m+fp/hard\libc_nano.a(lib_a-nano-vfprintf_i.o)
                                                  c:/program files (x86)/gnu arm embedded toolchain/10 2021.10/bin/../lib/gcc/arm-none-eabi/10.3.1/../../../../arm-none-eabi/lib/thumb/v7e-m+fp/hard\libc_nano.a(lib_a-nano-vfprintf.o)
                                                  c:/program files (x86)/gnu arm embedded toolchain/10 2021.10/bin/../lib/gcc/arm-none-eabi/10.3.1/../../../../arm-none-eabi/lib/thumb/v7e-m+fp/hard\libc_nano.a(lib_a-nano-svfprintf.o)
memcmp                                            c:/program files (x86)/gnu arm embedded toolchain/10 2021.10/bin/../lib/gcc/arm-none-eabi/10.3.1/../../../../arm-none-eabi/lib/thumb/v7e-m+fp/hard\libc_nano.a(lib_a-memcmp.o)
                                                  build/ff.o
memcpy                                            c:/program files (x86)/gnu arm embedded toolchain/10 2021.10/bin/../lib/gcc/arm-none-eabi/10.3.1/../../../../arm-none-eabi/lib/thumb/v7e-m+fp/hard\libc_nano.a(lib_a-memcpy-stub.o)
                                                  c:/program files (x86)/gnu arm embedded toolchain/10 2021.10/bin/../lib/gcc/arm-none-eabi/10.3.1/../../../../arm-none-eabi/lib/thumb/v7e-m+fp/hard\libc_nano.a(lib_a-nano-reallocr.o)
                                                  c:/program files (x86)/gnu arm embedded toolchain/10 2021.10/bin/../lib/gcc/arm-none-eabi/10.3.1/../../../../arm-none-eabi/lib/thumb/v7e-m+fp/hard\libc_nano.a(lib_a-fvwrite.o)
                                                  c:/program files (x86)/gnu arm embedded toolchain/10 2021.10/bin/../lib/gcc/arm-none-eabi/10.3.1/../../../../arm-none-eabi/lib/thumb/v7e-m+fp/hard\libc_nano.a(lib_a-nano-svfprintf.o)
                                                  build/safeBuffer.o
                                                  build/IspCmdTransmitData.o
                                                  build/ff.o
memmove                                           c:/program files (x86)/gnu arm embedded toolchain/10 2021.10/bin/../lib/gcc/arm-none-eabi/10.3.1/../../../../arm-none-eabi/lib/thumb/v7e-m+fp/hard\libc_nano.a(lib_a-memmove.o)
                                                  c:/program files (x86)/gnu arm embedded toolchain/10 2021.10/bin/../lib/gcc/arm-none-eabi/10.3.1/../../../../arm-none-eabi/lib/thumb/v7e-m+fp/hard\libc_nano.a(lib_a-fvwrite.o)
                                                  c:/program files (x86)/gnu arm embedded toolchain/10 2021.10/bin/../lib/gcc/arm-none-eabi/10.3.1/../../../../arm-none-eabi/lib/thumb/v7e-m+fp/hard\libc_nano.a(lib_a-nano-svfprintf.o)
                                                  build/IspCmdReceiveData.o
memset                                            c:/program files (x86)/gnu arm embedded toolchain/10 2021.10/bin/../lib/gcc/arm-none-eabi/10.3.1/../../../../arm-none-eabi/lib/thumb/v7e-m+fp/hard\libc_nano.a(lib_a-memset.o)
                                                  c:/program files (x86)/gnu arm embedded toolchain/10 2021.10/bin/../lib/gcc/arm-none-eabi/10.3.1/../../../../arm-none-eabi/lib/thumb/v7e-m+fp/hard\libc_nano.a(lib_a-findfp.o)
                                                  build/FatFsWrapperSingleton.o
                                                  build/main.o
                                                  build/ff.o
                                                  build/usbd_cdc.o
                                                  c:/program files (x86)/gnu arm embedded toolchain/10 2021.10/bin/../lib/gcc/arm-none-eabi/10.3.1/../../../../arm-none-eabi/lib/thumb/v7e-m+fp/hard/crt0.o
operator delete(void*)                            build/cpp_minimal.o
operator delete(void*, unsigned int)              build/cpp_minimal.o
                                                  build/IspCmdTransmitData.o
                                                  build/IspCmdReceiveData.o
                                                  build/IspCmdControl.o
                                                  build/SerialTransport.o
                                                  build/Darin3.o
                                                  build/main.o
operator delete[](void*)                          build/cpp_minimal.o
operator delete[](void*, unsigned int)            build/cpp_minimal.o
operator new(unsigned int)                        build/cpp_minimal.o
operator new[](unsigned int)                      build/cpp_minimal.o
pFlash                                            build/stm32f4xx_hal_flash.o
                                                  build/stm32f4xx_hal_flash_ex.o
post_read_compact_flash                           build/Darin3Cart_Driver.o
post_write_compact_flash                          build/Darin3Cart_Driver.o
pre_read_compact_flash                            build/Darin3Cart_Driver.o
pre_write_compact_flash                           build/Darin3Cart_Driver.o
printf                                            c:/program files (x86)/gnu arm embedded toolchain/10 2021.10/bin/../lib/gcc/arm-none-eabi/10.3.1/../../../../arm-none-eabi/lib/thumb/v7e-m+fp/hard\libc_nano.a(lib_a-printf.o)
                                                  build/IspSubCommandProcessor.o
read_compact_flash                                build/Darin3Cart_Driver.o
                                                  build/Darin3.o
rxBuffer                                          build/safeBuffer.o
                                                  build/IspCmdReceiveData.o
                                                  build/main.o
sector_number                                     build/Darin3Cart_Driver.o
setGreenLed                                       build/Darin3Cart_Driver.o
                                                  build/main.o
setRedLed                                         build/Darin3Cart_Driver.o
                                                  build/main.o
short_delay_us                                    build/Darin3Cart_Driver.o
                                                  build/main.o
                                                  build/diskio.o
slotLedBlink                                      build/Darin3Cart_Driver.o
                                                  build/main.o
sniprintf                                         c:/program files (x86)/gnu arm embedded toolchain/10 2021.10/bin/../lib/gcc/arm-none-eabi/10.3.1/../../../../arm-none-eabi/lib/thumb/v7e-m+fp/hard\libc_nano.a(lib_a-snprintf.o)
snprintf                                          c:/program files (x86)/gnu arm embedded toolchain/10 2021.10/bin/../lib/gcc/arm-none-eabi/10.3.1/../../../../arm-none-eabi/lib/thumb/v7e-m+fp/hard\libc_nano.a(lib_a-snprintf.o)
                                                  build/FatFsWrapperSingleton.o
software_init_hook                                c:/program files (x86)/gnu arm embedded toolchain/10 2021.10/bin/../lib/gcc/arm-none-eabi/10.3.1/../../../../arm-none-eabi/lib/thumb/v7e-m+fp/hard/crt0.o
std::_Rb_tree_decrement(_Rb_tree_node_base*)      build/cpp_minimal.o
std::_Rb_tree_increment(_Rb_tree_node_base*)      build/cpp_minimal.o
std::_Rb_tree_insert_and_rebalance(bool, _Rb_tree_node_base*, _Rb_tree_node_base*, _Rb_tree_node_base&) build/cpp_minimal.o
std::__throw_bad_alloc()                          build/cpp_minimal.o
std::__throw_length_error(char const*)            build/cpp_minimal.o
std::__throw_out_of_range(char const*)            build/cpp_minimal.o
std::__throw_runtime_error(char const*)           build/cpp_minimal.o
strchr                                            c:/program files (x86)/gnu arm embedded toolchain/10 2021.10/bin/../lib/gcc/arm-none-eabi/10.3.1/../../../../arm-none-eabi/lib/thumb/v7e-m+fp/hard\libc_nano.a(lib_a-strchr.o)
                                                  build/ff.o
strcmp                                            c:/program files (x86)/gnu arm embedded toolchain/10 2021.10/bin/../lib/gcc/arm-none-eabi/10.3.1/../../../../arm-none-eabi/lib/thumb/v7e-m+fp/hard\libc_nano.a(lib_a-strcmp.o)
                                                  build/FatFsWrapperSingleton.o
strncpy                                           c:/program files (x86)/gnu arm embedded toolchain/10 2021.10/bin/../lib/gcc/arm-none-eabi/10.3.1/../../../../arm-none-eabi/lib/thumb/v7e-m+fp/hard\libc_nano.a(lib_a-strncpy.o)
                                                  build/FatFsWrapperSingleton.o
subcmdProcess                                     build/main.o
txBuffer                                          build/safeBuffer.o
                                                  build/IspCmdTransmitData.o
                                                  build/IspCmdControl.o
                                                  build/Darin3.o
                                                  build/main.o
usbTransport                                      build/main.o
uwTick                                            build/stm32f4xx_hal.o
uwTickFreq                                        build/stm32f4xx_hal.o
uwTickPrio                                        build/stm32f4xx_hal.o
                                                  build/stm32f4xx_hal_rcc_ex.o
                                                  build/stm32f4xx_hal_rcc.o
vfiprintf                                         c:/program files (x86)/gnu arm embedded toolchain/10 2021.10/bin/../lib/gcc/arm-none-eabi/10.3.1/../../../../arm-none-eabi/lib/thumb/v7e-m+fp/hard\libc_nano.a(lib_a-nano-vfprintf.o)
vfprintf                                          c:/program files (x86)/gnu arm embedded toolchain/10 2021.10/bin/../lib/gcc/arm-none-eabi/10.3.1/../../../../arm-none-eabi/lib/thumb/v7e-m+fp/hard\libc_nano.a(lib_a-nano-vfprintf.o)
vtable for BlinkAllLed_SubCmdProcess              build/main.o
vtable for BoardID_SubCmdProcess                  build/main.o
vtable for CartStatus_SubCmdProcess               build/main.o
vtable for D3_Power_Cycle_SubCmdProcess           build/main.o
vtable for Darin3                                 build/Darin3.o
vtable for Erase_SubCmdProcess                    build/main.o
vtable for FirmwareVersion_SubCmdProcess          build/main.o
vtable for Format_SubCmdProcess                   build/main.o
vtable for GreenLed_SubCmdProcess                 build/main.o
vtable for GuiCtrlLed_SubCmdProcess               build/main.o
vtable for IIspSubCommandHandler                  build/main.o
                                                  build/Darin3.o
vtable for IspCmdControl                          build/IspCmdControl.o
vtable for IspCmdReceiveData                      build/IspCmdReceiveData.o
                                                  build/main.o
vtable for IspCmdTransmitData                     build/IspCmdTransmitData.o
                                                  build/main.o
vtable for IspCommandHandler                      build/main.o
                                                  build/IspCmdTransmitData.o
                                                  build/IspCmdReceiveData.o
                                                  build/IspCmdControl.o
vtable for IspTransportInterface                  build/main.o
                                                  build/SerialTransport.o
vtable for LedLoopBack_SubCmdProcess              build/main.o
vtable for RedLed_SubCmdProcess                   build/main.o
vtable for SlotLedBlink_SubCmdProcess             build/main.o
vtable for UsbIspTransport                        build/SerialTransport.o
                                                  build/main.o
write_address_port                                build/Darin3Cart_Driver.o
                                                  build/diskio.o
write_compact_flash                               build/Darin3Cart_Driver.o
                                                  build/Darin3.o
