ARM GAS  C:\Users\HP-Admin\AppData\Local\Temp\ccssVuiz.s 			page 1


   1              		.cpu cortex-m4
   2              		.arch armv7e-m
   3              		.fpu fpv4-sp-d16
   4              		.eabi_attribute 27, 1
   5              		.eabi_attribute 28, 1
   6              		.eabi_attribute 20, 1
   7              		.eabi_attribute 21, 1
   8              		.eabi_attribute 23, 3
   9              		.eabi_attribute 24, 1
  10              		.eabi_attribute 25, 1
  11              		.eabi_attribute 26, 1
  12              		.eabi_attribute 30, 1
  13              		.eabi_attribute 34, 1
  14              		.eabi_attribute 18, 4
  15              		.file	"Darin3Cart_Driver.c"
  16              		.text
  17              	.Ltext0:
  18              		.cfi_sections	.debug_frame
  19              		.section	.text.get_CE_pin,"ax",%progbits
  20              		.align	1
  21              		.global	get_CE_pin
  22              		.syntax unified
  23              		.thumb
  24              		.thumb_func
  26              	get_CE_pin:
  27              	.LVL0:
  28              	.LFB187:
  29              		.file 1 "Core/Src/Darin3Cart_Driver.c"
   1:Core/Src/Darin3Cart_Driver.c **** /*
   2:Core/Src/Darin3Cart_Driver.c ****  * Darin3Cartridge.c
   3:Core/Src/Darin3Cart_Driver.c ****  *
   4:Core/Src/Darin3Cart_Driver.c ****  *  Created on: 10-Aug-2023
   5:Core/Src/Darin3Cart_Driver.c ****  *      Author: Vijay
   6:Core/Src/Darin3Cart_Driver.c ****  */
   7:Core/Src/Darin3Cart_Driver.c **** #if 1
   8:Core/Src/Darin3Cart_Driver.c **** #include <stdint.h>
   9:Core/Src/Darin3Cart_Driver.c **** #include "stm32f4xx_ll_gpio.h"
  10:Core/Src/Darin3Cart_Driver.c **** #include "stm32f4xx_ll_bus.h"
  11:Core/Src/Darin3Cart_Driver.c **** #include "main.h"
  12:Core/Src/Darin3Cart_Driver.c **** #include "Darin3Cart_Driver.h"
  13:Core/Src/Darin3Cart_Driver.c **** #include <stdlib.h>
  14:Core/Src/Darin3Cart_Driver.c **** 
  15:Core/Src/Darin3Cart_Driver.c **** // Helper function to replace HAL_GPIO_WritePin
  16:Core/Src/Darin3Cart_Driver.c **** static inline void GPIO_WritePin(GPIO_TypeDef *GPIOx, uint16_t GPIO_Pin, uint8_t PinState)
  17:Core/Src/Darin3Cart_Driver.c **** {
  18:Core/Src/Darin3Cart_Driver.c ****     if (PinState)
  19:Core/Src/Darin3Cart_Driver.c ****     {
  20:Core/Src/Darin3Cart_Driver.c ****         LL_GPIO_SetOutputPin(GPIOx, GPIO_Pin);
  21:Core/Src/Darin3Cart_Driver.c ****     }
  22:Core/Src/Darin3Cart_Driver.c ****     else
  23:Core/Src/Darin3Cart_Driver.c ****     {
  24:Core/Src/Darin3Cart_Driver.c ****         LL_GPIO_ResetOutputPin(GPIOx, GPIO_Pin);
  25:Core/Src/Darin3Cart_Driver.c ****     }
  26:Core/Src/Darin3Cart_Driver.c **** }
  27:Core/Src/Darin3Cart_Driver.c **** 
  28:Core/Src/Darin3Cart_Driver.c **** // Helper function to replace GPIO_ReadPin
  29:Core/Src/Darin3Cart_Driver.c **** static inline uint8_t GPIO_ReadPin(GPIO_TypeDef *GPIOx, uint16_t GPIO_Pin)
ARM GAS  C:\Users\HP-Admin\AppData\Local\Temp\ccssVuiz.s 			page 2


  30:Core/Src/Darin3Cart_Driver.c **** {
  31:Core/Src/Darin3Cart_Driver.c ****     return LL_GPIO_IsInputPinSet(GPIOx, GPIO_Pin) ? 1 : 0;
  32:Core/Src/Darin3Cart_Driver.c **** }
  33:Core/Src/Darin3Cart_Driver.c **** 
  34:Core/Src/Darin3Cart_Driver.c **** uint16_t CF_WE  = WE_Pin;
  35:Core/Src/Darin3Cart_Driver.c **** uint16_t CF_RST = RESET_Pin;
  36:Core/Src/Darin3Cart_Driver.c **** uint16_t CF_OE  = ATA_SEL_Pin;
  37:Core/Src/Darin3Cart_Driver.c **** //uint16_t CF_CE  = CSO_1_Pin;
  38:Core/Src/Darin3Cart_Driver.c **** 
  39:Core/Src/Darin3Cart_Driver.c **** uint16_t A0  = A00_Pin;
  40:Core/Src/Darin3Cart_Driver.c **** uint16_t A1  = A01_Pin;
  41:Core/Src/Darin3Cart_Driver.c **** uint16_t A2  = A02_Pin;
  42:Core/Src/Darin3Cart_Driver.c **** uint16_t A3  = A03_Pin;
  43:Core/Src/Darin3Cart_Driver.c **** 
  44:Core/Src/Darin3Cart_Driver.c **** uint16_t Address_Flash_Page1 = 0;
  45:Core/Src/Darin3Cart_Driver.c **** 
  46:Core/Src/Darin3Cart_Driver.c **** uint16_t sector_number = 0;
  47:Core/Src/Darin3Cart_Driver.c **** 
  48:Core/Src/Darin3Cart_Driver.c **** #define data_reg 	   0x00
  49:Core/Src/Darin3Cart_Driver.c **** #define feature        0x01
  50:Core/Src/Darin3Cart_Driver.c **** #define sector_count   0x02
  51:Core/Src/Darin3Cart_Driver.c **** #define sector_num     0x03
  52:Core/Src/Darin3Cart_Driver.c **** #define cyc_low        0x04
  53:Core/Src/Darin3Cart_Driver.c **** #define cyc_high       0x05
  54:Core/Src/Darin3Cart_Driver.c **** #define drive          0x06
  55:Core/Src/Darin3Cart_Driver.c **** #define command        0x07
  56:Core/Src/Darin3Cart_Driver.c **** #define status_reg     0x07
  57:Core/Src/Darin3Cart_Driver.c **** 
  58:Core/Src/Darin3Cart_Driver.c **** uint16_t M_D7  = DB7_Pin;
  59:Core/Src/Darin3Cart_Driver.c **** uint16_t M_D6  = DB6_Pin;
  60:Core/Src/Darin3Cart_Driver.c **** uint16_t M_D5  = DB5_Pin;
  61:Core/Src/Darin3Cart_Driver.c **** uint16_t M_D4  = DB4_Pin;
  62:Core/Src/Darin3Cart_Driver.c **** uint16_t M_D3  = DB3_Pin;
  63:Core/Src/Darin3Cart_Driver.c **** uint16_t M_D2  = DB2_Pin;
  64:Core/Src/Darin3Cart_Driver.c **** uint16_t M_D1  = DB1_Pin;
  65:Core/Src/Darin3Cart_Driver.c **** uint16_t M_D0  = DB0_Pin;
  66:Core/Src/Darin3Cart_Driver.c **** 
  67:Core/Src/Darin3Cart_Driver.c **** uint16_t CF_CE[4]  = {CSO_1_Pin, CSO_2_Pin, CSO_3_Pin, CSO_4_Pin};
  68:Core/Src/Darin3Cart_Driver.c **** uint16_t CD2_SLT[4]  = {CD2_SLT_S1_Pin, CD2_SLT_S2_Pin, CD2_SLT_S3_Pin, CD2_SLT_S4_Pin};
  69:Core/Src/Darin3Cart_Driver.c **** static uint8_t SLT_STATUS[4]  = {1, 1, 1, 1};
  70:Core/Src/Darin3Cart_Driver.c **** static const uint16_t GREEN_LED[] = { LED1_Pin, LED3_Pin, LED5_Pin, LED7_Pin };
  71:Core/Src/Darin3Cart_Driver.c **** static const uint16_t RED_LED[] = { LED2_Pin, LED4_Pin, LED6_Pin, LED8_Pin };
  72:Core/Src/Darin3Cart_Driver.c **** 
  73:Core/Src/Darin3Cart_Driver.c **** uint16_t get_CE_pin(CartridgeID id) {
  30              		.loc 1 73 37 view -0
  31              		.cfi_startproc
  32              		@ args = 0, pretend = 0, frame = 0
  33              		@ frame_needed = 0, uses_anonymous_args = 0
  34              		@ link register save eliminated.
  74:Core/Src/Darin3Cart_Driver.c ****     return CF_CE[id];
  35              		.loc 1 74 5 view .LVU1
  75:Core/Src/Darin3Cart_Driver.c **** }
  36              		.loc 1 75 1 is_stmt 0 view .LVU2
  37 0000 014B     		ldr	r3, .L2
  38 0002 33F81000 		ldrh	r0, [r3, r0, lsl #1]
  39              	.LVL1:
  40              		.loc 1 75 1 view .LVU3
ARM GAS  C:\Users\HP-Admin\AppData\Local\Temp\ccssVuiz.s 			page 3


  41 0006 7047     		bx	lr
  42              	.L3:
  43              		.align	2
  44              	.L2:
  45 0008 00000000 		.word	.LANCHOR0
  46              		.cfi_endproc
  47              	.LFE187:
  49              		.section	.text.get_CD2SLT_pin,"ax",%progbits
  50              		.align	1
  51              		.global	get_CD2SLT_pin
  52              		.syntax unified
  53              		.thumb
  54              		.thumb_func
  56              	get_CD2SLT_pin:
  57              	.LVL2:
  58              	.LFB188:
  76:Core/Src/Darin3Cart_Driver.c **** 
  77:Core/Src/Darin3Cart_Driver.c **** uint16_t get_CD2SLT_pin(CartridgeID id) {
  59              		.loc 1 77 41 is_stmt 1 view -0
  60              		.cfi_startproc
  61              		@ args = 0, pretend = 0, frame = 0
  62              		@ frame_needed = 0, uses_anonymous_args = 0
  63              		@ link register save eliminated.
  78:Core/Src/Darin3Cart_Driver.c ****     return CD2_SLT[id];
  64              		.loc 1 78 5 view .LVU5
  79:Core/Src/Darin3Cart_Driver.c **** }
  65              		.loc 1 79 1 is_stmt 0 view .LVU6
  66 0000 014B     		ldr	r3, .L5
  67 0002 33F81000 		ldrh	r0, [r3, r0, lsl #1]
  68              	.LVL3:
  69              		.loc 1 79 1 view .LVU7
  70 0006 7047     		bx	lr
  71              	.L6:
  72              		.align	2
  73              	.L5:
  74 0008 00000000 		.word	.LANCHOR1
  75              		.cfi_endproc
  76              	.LFE188:
  78              		.section	.text.get_D3_slt_status,"ax",%progbits
  79              		.align	1
  80              		.global	get_D3_slt_status
  81              		.syntax unified
  82              		.thumb
  83              		.thumb_func
  85              	get_D3_slt_status:
  86              	.LVL4:
  87              	.LFB189:
  80:Core/Src/Darin3Cart_Driver.c **** 
  81:Core/Src/Darin3Cart_Driver.c **** uint16_t get_D3_slt_status(CartridgeID id) {
  88              		.loc 1 81 44 is_stmt 1 view -0
  89              		.cfi_startproc
  90              		@ args = 0, pretend = 0, frame = 0
  91              		@ frame_needed = 0, uses_anonymous_args = 0
  92              		@ link register save eliminated.
  82:Core/Src/Darin3Cart_Driver.c ****     return SLT_STATUS[id];
  93              		.loc 1 82 5 view .LVU9
  83:Core/Src/Darin3Cart_Driver.c **** }
ARM GAS  C:\Users\HP-Admin\AppData\Local\Temp\ccssVuiz.s 			page 4


  94              		.loc 1 83 1 is_stmt 0 view .LVU10
  95 0000 014B     		ldr	r3, .L8
  96 0002 185C     		ldrb	r0, [r3, r0]	@ zero_extendqisi2
  97              	.LVL5:
  98              		.loc 1 83 1 view .LVU11
  99 0004 7047     		bx	lr
 100              	.L9:
 101 0006 00BF     		.align	2
 102              	.L8:
 103 0008 00000000 		.word	.LANCHOR2
 104              		.cfi_endproc
 105              	.LFE189:
 107              		.section	.text.DataBus_SetOutput,"ax",%progbits
 108              		.align	1
 109              		.global	DataBus_SetOutput
 110              		.syntax unified
 111              		.thumb
 112              		.thumb_func
 114              	DataBus_SetOutput:
 115              	.LFB190:
  84:Core/Src/Darin3Cart_Driver.c **** 
  85:Core/Src/Darin3Cart_Driver.c **** void DataBus_SetOutput(void)
  86:Core/Src/Darin3Cart_Driver.c **** {
 116              		.loc 1 86 1 is_stmt 1 view -0
 117              		.cfi_startproc
 118              		@ args = 0, pretend = 0, frame = 8
 119              		@ frame_needed = 0, uses_anonymous_args = 0
 120              		@ link register save eliminated.
 121 0000 82B0     		sub	sp, sp, #8
 122              	.LCFI0:
 123              		.cfi_def_cfa_offset 8
  87:Core/Src/Darin3Cart_Driver.c ****     // Ensure GPIOE clock is enabled
  88:Core/Src/Darin3Cart_Driver.c ****     LL_AHB1_GRP1_EnableClock(LL_AHB1_GRP1_PERIPH_GPIOE);
 124              		.loc 1 88 5 view .LVU13
 125              	.LVL6:
 126              	.LBB769:
 127              	.LBI769:
 128              		.file 2 "Drivers/STM32F4xx_HAL_Driver/Inc/stm32f4xx_ll_bus.h"
   1:Drivers/STM32F4xx_HAL_Driver/Inc/stm32f4xx_ll_bus.h **** /**
   2:Drivers/STM32F4xx_HAL_Driver/Inc/stm32f4xx_ll_bus.h ****   ******************************************************************************
   3:Drivers/STM32F4xx_HAL_Driver/Inc/stm32f4xx_ll_bus.h ****   * @file    stm32f4xx_ll_bus.h
   4:Drivers/STM32F4xx_HAL_Driver/Inc/stm32f4xx_ll_bus.h ****   * @author  MCD Application Team
   5:Drivers/STM32F4xx_HAL_Driver/Inc/stm32f4xx_ll_bus.h ****   * @brief   Header file of BUS LL module.
   6:Drivers/STM32F4xx_HAL_Driver/Inc/stm32f4xx_ll_bus.h **** 
   7:Drivers/STM32F4xx_HAL_Driver/Inc/stm32f4xx_ll_bus.h ****   @verbatim
   8:Drivers/STM32F4xx_HAL_Driver/Inc/stm32f4xx_ll_bus.h ****                       ##### RCC Limitations #####
   9:Drivers/STM32F4xx_HAL_Driver/Inc/stm32f4xx_ll_bus.h ****   ==============================================================================
  10:Drivers/STM32F4xx_HAL_Driver/Inc/stm32f4xx_ll_bus.h ****     [..]
  11:Drivers/STM32F4xx_HAL_Driver/Inc/stm32f4xx_ll_bus.h ****       A delay between an RCC peripheral clock enable and the effective peripheral
  12:Drivers/STM32F4xx_HAL_Driver/Inc/stm32f4xx_ll_bus.h ****       enabling should be taken into account in order to manage the peripheral read/write
  13:Drivers/STM32F4xx_HAL_Driver/Inc/stm32f4xx_ll_bus.h ****       from/to registers.
  14:Drivers/STM32F4xx_HAL_Driver/Inc/stm32f4xx_ll_bus.h ****       (+) This delay depends on the peripheral mapping.
  15:Drivers/STM32F4xx_HAL_Driver/Inc/stm32f4xx_ll_bus.h ****         (++) AHB & APB peripherals, 1 dummy read is necessary
  16:Drivers/STM32F4xx_HAL_Driver/Inc/stm32f4xx_ll_bus.h **** 
  17:Drivers/STM32F4xx_HAL_Driver/Inc/stm32f4xx_ll_bus.h ****     [..]
  18:Drivers/STM32F4xx_HAL_Driver/Inc/stm32f4xx_ll_bus.h ****       Workarounds:
  19:Drivers/STM32F4xx_HAL_Driver/Inc/stm32f4xx_ll_bus.h ****       (#) For AHB & APB peripherals, a dummy read to the peripheral register has been
ARM GAS  C:\Users\HP-Admin\AppData\Local\Temp\ccssVuiz.s 			page 5


  20:Drivers/STM32F4xx_HAL_Driver/Inc/stm32f4xx_ll_bus.h ****           inserted in each LL_{BUS}_GRP{x}_EnableClock() function.
  21:Drivers/STM32F4xx_HAL_Driver/Inc/stm32f4xx_ll_bus.h **** 
  22:Drivers/STM32F4xx_HAL_Driver/Inc/stm32f4xx_ll_bus.h ****   @endverbatim
  23:Drivers/STM32F4xx_HAL_Driver/Inc/stm32f4xx_ll_bus.h ****   ******************************************************************************
  24:Drivers/STM32F4xx_HAL_Driver/Inc/stm32f4xx_ll_bus.h ****   * @attention
  25:Drivers/STM32F4xx_HAL_Driver/Inc/stm32f4xx_ll_bus.h ****   *
  26:Drivers/STM32F4xx_HAL_Driver/Inc/stm32f4xx_ll_bus.h ****   * Copyright (c) 2017 STMicroelectronics.
  27:Drivers/STM32F4xx_HAL_Driver/Inc/stm32f4xx_ll_bus.h ****   * All rights reserved.
  28:Drivers/STM32F4xx_HAL_Driver/Inc/stm32f4xx_ll_bus.h ****   *
  29:Drivers/STM32F4xx_HAL_Driver/Inc/stm32f4xx_ll_bus.h ****   * This software is licensed under terms that can be found in the LICENSE file in
  30:Drivers/STM32F4xx_HAL_Driver/Inc/stm32f4xx_ll_bus.h ****   * the root directory of this software component.
  31:Drivers/STM32F4xx_HAL_Driver/Inc/stm32f4xx_ll_bus.h ****   * If no LICENSE file comes with this software, it is provided AS-IS.
  32:Drivers/STM32F4xx_HAL_Driver/Inc/stm32f4xx_ll_bus.h ****   ******************************************************************************
  33:Drivers/STM32F4xx_HAL_Driver/Inc/stm32f4xx_ll_bus.h ****   */
  34:Drivers/STM32F4xx_HAL_Driver/Inc/stm32f4xx_ll_bus.h **** 
  35:Drivers/STM32F4xx_HAL_Driver/Inc/stm32f4xx_ll_bus.h **** /* Define to prevent recursive inclusion -------------------------------------*/
  36:Drivers/STM32F4xx_HAL_Driver/Inc/stm32f4xx_ll_bus.h **** #ifndef __STM32F4xx_LL_BUS_H
  37:Drivers/STM32F4xx_HAL_Driver/Inc/stm32f4xx_ll_bus.h **** #define __STM32F4xx_LL_BUS_H
  38:Drivers/STM32F4xx_HAL_Driver/Inc/stm32f4xx_ll_bus.h **** 
  39:Drivers/STM32F4xx_HAL_Driver/Inc/stm32f4xx_ll_bus.h **** #ifdef __cplusplus
  40:Drivers/STM32F4xx_HAL_Driver/Inc/stm32f4xx_ll_bus.h **** extern "C" {
  41:Drivers/STM32F4xx_HAL_Driver/Inc/stm32f4xx_ll_bus.h **** #endif
  42:Drivers/STM32F4xx_HAL_Driver/Inc/stm32f4xx_ll_bus.h **** 
  43:Drivers/STM32F4xx_HAL_Driver/Inc/stm32f4xx_ll_bus.h **** /* Includes ------------------------------------------------------------------*/
  44:Drivers/STM32F4xx_HAL_Driver/Inc/stm32f4xx_ll_bus.h **** #include "stm32f4xx.h"
  45:Drivers/STM32F4xx_HAL_Driver/Inc/stm32f4xx_ll_bus.h **** 
  46:Drivers/STM32F4xx_HAL_Driver/Inc/stm32f4xx_ll_bus.h **** /** @addtogroup STM32F4xx_LL_Driver
  47:Drivers/STM32F4xx_HAL_Driver/Inc/stm32f4xx_ll_bus.h ****   * @{
  48:Drivers/STM32F4xx_HAL_Driver/Inc/stm32f4xx_ll_bus.h ****   */
  49:Drivers/STM32F4xx_HAL_Driver/Inc/stm32f4xx_ll_bus.h **** 
  50:Drivers/STM32F4xx_HAL_Driver/Inc/stm32f4xx_ll_bus.h **** #if defined(RCC)
  51:Drivers/STM32F4xx_HAL_Driver/Inc/stm32f4xx_ll_bus.h **** 
  52:Drivers/STM32F4xx_HAL_Driver/Inc/stm32f4xx_ll_bus.h **** /** @defgroup BUS_LL BUS
  53:Drivers/STM32F4xx_HAL_Driver/Inc/stm32f4xx_ll_bus.h ****   * @{
  54:Drivers/STM32F4xx_HAL_Driver/Inc/stm32f4xx_ll_bus.h ****   */
  55:Drivers/STM32F4xx_HAL_Driver/Inc/stm32f4xx_ll_bus.h **** 
  56:Drivers/STM32F4xx_HAL_Driver/Inc/stm32f4xx_ll_bus.h **** /* Private types -------------------------------------------------------------*/
  57:Drivers/STM32F4xx_HAL_Driver/Inc/stm32f4xx_ll_bus.h **** /* Private variables ---------------------------------------------------------*/
  58:Drivers/STM32F4xx_HAL_Driver/Inc/stm32f4xx_ll_bus.h **** /* Private constants ---------------------------------------------------------*/
  59:Drivers/STM32F4xx_HAL_Driver/Inc/stm32f4xx_ll_bus.h **** /* Private macros ------------------------------------------------------------*/
  60:Drivers/STM32F4xx_HAL_Driver/Inc/stm32f4xx_ll_bus.h **** /* Exported types ------------------------------------------------------------*/
  61:Drivers/STM32F4xx_HAL_Driver/Inc/stm32f4xx_ll_bus.h **** /* Exported constants --------------------------------------------------------*/
  62:Drivers/STM32F4xx_HAL_Driver/Inc/stm32f4xx_ll_bus.h **** /** @defgroup BUS_LL_Exported_Constants BUS Exported Constants
  63:Drivers/STM32F4xx_HAL_Driver/Inc/stm32f4xx_ll_bus.h ****   * @{
  64:Drivers/STM32F4xx_HAL_Driver/Inc/stm32f4xx_ll_bus.h ****   */
  65:Drivers/STM32F4xx_HAL_Driver/Inc/stm32f4xx_ll_bus.h **** 
  66:Drivers/STM32F4xx_HAL_Driver/Inc/stm32f4xx_ll_bus.h **** /** @defgroup BUS_LL_EC_AHB1_GRP1_PERIPH  AHB1 GRP1 PERIPH
  67:Drivers/STM32F4xx_HAL_Driver/Inc/stm32f4xx_ll_bus.h ****   * @{
  68:Drivers/STM32F4xx_HAL_Driver/Inc/stm32f4xx_ll_bus.h ****   */
  69:Drivers/STM32F4xx_HAL_Driver/Inc/stm32f4xx_ll_bus.h **** #define LL_AHB1_GRP1_PERIPH_ALL             0xFFFFFFFFU
  70:Drivers/STM32F4xx_HAL_Driver/Inc/stm32f4xx_ll_bus.h **** #define LL_AHB1_GRP1_PERIPH_GPIOA           RCC_AHB1ENR_GPIOAEN
  71:Drivers/STM32F4xx_HAL_Driver/Inc/stm32f4xx_ll_bus.h **** #define LL_AHB1_GRP1_PERIPH_GPIOB           RCC_AHB1ENR_GPIOBEN
  72:Drivers/STM32F4xx_HAL_Driver/Inc/stm32f4xx_ll_bus.h **** #define LL_AHB1_GRP1_PERIPH_GPIOC           RCC_AHB1ENR_GPIOCEN
  73:Drivers/STM32F4xx_HAL_Driver/Inc/stm32f4xx_ll_bus.h **** #if defined(GPIOD)
  74:Drivers/STM32F4xx_HAL_Driver/Inc/stm32f4xx_ll_bus.h **** #define LL_AHB1_GRP1_PERIPH_GPIOD           RCC_AHB1ENR_GPIODEN
  75:Drivers/STM32F4xx_HAL_Driver/Inc/stm32f4xx_ll_bus.h **** #endif /* GPIOD */
  76:Drivers/STM32F4xx_HAL_Driver/Inc/stm32f4xx_ll_bus.h **** #if defined(GPIOE)
ARM GAS  C:\Users\HP-Admin\AppData\Local\Temp\ccssVuiz.s 			page 6


  77:Drivers/STM32F4xx_HAL_Driver/Inc/stm32f4xx_ll_bus.h **** #define LL_AHB1_GRP1_PERIPH_GPIOE           RCC_AHB1ENR_GPIOEEN
  78:Drivers/STM32F4xx_HAL_Driver/Inc/stm32f4xx_ll_bus.h **** #endif /* GPIOE */
  79:Drivers/STM32F4xx_HAL_Driver/Inc/stm32f4xx_ll_bus.h **** #if defined(GPIOF)
  80:Drivers/STM32F4xx_HAL_Driver/Inc/stm32f4xx_ll_bus.h **** #define LL_AHB1_GRP1_PERIPH_GPIOF           RCC_AHB1ENR_GPIOFEN
  81:Drivers/STM32F4xx_HAL_Driver/Inc/stm32f4xx_ll_bus.h **** #endif /* GPIOF */
  82:Drivers/STM32F4xx_HAL_Driver/Inc/stm32f4xx_ll_bus.h **** #if defined(GPIOG)
  83:Drivers/STM32F4xx_HAL_Driver/Inc/stm32f4xx_ll_bus.h **** #define LL_AHB1_GRP1_PERIPH_GPIOG           RCC_AHB1ENR_GPIOGEN
  84:Drivers/STM32F4xx_HAL_Driver/Inc/stm32f4xx_ll_bus.h **** #endif /* GPIOG */
  85:Drivers/STM32F4xx_HAL_Driver/Inc/stm32f4xx_ll_bus.h **** #if defined(GPIOH)
  86:Drivers/STM32F4xx_HAL_Driver/Inc/stm32f4xx_ll_bus.h **** #define LL_AHB1_GRP1_PERIPH_GPIOH           RCC_AHB1ENR_GPIOHEN
  87:Drivers/STM32F4xx_HAL_Driver/Inc/stm32f4xx_ll_bus.h **** #endif /* GPIOH */
  88:Drivers/STM32F4xx_HAL_Driver/Inc/stm32f4xx_ll_bus.h **** #if defined(GPIOI)
  89:Drivers/STM32F4xx_HAL_Driver/Inc/stm32f4xx_ll_bus.h **** #define LL_AHB1_GRP1_PERIPH_GPIOI           RCC_AHB1ENR_GPIOIEN
  90:Drivers/STM32F4xx_HAL_Driver/Inc/stm32f4xx_ll_bus.h **** #endif /* GPIOI */
  91:Drivers/STM32F4xx_HAL_Driver/Inc/stm32f4xx_ll_bus.h **** #if defined(GPIOJ)
  92:Drivers/STM32F4xx_HAL_Driver/Inc/stm32f4xx_ll_bus.h **** #define LL_AHB1_GRP1_PERIPH_GPIOJ           RCC_AHB1ENR_GPIOJEN
  93:Drivers/STM32F4xx_HAL_Driver/Inc/stm32f4xx_ll_bus.h **** #endif /* GPIOJ */
  94:Drivers/STM32F4xx_HAL_Driver/Inc/stm32f4xx_ll_bus.h **** #if defined(GPIOK)
  95:Drivers/STM32F4xx_HAL_Driver/Inc/stm32f4xx_ll_bus.h **** #define LL_AHB1_GRP1_PERIPH_GPIOK           RCC_AHB1ENR_GPIOKEN
  96:Drivers/STM32F4xx_HAL_Driver/Inc/stm32f4xx_ll_bus.h **** #endif /* GPIOK */
  97:Drivers/STM32F4xx_HAL_Driver/Inc/stm32f4xx_ll_bus.h **** #define LL_AHB1_GRP1_PERIPH_CRC             RCC_AHB1ENR_CRCEN
  98:Drivers/STM32F4xx_HAL_Driver/Inc/stm32f4xx_ll_bus.h **** #if defined(RCC_AHB1ENR_BKPSRAMEN)
  99:Drivers/STM32F4xx_HAL_Driver/Inc/stm32f4xx_ll_bus.h **** #define LL_AHB1_GRP1_PERIPH_BKPSRAM         RCC_AHB1ENR_BKPSRAMEN
 100:Drivers/STM32F4xx_HAL_Driver/Inc/stm32f4xx_ll_bus.h **** #endif /* RCC_AHB1ENR_BKPSRAMEN */
 101:Drivers/STM32F4xx_HAL_Driver/Inc/stm32f4xx_ll_bus.h **** #if defined(RCC_AHB1ENR_CCMDATARAMEN)
 102:Drivers/STM32F4xx_HAL_Driver/Inc/stm32f4xx_ll_bus.h **** #define LL_AHB1_GRP1_PERIPH_CCMDATARAM      RCC_AHB1ENR_CCMDATARAMEN
 103:Drivers/STM32F4xx_HAL_Driver/Inc/stm32f4xx_ll_bus.h **** #endif /* RCC_AHB1ENR_CCMDATARAMEN */
 104:Drivers/STM32F4xx_HAL_Driver/Inc/stm32f4xx_ll_bus.h **** #define LL_AHB1_GRP1_PERIPH_DMA1            RCC_AHB1ENR_DMA1EN
 105:Drivers/STM32F4xx_HAL_Driver/Inc/stm32f4xx_ll_bus.h **** #define LL_AHB1_GRP1_PERIPH_DMA2            RCC_AHB1ENR_DMA2EN
 106:Drivers/STM32F4xx_HAL_Driver/Inc/stm32f4xx_ll_bus.h **** #if defined(RCC_AHB1ENR_RNGEN)
 107:Drivers/STM32F4xx_HAL_Driver/Inc/stm32f4xx_ll_bus.h **** #define LL_AHB1_GRP1_PERIPH_RNG             RCC_AHB1ENR_RNGEN
 108:Drivers/STM32F4xx_HAL_Driver/Inc/stm32f4xx_ll_bus.h **** #endif /* RCC_AHB1ENR_RNGEN */
 109:Drivers/STM32F4xx_HAL_Driver/Inc/stm32f4xx_ll_bus.h **** #if defined(DMA2D)
 110:Drivers/STM32F4xx_HAL_Driver/Inc/stm32f4xx_ll_bus.h **** #define LL_AHB1_GRP1_PERIPH_DMA2D           RCC_AHB1ENR_DMA2DEN
 111:Drivers/STM32F4xx_HAL_Driver/Inc/stm32f4xx_ll_bus.h **** #endif /* DMA2D */
 112:Drivers/STM32F4xx_HAL_Driver/Inc/stm32f4xx_ll_bus.h **** #if defined(ETH)
 113:Drivers/STM32F4xx_HAL_Driver/Inc/stm32f4xx_ll_bus.h **** #define LL_AHB1_GRP1_PERIPH_ETHMAC          RCC_AHB1ENR_ETHMACEN
 114:Drivers/STM32F4xx_HAL_Driver/Inc/stm32f4xx_ll_bus.h **** #define LL_AHB1_GRP1_PERIPH_ETHMACTX        RCC_AHB1ENR_ETHMACTXEN
 115:Drivers/STM32F4xx_HAL_Driver/Inc/stm32f4xx_ll_bus.h **** #define LL_AHB1_GRP1_PERIPH_ETHMACRX        RCC_AHB1ENR_ETHMACRXEN
 116:Drivers/STM32F4xx_HAL_Driver/Inc/stm32f4xx_ll_bus.h **** #define LL_AHB1_GRP1_PERIPH_ETHMACPTP       RCC_AHB1ENR_ETHMACPTPEN
 117:Drivers/STM32F4xx_HAL_Driver/Inc/stm32f4xx_ll_bus.h **** #endif /* ETH */
 118:Drivers/STM32F4xx_HAL_Driver/Inc/stm32f4xx_ll_bus.h **** #if defined(USB_OTG_HS)
 119:Drivers/STM32F4xx_HAL_Driver/Inc/stm32f4xx_ll_bus.h **** #define LL_AHB1_GRP1_PERIPH_OTGHS           RCC_AHB1ENR_OTGHSEN
 120:Drivers/STM32F4xx_HAL_Driver/Inc/stm32f4xx_ll_bus.h **** #define LL_AHB1_GRP1_PERIPH_OTGHSULPI       RCC_AHB1ENR_OTGHSULPIEN
 121:Drivers/STM32F4xx_HAL_Driver/Inc/stm32f4xx_ll_bus.h **** #endif /* USB_OTG_HS */
 122:Drivers/STM32F4xx_HAL_Driver/Inc/stm32f4xx_ll_bus.h **** #define LL_AHB1_GRP1_PERIPH_FLITF           RCC_AHB1LPENR_FLITFLPEN
 123:Drivers/STM32F4xx_HAL_Driver/Inc/stm32f4xx_ll_bus.h **** #define LL_AHB1_GRP1_PERIPH_SRAM1           RCC_AHB1LPENR_SRAM1LPEN
 124:Drivers/STM32F4xx_HAL_Driver/Inc/stm32f4xx_ll_bus.h **** #if defined(RCC_AHB1LPENR_SRAM2LPEN)
 125:Drivers/STM32F4xx_HAL_Driver/Inc/stm32f4xx_ll_bus.h **** #define LL_AHB1_GRP1_PERIPH_SRAM2           RCC_AHB1LPENR_SRAM2LPEN
 126:Drivers/STM32F4xx_HAL_Driver/Inc/stm32f4xx_ll_bus.h **** #endif /* RCC_AHB1LPENR_SRAM2LPEN */
 127:Drivers/STM32F4xx_HAL_Driver/Inc/stm32f4xx_ll_bus.h **** #if defined(RCC_AHB1LPENR_SRAM3LPEN)
 128:Drivers/STM32F4xx_HAL_Driver/Inc/stm32f4xx_ll_bus.h **** #define LL_AHB1_GRP1_PERIPH_SRAM3           RCC_AHB1LPENR_SRAM3LPEN
 129:Drivers/STM32F4xx_HAL_Driver/Inc/stm32f4xx_ll_bus.h **** #endif /* RCC_AHB1LPENR_SRAM3LPEN */
 130:Drivers/STM32F4xx_HAL_Driver/Inc/stm32f4xx_ll_bus.h **** /**
 131:Drivers/STM32F4xx_HAL_Driver/Inc/stm32f4xx_ll_bus.h ****   * @}
 132:Drivers/STM32F4xx_HAL_Driver/Inc/stm32f4xx_ll_bus.h ****   */
 133:Drivers/STM32F4xx_HAL_Driver/Inc/stm32f4xx_ll_bus.h **** 
ARM GAS  C:\Users\HP-Admin\AppData\Local\Temp\ccssVuiz.s 			page 7


 134:Drivers/STM32F4xx_HAL_Driver/Inc/stm32f4xx_ll_bus.h **** #if defined(RCC_AHB2_SUPPORT)
 135:Drivers/STM32F4xx_HAL_Driver/Inc/stm32f4xx_ll_bus.h **** /** @defgroup BUS_LL_EC_AHB2_GRP1_PERIPH  AHB2 GRP1 PERIPH
 136:Drivers/STM32F4xx_HAL_Driver/Inc/stm32f4xx_ll_bus.h ****   * @{
 137:Drivers/STM32F4xx_HAL_Driver/Inc/stm32f4xx_ll_bus.h ****   */
 138:Drivers/STM32F4xx_HAL_Driver/Inc/stm32f4xx_ll_bus.h **** #define LL_AHB2_GRP1_PERIPH_ALL            0xFFFFFFFFU
 139:Drivers/STM32F4xx_HAL_Driver/Inc/stm32f4xx_ll_bus.h **** #if defined(DCMI)
 140:Drivers/STM32F4xx_HAL_Driver/Inc/stm32f4xx_ll_bus.h **** #define LL_AHB2_GRP1_PERIPH_DCMI           RCC_AHB2ENR_DCMIEN
 141:Drivers/STM32F4xx_HAL_Driver/Inc/stm32f4xx_ll_bus.h **** #endif /* DCMI */
 142:Drivers/STM32F4xx_HAL_Driver/Inc/stm32f4xx_ll_bus.h **** #if defined(CRYP)
 143:Drivers/STM32F4xx_HAL_Driver/Inc/stm32f4xx_ll_bus.h **** #define LL_AHB2_GRP1_PERIPH_CRYP           RCC_AHB2ENR_CRYPEN
 144:Drivers/STM32F4xx_HAL_Driver/Inc/stm32f4xx_ll_bus.h **** #endif /* CRYP */
 145:Drivers/STM32F4xx_HAL_Driver/Inc/stm32f4xx_ll_bus.h **** #if defined(AES)
 146:Drivers/STM32F4xx_HAL_Driver/Inc/stm32f4xx_ll_bus.h **** #define LL_AHB2_GRP1_PERIPH_AES            RCC_AHB2ENR_AESEN
 147:Drivers/STM32F4xx_HAL_Driver/Inc/stm32f4xx_ll_bus.h **** #endif /* AES */
 148:Drivers/STM32F4xx_HAL_Driver/Inc/stm32f4xx_ll_bus.h **** #if defined(HASH)
 149:Drivers/STM32F4xx_HAL_Driver/Inc/stm32f4xx_ll_bus.h **** #define LL_AHB2_GRP1_PERIPH_HASH           RCC_AHB2ENR_HASHEN
 150:Drivers/STM32F4xx_HAL_Driver/Inc/stm32f4xx_ll_bus.h **** #endif /* HASH */
 151:Drivers/STM32F4xx_HAL_Driver/Inc/stm32f4xx_ll_bus.h **** #if defined(RCC_AHB2ENR_RNGEN)
 152:Drivers/STM32F4xx_HAL_Driver/Inc/stm32f4xx_ll_bus.h **** #define LL_AHB2_GRP1_PERIPH_RNG            RCC_AHB2ENR_RNGEN
 153:Drivers/STM32F4xx_HAL_Driver/Inc/stm32f4xx_ll_bus.h **** #endif /* RCC_AHB2ENR_RNGEN */
 154:Drivers/STM32F4xx_HAL_Driver/Inc/stm32f4xx_ll_bus.h **** #if defined(USB_OTG_FS)
 155:Drivers/STM32F4xx_HAL_Driver/Inc/stm32f4xx_ll_bus.h **** #define LL_AHB2_GRP1_PERIPH_OTGFS          RCC_AHB2ENR_OTGFSEN
 156:Drivers/STM32F4xx_HAL_Driver/Inc/stm32f4xx_ll_bus.h **** #endif /* USB_OTG_FS */
 157:Drivers/STM32F4xx_HAL_Driver/Inc/stm32f4xx_ll_bus.h **** /**
 158:Drivers/STM32F4xx_HAL_Driver/Inc/stm32f4xx_ll_bus.h ****   * @}
 159:Drivers/STM32F4xx_HAL_Driver/Inc/stm32f4xx_ll_bus.h ****   */
 160:Drivers/STM32F4xx_HAL_Driver/Inc/stm32f4xx_ll_bus.h **** #endif /* RCC_AHB2_SUPPORT */
 161:Drivers/STM32F4xx_HAL_Driver/Inc/stm32f4xx_ll_bus.h **** 
 162:Drivers/STM32F4xx_HAL_Driver/Inc/stm32f4xx_ll_bus.h **** #if defined(RCC_AHB3_SUPPORT)
 163:Drivers/STM32F4xx_HAL_Driver/Inc/stm32f4xx_ll_bus.h **** /** @defgroup BUS_LL_EC_AHB3_GRP1_PERIPH  AHB3 GRP1 PERIPH
 164:Drivers/STM32F4xx_HAL_Driver/Inc/stm32f4xx_ll_bus.h ****   * @{
 165:Drivers/STM32F4xx_HAL_Driver/Inc/stm32f4xx_ll_bus.h ****   */
 166:Drivers/STM32F4xx_HAL_Driver/Inc/stm32f4xx_ll_bus.h **** #define LL_AHB3_GRP1_PERIPH_ALL            0xFFFFFFFFU
 167:Drivers/STM32F4xx_HAL_Driver/Inc/stm32f4xx_ll_bus.h **** #if defined(FSMC_Bank1)
 168:Drivers/STM32F4xx_HAL_Driver/Inc/stm32f4xx_ll_bus.h **** #define LL_AHB3_GRP1_PERIPH_FSMC           RCC_AHB3ENR_FSMCEN
 169:Drivers/STM32F4xx_HAL_Driver/Inc/stm32f4xx_ll_bus.h **** #endif /* FSMC_Bank1 */
 170:Drivers/STM32F4xx_HAL_Driver/Inc/stm32f4xx_ll_bus.h **** #if defined(FMC_Bank1)
 171:Drivers/STM32F4xx_HAL_Driver/Inc/stm32f4xx_ll_bus.h **** #define LL_AHB3_GRP1_PERIPH_FMC            RCC_AHB3ENR_FMCEN
 172:Drivers/STM32F4xx_HAL_Driver/Inc/stm32f4xx_ll_bus.h **** #endif /* FMC_Bank1 */
 173:Drivers/STM32F4xx_HAL_Driver/Inc/stm32f4xx_ll_bus.h **** #if defined(QUADSPI)
 174:Drivers/STM32F4xx_HAL_Driver/Inc/stm32f4xx_ll_bus.h **** #define LL_AHB3_GRP1_PERIPH_QSPI           RCC_AHB3ENR_QSPIEN
 175:Drivers/STM32F4xx_HAL_Driver/Inc/stm32f4xx_ll_bus.h **** #endif /* QUADSPI */
 176:Drivers/STM32F4xx_HAL_Driver/Inc/stm32f4xx_ll_bus.h **** /**
 177:Drivers/STM32F4xx_HAL_Driver/Inc/stm32f4xx_ll_bus.h ****   * @}
 178:Drivers/STM32F4xx_HAL_Driver/Inc/stm32f4xx_ll_bus.h ****   */
 179:Drivers/STM32F4xx_HAL_Driver/Inc/stm32f4xx_ll_bus.h **** #endif /* RCC_AHB3_SUPPORT */
 180:Drivers/STM32F4xx_HAL_Driver/Inc/stm32f4xx_ll_bus.h **** 
 181:Drivers/STM32F4xx_HAL_Driver/Inc/stm32f4xx_ll_bus.h **** /** @defgroup BUS_LL_EC_APB1_GRP1_PERIPH  APB1 GRP1 PERIPH
 182:Drivers/STM32F4xx_HAL_Driver/Inc/stm32f4xx_ll_bus.h ****   * @{
 183:Drivers/STM32F4xx_HAL_Driver/Inc/stm32f4xx_ll_bus.h ****   */
 184:Drivers/STM32F4xx_HAL_Driver/Inc/stm32f4xx_ll_bus.h **** #define LL_APB1_GRP1_PERIPH_ALL            0xFFFFFFFFU
 185:Drivers/STM32F4xx_HAL_Driver/Inc/stm32f4xx_ll_bus.h **** #if defined(TIM2)
 186:Drivers/STM32F4xx_HAL_Driver/Inc/stm32f4xx_ll_bus.h **** #define LL_APB1_GRP1_PERIPH_TIM2           RCC_APB1ENR_TIM2EN
 187:Drivers/STM32F4xx_HAL_Driver/Inc/stm32f4xx_ll_bus.h **** #endif /* TIM2 */
 188:Drivers/STM32F4xx_HAL_Driver/Inc/stm32f4xx_ll_bus.h **** #if defined(TIM3)
 189:Drivers/STM32F4xx_HAL_Driver/Inc/stm32f4xx_ll_bus.h **** #define LL_APB1_GRP1_PERIPH_TIM3           RCC_APB1ENR_TIM3EN
 190:Drivers/STM32F4xx_HAL_Driver/Inc/stm32f4xx_ll_bus.h **** #endif /* TIM3 */
ARM GAS  C:\Users\HP-Admin\AppData\Local\Temp\ccssVuiz.s 			page 8


 191:Drivers/STM32F4xx_HAL_Driver/Inc/stm32f4xx_ll_bus.h **** #if defined(TIM4)
 192:Drivers/STM32F4xx_HAL_Driver/Inc/stm32f4xx_ll_bus.h **** #define LL_APB1_GRP1_PERIPH_TIM4           RCC_APB1ENR_TIM4EN
 193:Drivers/STM32F4xx_HAL_Driver/Inc/stm32f4xx_ll_bus.h **** #endif /* TIM4 */
 194:Drivers/STM32F4xx_HAL_Driver/Inc/stm32f4xx_ll_bus.h **** #define LL_APB1_GRP1_PERIPH_TIM5           RCC_APB1ENR_TIM5EN
 195:Drivers/STM32F4xx_HAL_Driver/Inc/stm32f4xx_ll_bus.h **** #if defined(TIM6)
 196:Drivers/STM32F4xx_HAL_Driver/Inc/stm32f4xx_ll_bus.h **** #define LL_APB1_GRP1_PERIPH_TIM6           RCC_APB1ENR_TIM6EN
 197:Drivers/STM32F4xx_HAL_Driver/Inc/stm32f4xx_ll_bus.h **** #endif /* TIM6 */
 198:Drivers/STM32F4xx_HAL_Driver/Inc/stm32f4xx_ll_bus.h **** #if defined(TIM7)
 199:Drivers/STM32F4xx_HAL_Driver/Inc/stm32f4xx_ll_bus.h **** #define LL_APB1_GRP1_PERIPH_TIM7           RCC_APB1ENR_TIM7EN
 200:Drivers/STM32F4xx_HAL_Driver/Inc/stm32f4xx_ll_bus.h **** #endif /* TIM7 */
 201:Drivers/STM32F4xx_HAL_Driver/Inc/stm32f4xx_ll_bus.h **** #if defined(TIM12)
 202:Drivers/STM32F4xx_HAL_Driver/Inc/stm32f4xx_ll_bus.h **** #define LL_APB1_GRP1_PERIPH_TIM12          RCC_APB1ENR_TIM12EN
 203:Drivers/STM32F4xx_HAL_Driver/Inc/stm32f4xx_ll_bus.h **** #endif /* TIM12 */
 204:Drivers/STM32F4xx_HAL_Driver/Inc/stm32f4xx_ll_bus.h **** #if defined(TIM13)
 205:Drivers/STM32F4xx_HAL_Driver/Inc/stm32f4xx_ll_bus.h **** #define LL_APB1_GRP1_PERIPH_TIM13          RCC_APB1ENR_TIM13EN
 206:Drivers/STM32F4xx_HAL_Driver/Inc/stm32f4xx_ll_bus.h **** #endif /* TIM13 */
 207:Drivers/STM32F4xx_HAL_Driver/Inc/stm32f4xx_ll_bus.h **** #if defined(TIM14)
 208:Drivers/STM32F4xx_HAL_Driver/Inc/stm32f4xx_ll_bus.h **** #define LL_APB1_GRP1_PERIPH_TIM14          RCC_APB1ENR_TIM14EN
 209:Drivers/STM32F4xx_HAL_Driver/Inc/stm32f4xx_ll_bus.h **** #endif /* TIM14 */
 210:Drivers/STM32F4xx_HAL_Driver/Inc/stm32f4xx_ll_bus.h **** #if defined(LPTIM1)
 211:Drivers/STM32F4xx_HAL_Driver/Inc/stm32f4xx_ll_bus.h **** #define LL_APB1_GRP1_PERIPH_LPTIM1         RCC_APB1ENR_LPTIM1EN
 212:Drivers/STM32F4xx_HAL_Driver/Inc/stm32f4xx_ll_bus.h **** #endif /* LPTIM1 */
 213:Drivers/STM32F4xx_HAL_Driver/Inc/stm32f4xx_ll_bus.h **** #if defined(RCC_APB1ENR_RTCAPBEN)
 214:Drivers/STM32F4xx_HAL_Driver/Inc/stm32f4xx_ll_bus.h **** #define LL_APB1_GRP1_PERIPH_RTCAPB         RCC_APB1ENR_RTCAPBEN
 215:Drivers/STM32F4xx_HAL_Driver/Inc/stm32f4xx_ll_bus.h **** #endif /* RCC_APB1ENR_RTCAPBEN */
 216:Drivers/STM32F4xx_HAL_Driver/Inc/stm32f4xx_ll_bus.h **** #define LL_APB1_GRP1_PERIPH_WWDG           RCC_APB1ENR_WWDGEN
 217:Drivers/STM32F4xx_HAL_Driver/Inc/stm32f4xx_ll_bus.h **** #if defined(SPI2)
 218:Drivers/STM32F4xx_HAL_Driver/Inc/stm32f4xx_ll_bus.h **** #define LL_APB1_GRP1_PERIPH_SPI2           RCC_APB1ENR_SPI2EN
 219:Drivers/STM32F4xx_HAL_Driver/Inc/stm32f4xx_ll_bus.h **** #endif /* SPI2 */
 220:Drivers/STM32F4xx_HAL_Driver/Inc/stm32f4xx_ll_bus.h **** #if defined(SPI3)
 221:Drivers/STM32F4xx_HAL_Driver/Inc/stm32f4xx_ll_bus.h **** #define LL_APB1_GRP1_PERIPH_SPI3           RCC_APB1ENR_SPI3EN
 222:Drivers/STM32F4xx_HAL_Driver/Inc/stm32f4xx_ll_bus.h **** #endif /* SPI3 */
 223:Drivers/STM32F4xx_HAL_Driver/Inc/stm32f4xx_ll_bus.h **** #if defined(SPDIFRX)
 224:Drivers/STM32F4xx_HAL_Driver/Inc/stm32f4xx_ll_bus.h **** #define LL_APB1_GRP1_PERIPH_SPDIFRX        RCC_APB1ENR_SPDIFRXEN
 225:Drivers/STM32F4xx_HAL_Driver/Inc/stm32f4xx_ll_bus.h **** #endif /* SPDIFRX */
 226:Drivers/STM32F4xx_HAL_Driver/Inc/stm32f4xx_ll_bus.h **** #define LL_APB1_GRP1_PERIPH_USART2         RCC_APB1ENR_USART2EN
 227:Drivers/STM32F4xx_HAL_Driver/Inc/stm32f4xx_ll_bus.h **** #if defined(USART3)
 228:Drivers/STM32F4xx_HAL_Driver/Inc/stm32f4xx_ll_bus.h **** #define LL_APB1_GRP1_PERIPH_USART3         RCC_APB1ENR_USART3EN
 229:Drivers/STM32F4xx_HAL_Driver/Inc/stm32f4xx_ll_bus.h **** #endif /* USART3 */
 230:Drivers/STM32F4xx_HAL_Driver/Inc/stm32f4xx_ll_bus.h **** #if defined(UART4)
 231:Drivers/STM32F4xx_HAL_Driver/Inc/stm32f4xx_ll_bus.h **** #define LL_APB1_GRP1_PERIPH_UART4          RCC_APB1ENR_UART4EN
 232:Drivers/STM32F4xx_HAL_Driver/Inc/stm32f4xx_ll_bus.h **** #endif /* UART4 */
 233:Drivers/STM32F4xx_HAL_Driver/Inc/stm32f4xx_ll_bus.h **** #if defined(UART5)
 234:Drivers/STM32F4xx_HAL_Driver/Inc/stm32f4xx_ll_bus.h **** #define LL_APB1_GRP1_PERIPH_UART5          RCC_APB1ENR_UART5EN
 235:Drivers/STM32F4xx_HAL_Driver/Inc/stm32f4xx_ll_bus.h **** #endif /* UART5 */
 236:Drivers/STM32F4xx_HAL_Driver/Inc/stm32f4xx_ll_bus.h **** #define LL_APB1_GRP1_PERIPH_I2C1           RCC_APB1ENR_I2C1EN
 237:Drivers/STM32F4xx_HAL_Driver/Inc/stm32f4xx_ll_bus.h **** #define LL_APB1_GRP1_PERIPH_I2C2           RCC_APB1ENR_I2C2EN
 238:Drivers/STM32F4xx_HAL_Driver/Inc/stm32f4xx_ll_bus.h **** #if defined(I2C3)
 239:Drivers/STM32F4xx_HAL_Driver/Inc/stm32f4xx_ll_bus.h **** #define LL_APB1_GRP1_PERIPH_I2C3           RCC_APB1ENR_I2C3EN
 240:Drivers/STM32F4xx_HAL_Driver/Inc/stm32f4xx_ll_bus.h **** #endif /* I2C3 */
 241:Drivers/STM32F4xx_HAL_Driver/Inc/stm32f4xx_ll_bus.h **** #if defined(FMPI2C1)
 242:Drivers/STM32F4xx_HAL_Driver/Inc/stm32f4xx_ll_bus.h **** #define LL_APB1_GRP1_PERIPH_FMPI2C1        RCC_APB1ENR_FMPI2C1EN
 243:Drivers/STM32F4xx_HAL_Driver/Inc/stm32f4xx_ll_bus.h **** #endif /* FMPI2C1 */
 244:Drivers/STM32F4xx_HAL_Driver/Inc/stm32f4xx_ll_bus.h **** #if defined(CAN1)
 245:Drivers/STM32F4xx_HAL_Driver/Inc/stm32f4xx_ll_bus.h **** #define LL_APB1_GRP1_PERIPH_CAN1           RCC_APB1ENR_CAN1EN
 246:Drivers/STM32F4xx_HAL_Driver/Inc/stm32f4xx_ll_bus.h **** #endif /* CAN1 */
 247:Drivers/STM32F4xx_HAL_Driver/Inc/stm32f4xx_ll_bus.h **** #if defined(CAN2)
ARM GAS  C:\Users\HP-Admin\AppData\Local\Temp\ccssVuiz.s 			page 9


 248:Drivers/STM32F4xx_HAL_Driver/Inc/stm32f4xx_ll_bus.h **** #define LL_APB1_GRP1_PERIPH_CAN2           RCC_APB1ENR_CAN2EN
 249:Drivers/STM32F4xx_HAL_Driver/Inc/stm32f4xx_ll_bus.h **** #endif /* CAN2 */
 250:Drivers/STM32F4xx_HAL_Driver/Inc/stm32f4xx_ll_bus.h **** #if defined(CAN3)
 251:Drivers/STM32F4xx_HAL_Driver/Inc/stm32f4xx_ll_bus.h **** #define LL_APB1_GRP1_PERIPH_CAN3           RCC_APB1ENR_CAN3EN
 252:Drivers/STM32F4xx_HAL_Driver/Inc/stm32f4xx_ll_bus.h **** #endif /* CAN3 */
 253:Drivers/STM32F4xx_HAL_Driver/Inc/stm32f4xx_ll_bus.h **** #if defined(CEC)
 254:Drivers/STM32F4xx_HAL_Driver/Inc/stm32f4xx_ll_bus.h **** #define LL_APB1_GRP1_PERIPH_CEC            RCC_APB1ENR_CECEN
 255:Drivers/STM32F4xx_HAL_Driver/Inc/stm32f4xx_ll_bus.h **** #endif /* CEC */
 256:Drivers/STM32F4xx_HAL_Driver/Inc/stm32f4xx_ll_bus.h **** #define LL_APB1_GRP1_PERIPH_PWR            RCC_APB1ENR_PWREN
 257:Drivers/STM32F4xx_HAL_Driver/Inc/stm32f4xx_ll_bus.h **** #if defined(DAC1)
 258:Drivers/STM32F4xx_HAL_Driver/Inc/stm32f4xx_ll_bus.h **** #define LL_APB1_GRP1_PERIPH_DAC1           RCC_APB1ENR_DACEN
 259:Drivers/STM32F4xx_HAL_Driver/Inc/stm32f4xx_ll_bus.h **** #endif /* DAC1 */
 260:Drivers/STM32F4xx_HAL_Driver/Inc/stm32f4xx_ll_bus.h **** #if defined(UART7)
 261:Drivers/STM32F4xx_HAL_Driver/Inc/stm32f4xx_ll_bus.h **** #define LL_APB1_GRP1_PERIPH_UART7          RCC_APB1ENR_UART7EN
 262:Drivers/STM32F4xx_HAL_Driver/Inc/stm32f4xx_ll_bus.h **** #endif /* UART7 */
 263:Drivers/STM32F4xx_HAL_Driver/Inc/stm32f4xx_ll_bus.h **** #if defined(UART8)
 264:Drivers/STM32F4xx_HAL_Driver/Inc/stm32f4xx_ll_bus.h **** #define LL_APB1_GRP1_PERIPH_UART8          RCC_APB1ENR_UART8EN
 265:Drivers/STM32F4xx_HAL_Driver/Inc/stm32f4xx_ll_bus.h **** #endif /* UART8 */
 266:Drivers/STM32F4xx_HAL_Driver/Inc/stm32f4xx_ll_bus.h **** /**
 267:Drivers/STM32F4xx_HAL_Driver/Inc/stm32f4xx_ll_bus.h ****   * @}
 268:Drivers/STM32F4xx_HAL_Driver/Inc/stm32f4xx_ll_bus.h ****   */
 269:Drivers/STM32F4xx_HAL_Driver/Inc/stm32f4xx_ll_bus.h **** 
 270:Drivers/STM32F4xx_HAL_Driver/Inc/stm32f4xx_ll_bus.h **** /** @defgroup BUS_LL_EC_APB2_GRP1_PERIPH  APB2 GRP1 PERIPH
 271:Drivers/STM32F4xx_HAL_Driver/Inc/stm32f4xx_ll_bus.h ****   * @{
 272:Drivers/STM32F4xx_HAL_Driver/Inc/stm32f4xx_ll_bus.h ****   */
 273:Drivers/STM32F4xx_HAL_Driver/Inc/stm32f4xx_ll_bus.h **** #define LL_APB2_GRP1_PERIPH_ALL          0xFFFFFFFFU
 274:Drivers/STM32F4xx_HAL_Driver/Inc/stm32f4xx_ll_bus.h **** #define LL_APB2_GRP1_PERIPH_TIM1         RCC_APB2ENR_TIM1EN
 275:Drivers/STM32F4xx_HAL_Driver/Inc/stm32f4xx_ll_bus.h **** #if defined(TIM8)
 276:Drivers/STM32F4xx_HAL_Driver/Inc/stm32f4xx_ll_bus.h **** #define LL_APB2_GRP1_PERIPH_TIM8         RCC_APB2ENR_TIM8EN
 277:Drivers/STM32F4xx_HAL_Driver/Inc/stm32f4xx_ll_bus.h **** #endif /* TIM8 */
 278:Drivers/STM32F4xx_HAL_Driver/Inc/stm32f4xx_ll_bus.h **** #define LL_APB2_GRP1_PERIPH_USART1       RCC_APB2ENR_USART1EN
 279:Drivers/STM32F4xx_HAL_Driver/Inc/stm32f4xx_ll_bus.h **** #if defined(USART6)
 280:Drivers/STM32F4xx_HAL_Driver/Inc/stm32f4xx_ll_bus.h **** #define LL_APB2_GRP1_PERIPH_USART6       RCC_APB2ENR_USART6EN
 281:Drivers/STM32F4xx_HAL_Driver/Inc/stm32f4xx_ll_bus.h **** #endif /* USART6 */
 282:Drivers/STM32F4xx_HAL_Driver/Inc/stm32f4xx_ll_bus.h **** #if defined(UART9)
 283:Drivers/STM32F4xx_HAL_Driver/Inc/stm32f4xx_ll_bus.h **** #define LL_APB2_GRP1_PERIPH_UART9        RCC_APB2ENR_UART9EN
 284:Drivers/STM32F4xx_HAL_Driver/Inc/stm32f4xx_ll_bus.h **** #endif /* UART9 */
 285:Drivers/STM32F4xx_HAL_Driver/Inc/stm32f4xx_ll_bus.h **** #if defined(UART10)
 286:Drivers/STM32F4xx_HAL_Driver/Inc/stm32f4xx_ll_bus.h **** #define LL_APB2_GRP1_PERIPH_UART10       RCC_APB2ENR_UART10EN
 287:Drivers/STM32F4xx_HAL_Driver/Inc/stm32f4xx_ll_bus.h **** #endif /* UART10 */
 288:Drivers/STM32F4xx_HAL_Driver/Inc/stm32f4xx_ll_bus.h **** #define LL_APB2_GRP1_PERIPH_ADC1         RCC_APB2ENR_ADC1EN
 289:Drivers/STM32F4xx_HAL_Driver/Inc/stm32f4xx_ll_bus.h **** #if defined(ADC2)
 290:Drivers/STM32F4xx_HAL_Driver/Inc/stm32f4xx_ll_bus.h **** #define LL_APB2_GRP1_PERIPH_ADC2         RCC_APB2ENR_ADC2EN
 291:Drivers/STM32F4xx_HAL_Driver/Inc/stm32f4xx_ll_bus.h **** #endif /* ADC2 */
 292:Drivers/STM32F4xx_HAL_Driver/Inc/stm32f4xx_ll_bus.h **** #if defined(ADC3)
 293:Drivers/STM32F4xx_HAL_Driver/Inc/stm32f4xx_ll_bus.h **** #define LL_APB2_GRP1_PERIPH_ADC3         RCC_APB2ENR_ADC3EN
 294:Drivers/STM32F4xx_HAL_Driver/Inc/stm32f4xx_ll_bus.h **** #endif /* ADC3 */
 295:Drivers/STM32F4xx_HAL_Driver/Inc/stm32f4xx_ll_bus.h **** #if defined(SDIO)
 296:Drivers/STM32F4xx_HAL_Driver/Inc/stm32f4xx_ll_bus.h **** #define LL_APB2_GRP1_PERIPH_SDIO         RCC_APB2ENR_SDIOEN
 297:Drivers/STM32F4xx_HAL_Driver/Inc/stm32f4xx_ll_bus.h **** #endif /* SDIO */
 298:Drivers/STM32F4xx_HAL_Driver/Inc/stm32f4xx_ll_bus.h **** #define LL_APB2_GRP1_PERIPH_SPI1         RCC_APB2ENR_SPI1EN
 299:Drivers/STM32F4xx_HAL_Driver/Inc/stm32f4xx_ll_bus.h **** #if defined(SPI4)
 300:Drivers/STM32F4xx_HAL_Driver/Inc/stm32f4xx_ll_bus.h **** #define LL_APB2_GRP1_PERIPH_SPI4         RCC_APB2ENR_SPI4EN
 301:Drivers/STM32F4xx_HAL_Driver/Inc/stm32f4xx_ll_bus.h **** #endif /* SPI4 */
 302:Drivers/STM32F4xx_HAL_Driver/Inc/stm32f4xx_ll_bus.h **** #define LL_APB2_GRP1_PERIPH_SYSCFG       RCC_APB2ENR_SYSCFGEN
 303:Drivers/STM32F4xx_HAL_Driver/Inc/stm32f4xx_ll_bus.h **** #if defined(RCC_APB2ENR_EXTITEN)
 304:Drivers/STM32F4xx_HAL_Driver/Inc/stm32f4xx_ll_bus.h **** #define LL_APB2_GRP1_PERIPH_EXTI         RCC_APB2ENR_EXTITEN
ARM GAS  C:\Users\HP-Admin\AppData\Local\Temp\ccssVuiz.s 			page 10


 305:Drivers/STM32F4xx_HAL_Driver/Inc/stm32f4xx_ll_bus.h **** #endif /* RCC_APB2ENR_EXTITEN */
 306:Drivers/STM32F4xx_HAL_Driver/Inc/stm32f4xx_ll_bus.h **** #define LL_APB2_GRP1_PERIPH_TIM9         RCC_APB2ENR_TIM9EN
 307:Drivers/STM32F4xx_HAL_Driver/Inc/stm32f4xx_ll_bus.h **** #if defined(TIM10)
 308:Drivers/STM32F4xx_HAL_Driver/Inc/stm32f4xx_ll_bus.h **** #define LL_APB2_GRP1_PERIPH_TIM10        RCC_APB2ENR_TIM10EN
 309:Drivers/STM32F4xx_HAL_Driver/Inc/stm32f4xx_ll_bus.h **** #endif /* TIM10 */
 310:Drivers/STM32F4xx_HAL_Driver/Inc/stm32f4xx_ll_bus.h **** #define LL_APB2_GRP1_PERIPH_TIM11        RCC_APB2ENR_TIM11EN
 311:Drivers/STM32F4xx_HAL_Driver/Inc/stm32f4xx_ll_bus.h **** #if defined(SPI5)
 312:Drivers/STM32F4xx_HAL_Driver/Inc/stm32f4xx_ll_bus.h **** #define LL_APB2_GRP1_PERIPH_SPI5         RCC_APB2ENR_SPI5EN
 313:Drivers/STM32F4xx_HAL_Driver/Inc/stm32f4xx_ll_bus.h **** #endif /* SPI5 */
 314:Drivers/STM32F4xx_HAL_Driver/Inc/stm32f4xx_ll_bus.h **** #if defined(SPI6)
 315:Drivers/STM32F4xx_HAL_Driver/Inc/stm32f4xx_ll_bus.h **** #define LL_APB2_GRP1_PERIPH_SPI6         RCC_APB2ENR_SPI6EN
 316:Drivers/STM32F4xx_HAL_Driver/Inc/stm32f4xx_ll_bus.h **** #endif /* SPI6 */
 317:Drivers/STM32F4xx_HAL_Driver/Inc/stm32f4xx_ll_bus.h **** #if defined(SAI1)
 318:Drivers/STM32F4xx_HAL_Driver/Inc/stm32f4xx_ll_bus.h **** #define LL_APB2_GRP1_PERIPH_SAI1         RCC_APB2ENR_SAI1EN
 319:Drivers/STM32F4xx_HAL_Driver/Inc/stm32f4xx_ll_bus.h **** #endif /* SAI1 */
 320:Drivers/STM32F4xx_HAL_Driver/Inc/stm32f4xx_ll_bus.h **** #if defined(SAI2)
 321:Drivers/STM32F4xx_HAL_Driver/Inc/stm32f4xx_ll_bus.h **** #define LL_APB2_GRP1_PERIPH_SAI2         RCC_APB2ENR_SAI2EN
 322:Drivers/STM32F4xx_HAL_Driver/Inc/stm32f4xx_ll_bus.h **** #endif /* SAI2 */
 323:Drivers/STM32F4xx_HAL_Driver/Inc/stm32f4xx_ll_bus.h **** #if defined(LTDC)
 324:Drivers/STM32F4xx_HAL_Driver/Inc/stm32f4xx_ll_bus.h **** #define LL_APB2_GRP1_PERIPH_LTDC         RCC_APB2ENR_LTDCEN
 325:Drivers/STM32F4xx_HAL_Driver/Inc/stm32f4xx_ll_bus.h **** #endif /* LTDC */
 326:Drivers/STM32F4xx_HAL_Driver/Inc/stm32f4xx_ll_bus.h **** #if defined(DSI)
 327:Drivers/STM32F4xx_HAL_Driver/Inc/stm32f4xx_ll_bus.h **** #define LL_APB2_GRP1_PERIPH_DSI          RCC_APB2ENR_DSIEN
 328:Drivers/STM32F4xx_HAL_Driver/Inc/stm32f4xx_ll_bus.h **** #endif /* DSI */
 329:Drivers/STM32F4xx_HAL_Driver/Inc/stm32f4xx_ll_bus.h **** #if defined(DFSDM1_Channel0)
 330:Drivers/STM32F4xx_HAL_Driver/Inc/stm32f4xx_ll_bus.h **** #define LL_APB2_GRP1_PERIPH_DFSDM1       RCC_APB2ENR_DFSDM1EN
 331:Drivers/STM32F4xx_HAL_Driver/Inc/stm32f4xx_ll_bus.h **** #endif /* DFSDM1_Channel0 */
 332:Drivers/STM32F4xx_HAL_Driver/Inc/stm32f4xx_ll_bus.h **** #if defined(DFSDM2_Channel0)
 333:Drivers/STM32F4xx_HAL_Driver/Inc/stm32f4xx_ll_bus.h **** #define LL_APB2_GRP1_PERIPH_DFSDM2       RCC_APB2ENR_DFSDM2EN
 334:Drivers/STM32F4xx_HAL_Driver/Inc/stm32f4xx_ll_bus.h **** #endif /* DFSDM2_Channel0 */
 335:Drivers/STM32F4xx_HAL_Driver/Inc/stm32f4xx_ll_bus.h **** #define LL_APB2_GRP1_PERIPH_ADC          RCC_APB2RSTR_ADCRST
 336:Drivers/STM32F4xx_HAL_Driver/Inc/stm32f4xx_ll_bus.h **** /**
 337:Drivers/STM32F4xx_HAL_Driver/Inc/stm32f4xx_ll_bus.h ****   * @}
 338:Drivers/STM32F4xx_HAL_Driver/Inc/stm32f4xx_ll_bus.h ****   */
 339:Drivers/STM32F4xx_HAL_Driver/Inc/stm32f4xx_ll_bus.h **** 
 340:Drivers/STM32F4xx_HAL_Driver/Inc/stm32f4xx_ll_bus.h **** /**
 341:Drivers/STM32F4xx_HAL_Driver/Inc/stm32f4xx_ll_bus.h ****   * @}
 342:Drivers/STM32F4xx_HAL_Driver/Inc/stm32f4xx_ll_bus.h ****   */
 343:Drivers/STM32F4xx_HAL_Driver/Inc/stm32f4xx_ll_bus.h **** 
 344:Drivers/STM32F4xx_HAL_Driver/Inc/stm32f4xx_ll_bus.h **** /* Exported macro ------------------------------------------------------------*/
 345:Drivers/STM32F4xx_HAL_Driver/Inc/stm32f4xx_ll_bus.h **** /* Exported functions --------------------------------------------------------*/
 346:Drivers/STM32F4xx_HAL_Driver/Inc/stm32f4xx_ll_bus.h **** /** @defgroup BUS_LL_Exported_Functions BUS Exported Functions
 347:Drivers/STM32F4xx_HAL_Driver/Inc/stm32f4xx_ll_bus.h ****   * @{
 348:Drivers/STM32F4xx_HAL_Driver/Inc/stm32f4xx_ll_bus.h ****   */
 349:Drivers/STM32F4xx_HAL_Driver/Inc/stm32f4xx_ll_bus.h **** 
 350:Drivers/STM32F4xx_HAL_Driver/Inc/stm32f4xx_ll_bus.h **** /** @defgroup BUS_LL_EF_AHB1 AHB1
 351:Drivers/STM32F4xx_HAL_Driver/Inc/stm32f4xx_ll_bus.h ****   * @{
 352:Drivers/STM32F4xx_HAL_Driver/Inc/stm32f4xx_ll_bus.h ****   */
 353:Drivers/STM32F4xx_HAL_Driver/Inc/stm32f4xx_ll_bus.h **** 
 354:Drivers/STM32F4xx_HAL_Driver/Inc/stm32f4xx_ll_bus.h **** /**
 355:Drivers/STM32F4xx_HAL_Driver/Inc/stm32f4xx_ll_bus.h ****   * @brief  Enable AHB1 peripherals clock.
 356:Drivers/STM32F4xx_HAL_Driver/Inc/stm32f4xx_ll_bus.h ****   * @rmtoll AHB1ENR      GPIOAEN            LL_AHB1_GRP1_EnableClock\n
 357:Drivers/STM32F4xx_HAL_Driver/Inc/stm32f4xx_ll_bus.h ****   *         AHB1ENR      GPIOBEN            LL_AHB1_GRP1_EnableClock\n
 358:Drivers/STM32F4xx_HAL_Driver/Inc/stm32f4xx_ll_bus.h ****   *         AHB1ENR      GPIOCEN            LL_AHB1_GRP1_EnableClock\n
 359:Drivers/STM32F4xx_HAL_Driver/Inc/stm32f4xx_ll_bus.h ****   *         AHB1ENR      GPIODEN            LL_AHB1_GRP1_EnableClock\n
 360:Drivers/STM32F4xx_HAL_Driver/Inc/stm32f4xx_ll_bus.h ****   *         AHB1ENR      GPIOEEN            LL_AHB1_GRP1_EnableClock\n
 361:Drivers/STM32F4xx_HAL_Driver/Inc/stm32f4xx_ll_bus.h ****   *         AHB1ENR      GPIOFEN            LL_AHB1_GRP1_EnableClock\n
ARM GAS  C:\Users\HP-Admin\AppData\Local\Temp\ccssVuiz.s 			page 11


 362:Drivers/STM32F4xx_HAL_Driver/Inc/stm32f4xx_ll_bus.h ****   *         AHB1ENR      GPIOGEN            LL_AHB1_GRP1_EnableClock\n
 363:Drivers/STM32F4xx_HAL_Driver/Inc/stm32f4xx_ll_bus.h ****   *         AHB1ENR      GPIOHEN            LL_AHB1_GRP1_EnableClock\n
 364:Drivers/STM32F4xx_HAL_Driver/Inc/stm32f4xx_ll_bus.h ****   *         AHB1ENR      GPIOIEN            LL_AHB1_GRP1_EnableClock\n
 365:Drivers/STM32F4xx_HAL_Driver/Inc/stm32f4xx_ll_bus.h ****   *         AHB1ENR      GPIOJEN            LL_AHB1_GRP1_EnableClock\n
 366:Drivers/STM32F4xx_HAL_Driver/Inc/stm32f4xx_ll_bus.h ****   *         AHB1ENR      GPIOKEN            LL_AHB1_GRP1_EnableClock\n
 367:Drivers/STM32F4xx_HAL_Driver/Inc/stm32f4xx_ll_bus.h ****   *         AHB1ENR      CRCEN              LL_AHB1_GRP1_EnableClock\n
 368:Drivers/STM32F4xx_HAL_Driver/Inc/stm32f4xx_ll_bus.h ****   *         AHB1ENR      BKPSRAMEN          LL_AHB1_GRP1_EnableClock\n
 369:Drivers/STM32F4xx_HAL_Driver/Inc/stm32f4xx_ll_bus.h ****   *         AHB1ENR      CCMDATARAMEN       LL_AHB1_GRP1_EnableClock\n
 370:Drivers/STM32F4xx_HAL_Driver/Inc/stm32f4xx_ll_bus.h ****   *         AHB1ENR      DMA1EN             LL_AHB1_GRP1_EnableClock\n
 371:Drivers/STM32F4xx_HAL_Driver/Inc/stm32f4xx_ll_bus.h ****   *         AHB1ENR      DMA2EN             LL_AHB1_GRP1_EnableClock\n
 372:Drivers/STM32F4xx_HAL_Driver/Inc/stm32f4xx_ll_bus.h ****   *         AHB1ENR      RNGEN              LL_AHB1_GRP1_EnableClock\n
 373:Drivers/STM32F4xx_HAL_Driver/Inc/stm32f4xx_ll_bus.h ****   *         AHB1ENR      DMA2DEN            LL_AHB1_GRP1_EnableClock\n
 374:Drivers/STM32F4xx_HAL_Driver/Inc/stm32f4xx_ll_bus.h ****   *         AHB1ENR      ETHMACEN           LL_AHB1_GRP1_EnableClock\n
 375:Drivers/STM32F4xx_HAL_Driver/Inc/stm32f4xx_ll_bus.h ****   *         AHB1ENR      ETHMACTXEN         LL_AHB1_GRP1_EnableClock\n
 376:Drivers/STM32F4xx_HAL_Driver/Inc/stm32f4xx_ll_bus.h ****   *         AHB1ENR      ETHMACRXEN         LL_AHB1_GRP1_EnableClock\n
 377:Drivers/STM32F4xx_HAL_Driver/Inc/stm32f4xx_ll_bus.h ****   *         AHB1ENR      ETHMACPTPEN        LL_AHB1_GRP1_EnableClock\n
 378:Drivers/STM32F4xx_HAL_Driver/Inc/stm32f4xx_ll_bus.h ****   *         AHB1ENR      OTGHSEN            LL_AHB1_GRP1_EnableClock\n
 379:Drivers/STM32F4xx_HAL_Driver/Inc/stm32f4xx_ll_bus.h ****   *         AHB1ENR      OTGHSULPIEN        LL_AHB1_GRP1_EnableClock
 380:Drivers/STM32F4xx_HAL_Driver/Inc/stm32f4xx_ll_bus.h ****   * @param  Periphs This parameter can be a combination of the following values:
 381:Drivers/STM32F4xx_HAL_Driver/Inc/stm32f4xx_ll_bus.h ****   *         @arg @ref LL_AHB1_GRP1_PERIPH_GPIOA
 382:Drivers/STM32F4xx_HAL_Driver/Inc/stm32f4xx_ll_bus.h ****   *         @arg @ref LL_AHB1_GRP1_PERIPH_GPIOB
 383:Drivers/STM32F4xx_HAL_Driver/Inc/stm32f4xx_ll_bus.h ****   *         @arg @ref LL_AHB1_GRP1_PERIPH_GPIOC
 384:Drivers/STM32F4xx_HAL_Driver/Inc/stm32f4xx_ll_bus.h ****   *         @arg @ref LL_AHB1_GRP1_PERIPH_GPIOD (*)
 385:Drivers/STM32F4xx_HAL_Driver/Inc/stm32f4xx_ll_bus.h ****   *         @arg @ref LL_AHB1_GRP1_PERIPH_GPIOE (*)
 386:Drivers/STM32F4xx_HAL_Driver/Inc/stm32f4xx_ll_bus.h ****   *         @arg @ref LL_AHB1_GRP1_PERIPH_GPIOF (*)
 387:Drivers/STM32F4xx_HAL_Driver/Inc/stm32f4xx_ll_bus.h ****   *         @arg @ref LL_AHB1_GRP1_PERIPH_GPIOG (*)
 388:Drivers/STM32F4xx_HAL_Driver/Inc/stm32f4xx_ll_bus.h ****   *         @arg @ref LL_AHB1_GRP1_PERIPH_GPIOH (*)
 389:Drivers/STM32F4xx_HAL_Driver/Inc/stm32f4xx_ll_bus.h ****   *         @arg @ref LL_AHB1_GRP1_PERIPH_GPIOI (*)
 390:Drivers/STM32F4xx_HAL_Driver/Inc/stm32f4xx_ll_bus.h ****   *         @arg @ref LL_AHB1_GRP1_PERIPH_GPIOJ (*)
 391:Drivers/STM32F4xx_HAL_Driver/Inc/stm32f4xx_ll_bus.h ****   *         @arg @ref LL_AHB1_GRP1_PERIPH_GPIOK (*)
 392:Drivers/STM32F4xx_HAL_Driver/Inc/stm32f4xx_ll_bus.h ****   *         @arg @ref LL_AHB1_GRP1_PERIPH_CRC
 393:Drivers/STM32F4xx_HAL_Driver/Inc/stm32f4xx_ll_bus.h ****   *         @arg @ref LL_AHB1_GRP1_PERIPH_BKPSRAM (*)
 394:Drivers/STM32F4xx_HAL_Driver/Inc/stm32f4xx_ll_bus.h ****   *         @arg @ref LL_AHB1_GRP1_PERIPH_CCMDATARAM (*)
 395:Drivers/STM32F4xx_HAL_Driver/Inc/stm32f4xx_ll_bus.h ****   *         @arg @ref LL_AHB1_GRP1_PERIPH_DMA1
 396:Drivers/STM32F4xx_HAL_Driver/Inc/stm32f4xx_ll_bus.h ****   *         @arg @ref LL_AHB1_GRP1_PERIPH_DMA2
 397:Drivers/STM32F4xx_HAL_Driver/Inc/stm32f4xx_ll_bus.h ****   *         @arg @ref LL_AHB1_GRP1_PERIPH_RNG (*)
 398:Drivers/STM32F4xx_HAL_Driver/Inc/stm32f4xx_ll_bus.h ****   *         @arg @ref LL_AHB1_GRP1_PERIPH_DMA2D (*)
 399:Drivers/STM32F4xx_HAL_Driver/Inc/stm32f4xx_ll_bus.h ****   *         @arg @ref LL_AHB1_GRP1_PERIPH_ETHMAC (*)
 400:Drivers/STM32F4xx_HAL_Driver/Inc/stm32f4xx_ll_bus.h ****   *         @arg @ref LL_AHB1_GRP1_PERIPH_ETHMACTX (*)
 401:Drivers/STM32F4xx_HAL_Driver/Inc/stm32f4xx_ll_bus.h ****   *         @arg @ref LL_AHB1_GRP1_PERIPH_ETHMACRX (*)
 402:Drivers/STM32F4xx_HAL_Driver/Inc/stm32f4xx_ll_bus.h ****   *         @arg @ref LL_AHB1_GRP1_PERIPH_ETHMACPTP (*)
 403:Drivers/STM32F4xx_HAL_Driver/Inc/stm32f4xx_ll_bus.h ****   *         @arg @ref LL_AHB1_GRP1_PERIPH_OTGHS (*)
 404:Drivers/STM32F4xx_HAL_Driver/Inc/stm32f4xx_ll_bus.h ****   *         @arg @ref LL_AHB1_GRP1_PERIPH_OTGHSULPI (*)
 405:Drivers/STM32F4xx_HAL_Driver/Inc/stm32f4xx_ll_bus.h ****   *
 406:Drivers/STM32F4xx_HAL_Driver/Inc/stm32f4xx_ll_bus.h ****   *         (*) value not defined in all devices.
 407:Drivers/STM32F4xx_HAL_Driver/Inc/stm32f4xx_ll_bus.h ****   * @retval None
 408:Drivers/STM32F4xx_HAL_Driver/Inc/stm32f4xx_ll_bus.h ****   */
 409:Drivers/STM32F4xx_HAL_Driver/Inc/stm32f4xx_ll_bus.h **** __STATIC_INLINE void LL_AHB1_GRP1_EnableClock(uint32_t Periphs)
 129              		.loc 2 409 22 view .LVU14
 130              	.LBB770:
 410:Drivers/STM32F4xx_HAL_Driver/Inc/stm32f4xx_ll_bus.h **** {
 411:Drivers/STM32F4xx_HAL_Driver/Inc/stm32f4xx_ll_bus.h ****   __IO uint32_t tmpreg;
 131              		.loc 2 411 3 view .LVU15
 412:Drivers/STM32F4xx_HAL_Driver/Inc/stm32f4xx_ll_bus.h ****   SET_BIT(RCC->AHB1ENR, Periphs);
 132              		.loc 2 412 3 view .LVU16
 133 0002 C04B     		ldr	r3, .L76
 134 0004 1A6B     		ldr	r2, [r3, #48]
ARM GAS  C:\Users\HP-Admin\AppData\Local\Temp\ccssVuiz.s 			page 12


 135 0006 42F01002 		orr	r2, r2, #16
 136 000a 1A63     		str	r2, [r3, #48]
 413:Drivers/STM32F4xx_HAL_Driver/Inc/stm32f4xx_ll_bus.h ****   /* Delay after an RCC peripheral clock enabling */
 414:Drivers/STM32F4xx_HAL_Driver/Inc/stm32f4xx_ll_bus.h ****   tmpreg = READ_BIT(RCC->AHB1ENR, Periphs);
 137              		.loc 2 414 3 view .LVU17
 138              		.loc 2 414 12 is_stmt 0 view .LVU18
 139 000c 1B6B     		ldr	r3, [r3, #48]
 140 000e 03F01003 		and	r3, r3, #16
 141              		.loc 2 414 10 view .LVU19
 142 0012 0193     		str	r3, [sp, #4]
 415:Drivers/STM32F4xx_HAL_Driver/Inc/stm32f4xx_ll_bus.h ****   (void)tmpreg;
 143              		.loc 2 415 3 is_stmt 1 view .LVU20
 144 0014 019B     		ldr	r3, [sp, #4]
 145              	.LVL7:
 146              		.loc 2 415 3 is_stmt 0 view .LVU21
 147              	.LBE770:
 148              	.LBE769:
  89:Core/Src/Darin3Cart_Driver.c **** 
  90:Core/Src/Darin3Cart_Driver.c ****     // Configure each data bus pin as output using LL
  91:Core/Src/Darin3Cart_Driver.c ****     LL_GPIO_SetPinMode(GPIOE, M_D0, LL_GPIO_MODE_OUTPUT);
 149              		.loc 1 91 5 is_stmt 1 view .LVU22
 150 0016 BC4B     		ldr	r3, .L76+4
 151 0018 1B88     		ldrh	r3, [r3]
 152              	.LVL8:
 153              	.LBB771:
 154              	.LBI771:
 155              		.file 3 "Drivers/STM32F4xx_HAL_Driver/Inc/stm32f4xx_ll_gpio.h"
   1:Drivers/STM32F4xx_HAL_Driver/Inc/stm32f4xx_ll_gpio.h **** /**
   2:Drivers/STM32F4xx_HAL_Driver/Inc/stm32f4xx_ll_gpio.h ****   ******************************************************************************
   3:Drivers/STM32F4xx_HAL_Driver/Inc/stm32f4xx_ll_gpio.h ****   * @file    stm32f4xx_ll_gpio.h
   4:Drivers/STM32F4xx_HAL_Driver/Inc/stm32f4xx_ll_gpio.h ****   * @author  MCD Application Team
   5:Drivers/STM32F4xx_HAL_Driver/Inc/stm32f4xx_ll_gpio.h ****   * @brief   Header file of GPIO LL module.
   6:Drivers/STM32F4xx_HAL_Driver/Inc/stm32f4xx_ll_gpio.h ****   ******************************************************************************
   7:Drivers/STM32F4xx_HAL_Driver/Inc/stm32f4xx_ll_gpio.h ****   * @attention
   8:Drivers/STM32F4xx_HAL_Driver/Inc/stm32f4xx_ll_gpio.h ****   *
   9:Drivers/STM32F4xx_HAL_Driver/Inc/stm32f4xx_ll_gpio.h ****   * Copyright (c) 2017 STMicroelectronics.
  10:Drivers/STM32F4xx_HAL_Driver/Inc/stm32f4xx_ll_gpio.h ****   * All rights reserved.
  11:Drivers/STM32F4xx_HAL_Driver/Inc/stm32f4xx_ll_gpio.h ****   *
  12:Drivers/STM32F4xx_HAL_Driver/Inc/stm32f4xx_ll_gpio.h ****   * This software is licensed under terms that can be found in the LICENSE file
  13:Drivers/STM32F4xx_HAL_Driver/Inc/stm32f4xx_ll_gpio.h ****   * in the root directory of this software component.
  14:Drivers/STM32F4xx_HAL_Driver/Inc/stm32f4xx_ll_gpio.h ****   * If no LICENSE file comes with this software, it is provided AS-IS.
  15:Drivers/STM32F4xx_HAL_Driver/Inc/stm32f4xx_ll_gpio.h ****   *
  16:Drivers/STM32F4xx_HAL_Driver/Inc/stm32f4xx_ll_gpio.h ****   ******************************************************************************
  17:Drivers/STM32F4xx_HAL_Driver/Inc/stm32f4xx_ll_gpio.h ****   */
  18:Drivers/STM32F4xx_HAL_Driver/Inc/stm32f4xx_ll_gpio.h **** 
  19:Drivers/STM32F4xx_HAL_Driver/Inc/stm32f4xx_ll_gpio.h **** /* Define to prevent recursive inclusion -------------------------------------*/
  20:Drivers/STM32F4xx_HAL_Driver/Inc/stm32f4xx_ll_gpio.h **** #ifndef __STM32F4xx_LL_GPIO_H
  21:Drivers/STM32F4xx_HAL_Driver/Inc/stm32f4xx_ll_gpio.h **** #define __STM32F4xx_LL_GPIO_H
  22:Drivers/STM32F4xx_HAL_Driver/Inc/stm32f4xx_ll_gpio.h **** 
  23:Drivers/STM32F4xx_HAL_Driver/Inc/stm32f4xx_ll_gpio.h **** #ifdef __cplusplus
  24:Drivers/STM32F4xx_HAL_Driver/Inc/stm32f4xx_ll_gpio.h **** extern "C" {
  25:Drivers/STM32F4xx_HAL_Driver/Inc/stm32f4xx_ll_gpio.h **** #endif
  26:Drivers/STM32F4xx_HAL_Driver/Inc/stm32f4xx_ll_gpio.h **** 
  27:Drivers/STM32F4xx_HAL_Driver/Inc/stm32f4xx_ll_gpio.h **** /* Includes ------------------------------------------------------------------*/
  28:Drivers/STM32F4xx_HAL_Driver/Inc/stm32f4xx_ll_gpio.h **** #include "stm32f4xx.h"
  29:Drivers/STM32F4xx_HAL_Driver/Inc/stm32f4xx_ll_gpio.h **** 
  30:Drivers/STM32F4xx_HAL_Driver/Inc/stm32f4xx_ll_gpio.h **** /** @addtogroup STM32F4xx_LL_Driver
ARM GAS  C:\Users\HP-Admin\AppData\Local\Temp\ccssVuiz.s 			page 13


  31:Drivers/STM32F4xx_HAL_Driver/Inc/stm32f4xx_ll_gpio.h ****   * @{
  32:Drivers/STM32F4xx_HAL_Driver/Inc/stm32f4xx_ll_gpio.h ****   */
  33:Drivers/STM32F4xx_HAL_Driver/Inc/stm32f4xx_ll_gpio.h **** 
  34:Drivers/STM32F4xx_HAL_Driver/Inc/stm32f4xx_ll_gpio.h **** #if defined (GPIOA) || defined (GPIOB) || defined (GPIOC) || defined (GPIOD) || defined (GPIOE) || 
  35:Drivers/STM32F4xx_HAL_Driver/Inc/stm32f4xx_ll_gpio.h **** 
  36:Drivers/STM32F4xx_HAL_Driver/Inc/stm32f4xx_ll_gpio.h **** /** @defgroup GPIO_LL GPIO
  37:Drivers/STM32F4xx_HAL_Driver/Inc/stm32f4xx_ll_gpio.h ****   * @{
  38:Drivers/STM32F4xx_HAL_Driver/Inc/stm32f4xx_ll_gpio.h ****   */
  39:Drivers/STM32F4xx_HAL_Driver/Inc/stm32f4xx_ll_gpio.h **** 
  40:Drivers/STM32F4xx_HAL_Driver/Inc/stm32f4xx_ll_gpio.h **** /* Private types -------------------------------------------------------------*/
  41:Drivers/STM32F4xx_HAL_Driver/Inc/stm32f4xx_ll_gpio.h **** /* Private variables ---------------------------------------------------------*/
  42:Drivers/STM32F4xx_HAL_Driver/Inc/stm32f4xx_ll_gpio.h **** /* Private constants ---------------------------------------------------------*/
  43:Drivers/STM32F4xx_HAL_Driver/Inc/stm32f4xx_ll_gpio.h **** /* Private macros ------------------------------------------------------------*/
  44:Drivers/STM32F4xx_HAL_Driver/Inc/stm32f4xx_ll_gpio.h **** #if defined(USE_FULL_LL_DRIVER)
  45:Drivers/STM32F4xx_HAL_Driver/Inc/stm32f4xx_ll_gpio.h **** /** @defgroup GPIO_LL_Private_Macros GPIO Private Macros
  46:Drivers/STM32F4xx_HAL_Driver/Inc/stm32f4xx_ll_gpio.h ****   * @{
  47:Drivers/STM32F4xx_HAL_Driver/Inc/stm32f4xx_ll_gpio.h ****   */
  48:Drivers/STM32F4xx_HAL_Driver/Inc/stm32f4xx_ll_gpio.h **** 
  49:Drivers/STM32F4xx_HAL_Driver/Inc/stm32f4xx_ll_gpio.h **** /**
  50:Drivers/STM32F4xx_HAL_Driver/Inc/stm32f4xx_ll_gpio.h ****   * @}
  51:Drivers/STM32F4xx_HAL_Driver/Inc/stm32f4xx_ll_gpio.h ****   */
  52:Drivers/STM32F4xx_HAL_Driver/Inc/stm32f4xx_ll_gpio.h **** #endif /*USE_FULL_LL_DRIVER*/
  53:Drivers/STM32F4xx_HAL_Driver/Inc/stm32f4xx_ll_gpio.h **** 
  54:Drivers/STM32F4xx_HAL_Driver/Inc/stm32f4xx_ll_gpio.h **** /* Exported types ------------------------------------------------------------*/
  55:Drivers/STM32F4xx_HAL_Driver/Inc/stm32f4xx_ll_gpio.h **** #if defined(USE_FULL_LL_DRIVER)
  56:Drivers/STM32F4xx_HAL_Driver/Inc/stm32f4xx_ll_gpio.h **** /** @defgroup GPIO_LL_ES_INIT GPIO Exported Init structures
  57:Drivers/STM32F4xx_HAL_Driver/Inc/stm32f4xx_ll_gpio.h ****   * @{
  58:Drivers/STM32F4xx_HAL_Driver/Inc/stm32f4xx_ll_gpio.h ****   */
  59:Drivers/STM32F4xx_HAL_Driver/Inc/stm32f4xx_ll_gpio.h **** 
  60:Drivers/STM32F4xx_HAL_Driver/Inc/stm32f4xx_ll_gpio.h **** /**
  61:Drivers/STM32F4xx_HAL_Driver/Inc/stm32f4xx_ll_gpio.h ****   * @brief LL GPIO Init Structure definition
  62:Drivers/STM32F4xx_HAL_Driver/Inc/stm32f4xx_ll_gpio.h ****   */
  63:Drivers/STM32F4xx_HAL_Driver/Inc/stm32f4xx_ll_gpio.h **** typedef struct
  64:Drivers/STM32F4xx_HAL_Driver/Inc/stm32f4xx_ll_gpio.h **** {
  65:Drivers/STM32F4xx_HAL_Driver/Inc/stm32f4xx_ll_gpio.h ****   uint32_t Pin;          /*!< Specifies the GPIO pins to be configured.
  66:Drivers/STM32F4xx_HAL_Driver/Inc/stm32f4xx_ll_gpio.h ****                               This parameter can be any value of @ref GPIO_LL_EC_PIN */
  67:Drivers/STM32F4xx_HAL_Driver/Inc/stm32f4xx_ll_gpio.h **** 
  68:Drivers/STM32F4xx_HAL_Driver/Inc/stm32f4xx_ll_gpio.h ****   uint32_t Mode;         /*!< Specifies the operating mode for the selected pins.
  69:Drivers/STM32F4xx_HAL_Driver/Inc/stm32f4xx_ll_gpio.h ****                               This parameter can be a value of @ref GPIO_LL_EC_MODE.
  70:Drivers/STM32F4xx_HAL_Driver/Inc/stm32f4xx_ll_gpio.h **** 
  71:Drivers/STM32F4xx_HAL_Driver/Inc/stm32f4xx_ll_gpio.h ****                               GPIO HW configuration can be modified afterwards using unitary functi
  72:Drivers/STM32F4xx_HAL_Driver/Inc/stm32f4xx_ll_gpio.h **** 
  73:Drivers/STM32F4xx_HAL_Driver/Inc/stm32f4xx_ll_gpio.h ****   uint32_t Speed;        /*!< Specifies the speed for the selected pins.
  74:Drivers/STM32F4xx_HAL_Driver/Inc/stm32f4xx_ll_gpio.h ****                               This parameter can be a value of @ref GPIO_LL_EC_SPEED.
  75:Drivers/STM32F4xx_HAL_Driver/Inc/stm32f4xx_ll_gpio.h **** 
  76:Drivers/STM32F4xx_HAL_Driver/Inc/stm32f4xx_ll_gpio.h ****                               GPIO HW configuration can be modified afterwards using unitary functi
  77:Drivers/STM32F4xx_HAL_Driver/Inc/stm32f4xx_ll_gpio.h **** 
  78:Drivers/STM32F4xx_HAL_Driver/Inc/stm32f4xx_ll_gpio.h ****   uint32_t OutputType;   /*!< Specifies the operating output type for the selected pins.
  79:Drivers/STM32F4xx_HAL_Driver/Inc/stm32f4xx_ll_gpio.h ****                               This parameter can be a value of @ref GPIO_LL_EC_OUTPUT.
  80:Drivers/STM32F4xx_HAL_Driver/Inc/stm32f4xx_ll_gpio.h **** 
  81:Drivers/STM32F4xx_HAL_Driver/Inc/stm32f4xx_ll_gpio.h ****                               GPIO HW configuration can be modified afterwards using unitary functi
  82:Drivers/STM32F4xx_HAL_Driver/Inc/stm32f4xx_ll_gpio.h **** 
  83:Drivers/STM32F4xx_HAL_Driver/Inc/stm32f4xx_ll_gpio.h ****   uint32_t Pull;         /*!< Specifies the operating Pull-up/Pull down for the selected pins.
  84:Drivers/STM32F4xx_HAL_Driver/Inc/stm32f4xx_ll_gpio.h ****                               This parameter can be a value of @ref GPIO_LL_EC_PULL.
  85:Drivers/STM32F4xx_HAL_Driver/Inc/stm32f4xx_ll_gpio.h **** 
  86:Drivers/STM32F4xx_HAL_Driver/Inc/stm32f4xx_ll_gpio.h ****                               GPIO HW configuration can be modified afterwards using unitary functi
  87:Drivers/STM32F4xx_HAL_Driver/Inc/stm32f4xx_ll_gpio.h **** 
ARM GAS  C:\Users\HP-Admin\AppData\Local\Temp\ccssVuiz.s 			page 14


  88:Drivers/STM32F4xx_HAL_Driver/Inc/stm32f4xx_ll_gpio.h ****   uint32_t Alternate;    /*!< Specifies the Peripheral to be connected to the selected pins.
  89:Drivers/STM32F4xx_HAL_Driver/Inc/stm32f4xx_ll_gpio.h ****                               This parameter can be a value of @ref GPIO_LL_EC_AF.
  90:Drivers/STM32F4xx_HAL_Driver/Inc/stm32f4xx_ll_gpio.h **** 
  91:Drivers/STM32F4xx_HAL_Driver/Inc/stm32f4xx_ll_gpio.h ****                               GPIO HW configuration can be modified afterwards using unitary functi
  92:Drivers/STM32F4xx_HAL_Driver/Inc/stm32f4xx_ll_gpio.h **** } LL_GPIO_InitTypeDef;
  93:Drivers/STM32F4xx_HAL_Driver/Inc/stm32f4xx_ll_gpio.h **** 
  94:Drivers/STM32F4xx_HAL_Driver/Inc/stm32f4xx_ll_gpio.h **** /**
  95:Drivers/STM32F4xx_HAL_Driver/Inc/stm32f4xx_ll_gpio.h ****   * @}
  96:Drivers/STM32F4xx_HAL_Driver/Inc/stm32f4xx_ll_gpio.h ****   */
  97:Drivers/STM32F4xx_HAL_Driver/Inc/stm32f4xx_ll_gpio.h **** #endif /* USE_FULL_LL_DRIVER */
  98:Drivers/STM32F4xx_HAL_Driver/Inc/stm32f4xx_ll_gpio.h **** 
  99:Drivers/STM32F4xx_HAL_Driver/Inc/stm32f4xx_ll_gpio.h **** /* Exported constants --------------------------------------------------------*/
 100:Drivers/STM32F4xx_HAL_Driver/Inc/stm32f4xx_ll_gpio.h **** /** @defgroup GPIO_LL_Exported_Constants GPIO Exported Constants
 101:Drivers/STM32F4xx_HAL_Driver/Inc/stm32f4xx_ll_gpio.h ****   * @{
 102:Drivers/STM32F4xx_HAL_Driver/Inc/stm32f4xx_ll_gpio.h ****   */
 103:Drivers/STM32F4xx_HAL_Driver/Inc/stm32f4xx_ll_gpio.h **** 
 104:Drivers/STM32F4xx_HAL_Driver/Inc/stm32f4xx_ll_gpio.h **** /** @defgroup GPIO_LL_EC_PIN PIN
 105:Drivers/STM32F4xx_HAL_Driver/Inc/stm32f4xx_ll_gpio.h ****   * @{
 106:Drivers/STM32F4xx_HAL_Driver/Inc/stm32f4xx_ll_gpio.h ****   */
 107:Drivers/STM32F4xx_HAL_Driver/Inc/stm32f4xx_ll_gpio.h **** #define LL_GPIO_PIN_0                      GPIO_BSRR_BS_0 /*!< Select pin 0 */
 108:Drivers/STM32F4xx_HAL_Driver/Inc/stm32f4xx_ll_gpio.h **** #define LL_GPIO_PIN_1                      GPIO_BSRR_BS_1 /*!< Select pin 1 */
 109:Drivers/STM32F4xx_HAL_Driver/Inc/stm32f4xx_ll_gpio.h **** #define LL_GPIO_PIN_2                      GPIO_BSRR_BS_2 /*!< Select pin 2 */
 110:Drivers/STM32F4xx_HAL_Driver/Inc/stm32f4xx_ll_gpio.h **** #define LL_GPIO_PIN_3                      GPIO_BSRR_BS_3 /*!< Select pin 3 */
 111:Drivers/STM32F4xx_HAL_Driver/Inc/stm32f4xx_ll_gpio.h **** #define LL_GPIO_PIN_4                      GPIO_BSRR_BS_4 /*!< Select pin 4 */
 112:Drivers/STM32F4xx_HAL_Driver/Inc/stm32f4xx_ll_gpio.h **** #define LL_GPIO_PIN_5                      GPIO_BSRR_BS_5 /*!< Select pin 5 */
 113:Drivers/STM32F4xx_HAL_Driver/Inc/stm32f4xx_ll_gpio.h **** #define LL_GPIO_PIN_6                      GPIO_BSRR_BS_6 /*!< Select pin 6 */
 114:Drivers/STM32F4xx_HAL_Driver/Inc/stm32f4xx_ll_gpio.h **** #define LL_GPIO_PIN_7                      GPIO_BSRR_BS_7 /*!< Select pin 7 */
 115:Drivers/STM32F4xx_HAL_Driver/Inc/stm32f4xx_ll_gpio.h **** #define LL_GPIO_PIN_8                      GPIO_BSRR_BS_8 /*!< Select pin 8 */
 116:Drivers/STM32F4xx_HAL_Driver/Inc/stm32f4xx_ll_gpio.h **** #define LL_GPIO_PIN_9                      GPIO_BSRR_BS_9 /*!< Select pin 9 */
 117:Drivers/STM32F4xx_HAL_Driver/Inc/stm32f4xx_ll_gpio.h **** #define LL_GPIO_PIN_10                     GPIO_BSRR_BS_10 /*!< Select pin 10 */
 118:Drivers/STM32F4xx_HAL_Driver/Inc/stm32f4xx_ll_gpio.h **** #define LL_GPIO_PIN_11                     GPIO_BSRR_BS_11 /*!< Select pin 11 */
 119:Drivers/STM32F4xx_HAL_Driver/Inc/stm32f4xx_ll_gpio.h **** #define LL_GPIO_PIN_12                     GPIO_BSRR_BS_12 /*!< Select pin 12 */
 120:Drivers/STM32F4xx_HAL_Driver/Inc/stm32f4xx_ll_gpio.h **** #define LL_GPIO_PIN_13                     GPIO_BSRR_BS_13 /*!< Select pin 13 */
 121:Drivers/STM32F4xx_HAL_Driver/Inc/stm32f4xx_ll_gpio.h **** #define LL_GPIO_PIN_14                     GPIO_BSRR_BS_14 /*!< Select pin 14 */
 122:Drivers/STM32F4xx_HAL_Driver/Inc/stm32f4xx_ll_gpio.h **** #define LL_GPIO_PIN_15                     GPIO_BSRR_BS_15 /*!< Select pin 15 */
 123:Drivers/STM32F4xx_HAL_Driver/Inc/stm32f4xx_ll_gpio.h **** #define LL_GPIO_PIN_ALL                    (GPIO_BSRR_BS_0 | GPIO_BSRR_BS_1  | GPIO_BSRR_BS_2  | \
 124:Drivers/STM32F4xx_HAL_Driver/Inc/stm32f4xx_ll_gpio.h ****                                            GPIO_BSRR_BS_3  | GPIO_BSRR_BS_4  | GPIO_BSRR_BS_5  | \
 125:Drivers/STM32F4xx_HAL_Driver/Inc/stm32f4xx_ll_gpio.h ****                                            GPIO_BSRR_BS_6  | GPIO_BSRR_BS_7  | GPIO_BSRR_BS_8  | \
 126:Drivers/STM32F4xx_HAL_Driver/Inc/stm32f4xx_ll_gpio.h ****                                            GPIO_BSRR_BS_9  | GPIO_BSRR_BS_10 | GPIO_BSRR_BS_11 | \
 127:Drivers/STM32F4xx_HAL_Driver/Inc/stm32f4xx_ll_gpio.h ****                                            GPIO_BSRR_BS_12 | GPIO_BSRR_BS_13 | GPIO_BSRR_BS_14 | \
 128:Drivers/STM32F4xx_HAL_Driver/Inc/stm32f4xx_ll_gpio.h ****                                            GPIO_BSRR_BS_15) /*!< Select all pins */
 129:Drivers/STM32F4xx_HAL_Driver/Inc/stm32f4xx_ll_gpio.h **** /**
 130:Drivers/STM32F4xx_HAL_Driver/Inc/stm32f4xx_ll_gpio.h ****   * @}
 131:Drivers/STM32F4xx_HAL_Driver/Inc/stm32f4xx_ll_gpio.h ****   */
 132:Drivers/STM32F4xx_HAL_Driver/Inc/stm32f4xx_ll_gpio.h **** 
 133:Drivers/STM32F4xx_HAL_Driver/Inc/stm32f4xx_ll_gpio.h **** /** @defgroup GPIO_LL_EC_MODE Mode
 134:Drivers/STM32F4xx_HAL_Driver/Inc/stm32f4xx_ll_gpio.h ****   * @{
 135:Drivers/STM32F4xx_HAL_Driver/Inc/stm32f4xx_ll_gpio.h ****   */
 136:Drivers/STM32F4xx_HAL_Driver/Inc/stm32f4xx_ll_gpio.h **** #define LL_GPIO_MODE_INPUT                 (0x00000000U) /*!< Select input mode */
 137:Drivers/STM32F4xx_HAL_Driver/Inc/stm32f4xx_ll_gpio.h **** #define LL_GPIO_MODE_OUTPUT                GPIO_MODER_MODER0_0  /*!< Select output mode */
 138:Drivers/STM32F4xx_HAL_Driver/Inc/stm32f4xx_ll_gpio.h **** #define LL_GPIO_MODE_ALTERNATE             GPIO_MODER_MODER0_1  /*!< Select alternate function mode
 139:Drivers/STM32F4xx_HAL_Driver/Inc/stm32f4xx_ll_gpio.h **** #define LL_GPIO_MODE_ANALOG                GPIO_MODER_MODER0    /*!< Select analog mode */
 140:Drivers/STM32F4xx_HAL_Driver/Inc/stm32f4xx_ll_gpio.h **** /**
 141:Drivers/STM32F4xx_HAL_Driver/Inc/stm32f4xx_ll_gpio.h ****   * @}
 142:Drivers/STM32F4xx_HAL_Driver/Inc/stm32f4xx_ll_gpio.h ****   */
 143:Drivers/STM32F4xx_HAL_Driver/Inc/stm32f4xx_ll_gpio.h **** 
 144:Drivers/STM32F4xx_HAL_Driver/Inc/stm32f4xx_ll_gpio.h **** /** @defgroup GPIO_LL_EC_OUTPUT Output Type
ARM GAS  C:\Users\HP-Admin\AppData\Local\Temp\ccssVuiz.s 			page 15


 145:Drivers/STM32F4xx_HAL_Driver/Inc/stm32f4xx_ll_gpio.h ****   * @{
 146:Drivers/STM32F4xx_HAL_Driver/Inc/stm32f4xx_ll_gpio.h ****   */
 147:Drivers/STM32F4xx_HAL_Driver/Inc/stm32f4xx_ll_gpio.h **** #define LL_GPIO_OUTPUT_PUSHPULL            (0x00000000U) /*!< Select push-pull as output type */
 148:Drivers/STM32F4xx_HAL_Driver/Inc/stm32f4xx_ll_gpio.h **** #define LL_GPIO_OUTPUT_OPENDRAIN           GPIO_OTYPER_OT_0 /*!< Select open-drain as output type *
 149:Drivers/STM32F4xx_HAL_Driver/Inc/stm32f4xx_ll_gpio.h **** /**
 150:Drivers/STM32F4xx_HAL_Driver/Inc/stm32f4xx_ll_gpio.h ****   * @}
 151:Drivers/STM32F4xx_HAL_Driver/Inc/stm32f4xx_ll_gpio.h ****   */
 152:Drivers/STM32F4xx_HAL_Driver/Inc/stm32f4xx_ll_gpio.h **** 
 153:Drivers/STM32F4xx_HAL_Driver/Inc/stm32f4xx_ll_gpio.h **** /** @defgroup GPIO_LL_EC_SPEED Output Speed
 154:Drivers/STM32F4xx_HAL_Driver/Inc/stm32f4xx_ll_gpio.h ****   * @{
 155:Drivers/STM32F4xx_HAL_Driver/Inc/stm32f4xx_ll_gpio.h ****   */
 156:Drivers/STM32F4xx_HAL_Driver/Inc/stm32f4xx_ll_gpio.h **** #define LL_GPIO_SPEED_FREQ_LOW             (0x00000000U) /*!< Select I/O low output speed    */
 157:Drivers/STM32F4xx_HAL_Driver/Inc/stm32f4xx_ll_gpio.h **** #define LL_GPIO_SPEED_FREQ_MEDIUM          GPIO_OSPEEDER_OSPEEDR0_0 /*!< Select I/O medium output s
 158:Drivers/STM32F4xx_HAL_Driver/Inc/stm32f4xx_ll_gpio.h **** #define LL_GPIO_SPEED_FREQ_HIGH            GPIO_OSPEEDER_OSPEEDR0_1 /*!< Select I/O fast output spe
 159:Drivers/STM32F4xx_HAL_Driver/Inc/stm32f4xx_ll_gpio.h **** #define LL_GPIO_SPEED_FREQ_VERY_HIGH       GPIO_OSPEEDER_OSPEEDR0   /*!< Select I/O high output spe
 160:Drivers/STM32F4xx_HAL_Driver/Inc/stm32f4xx_ll_gpio.h **** /**
 161:Drivers/STM32F4xx_HAL_Driver/Inc/stm32f4xx_ll_gpio.h ****   * @}
 162:Drivers/STM32F4xx_HAL_Driver/Inc/stm32f4xx_ll_gpio.h ****   */
 163:Drivers/STM32F4xx_HAL_Driver/Inc/stm32f4xx_ll_gpio.h **** 
 164:Drivers/STM32F4xx_HAL_Driver/Inc/stm32f4xx_ll_gpio.h **** /** @defgroup GPIO_LL_EC_PULL Pull Up Pull Down
 165:Drivers/STM32F4xx_HAL_Driver/Inc/stm32f4xx_ll_gpio.h ****   * @{
 166:Drivers/STM32F4xx_HAL_Driver/Inc/stm32f4xx_ll_gpio.h ****   */
 167:Drivers/STM32F4xx_HAL_Driver/Inc/stm32f4xx_ll_gpio.h **** #define LL_GPIO_PULL_NO                    (0x00000000U) /*!< Select I/O no pull */
 168:Drivers/STM32F4xx_HAL_Driver/Inc/stm32f4xx_ll_gpio.h **** #define LL_GPIO_PULL_UP                    GPIO_PUPDR_PUPDR0_0 /*!< Select I/O pull up */
 169:Drivers/STM32F4xx_HAL_Driver/Inc/stm32f4xx_ll_gpio.h **** #define LL_GPIO_PULL_DOWN                  GPIO_PUPDR_PUPDR0_1 /*!< Select I/O pull down */
 170:Drivers/STM32F4xx_HAL_Driver/Inc/stm32f4xx_ll_gpio.h **** /**
 171:Drivers/STM32F4xx_HAL_Driver/Inc/stm32f4xx_ll_gpio.h ****   * @}
 172:Drivers/STM32F4xx_HAL_Driver/Inc/stm32f4xx_ll_gpio.h ****   */
 173:Drivers/STM32F4xx_HAL_Driver/Inc/stm32f4xx_ll_gpio.h **** 
 174:Drivers/STM32F4xx_HAL_Driver/Inc/stm32f4xx_ll_gpio.h **** /** @defgroup GPIO_LL_EC_AF Alternate Function
 175:Drivers/STM32F4xx_HAL_Driver/Inc/stm32f4xx_ll_gpio.h ****   * @{
 176:Drivers/STM32F4xx_HAL_Driver/Inc/stm32f4xx_ll_gpio.h ****   */
 177:Drivers/STM32F4xx_HAL_Driver/Inc/stm32f4xx_ll_gpio.h **** #define LL_GPIO_AF_0                       (0x0000000U) /*!< Select alternate function 0 */
 178:Drivers/STM32F4xx_HAL_Driver/Inc/stm32f4xx_ll_gpio.h **** #define LL_GPIO_AF_1                       (0x0000001U) /*!< Select alternate function 1 */
 179:Drivers/STM32F4xx_HAL_Driver/Inc/stm32f4xx_ll_gpio.h **** #define LL_GPIO_AF_2                       (0x0000002U) /*!< Select alternate function 2 */
 180:Drivers/STM32F4xx_HAL_Driver/Inc/stm32f4xx_ll_gpio.h **** #define LL_GPIO_AF_3                       (0x0000003U) /*!< Select alternate function 3 */
 181:Drivers/STM32F4xx_HAL_Driver/Inc/stm32f4xx_ll_gpio.h **** #define LL_GPIO_AF_4                       (0x0000004U) /*!< Select alternate function 4 */
 182:Drivers/STM32F4xx_HAL_Driver/Inc/stm32f4xx_ll_gpio.h **** #define LL_GPIO_AF_5                       (0x0000005U) /*!< Select alternate function 5 */
 183:Drivers/STM32F4xx_HAL_Driver/Inc/stm32f4xx_ll_gpio.h **** #define LL_GPIO_AF_6                       (0x0000006U) /*!< Select alternate function 6 */
 184:Drivers/STM32F4xx_HAL_Driver/Inc/stm32f4xx_ll_gpio.h **** #define LL_GPIO_AF_7                       (0x0000007U) /*!< Select alternate function 7 */
 185:Drivers/STM32F4xx_HAL_Driver/Inc/stm32f4xx_ll_gpio.h **** #define LL_GPIO_AF_8                       (0x0000008U) /*!< Select alternate function 8 */
 186:Drivers/STM32F4xx_HAL_Driver/Inc/stm32f4xx_ll_gpio.h **** #define LL_GPIO_AF_9                       (0x0000009U) /*!< Select alternate function 9 */
 187:Drivers/STM32F4xx_HAL_Driver/Inc/stm32f4xx_ll_gpio.h **** #define LL_GPIO_AF_10                      (0x000000AU) /*!< Select alternate function 10 */
 188:Drivers/STM32F4xx_HAL_Driver/Inc/stm32f4xx_ll_gpio.h **** #define LL_GPIO_AF_11                      (0x000000BU) /*!< Select alternate function 11 */
 189:Drivers/STM32F4xx_HAL_Driver/Inc/stm32f4xx_ll_gpio.h **** #define LL_GPIO_AF_12                      (0x000000CU) /*!< Select alternate function 12 */
 190:Drivers/STM32F4xx_HAL_Driver/Inc/stm32f4xx_ll_gpio.h **** #define LL_GPIO_AF_13                      (0x000000DU) /*!< Select alternate function 13 */
 191:Drivers/STM32F4xx_HAL_Driver/Inc/stm32f4xx_ll_gpio.h **** #define LL_GPIO_AF_14                      (0x000000EU) /*!< Select alternate function 14 */
 192:Drivers/STM32F4xx_HAL_Driver/Inc/stm32f4xx_ll_gpio.h **** #define LL_GPIO_AF_15                      (0x000000FU) /*!< Select alternate function 15 */
 193:Drivers/STM32F4xx_HAL_Driver/Inc/stm32f4xx_ll_gpio.h **** /**
 194:Drivers/STM32F4xx_HAL_Driver/Inc/stm32f4xx_ll_gpio.h ****   * @}
 195:Drivers/STM32F4xx_HAL_Driver/Inc/stm32f4xx_ll_gpio.h ****   */
 196:Drivers/STM32F4xx_HAL_Driver/Inc/stm32f4xx_ll_gpio.h **** 
 197:Drivers/STM32F4xx_HAL_Driver/Inc/stm32f4xx_ll_gpio.h **** /**
 198:Drivers/STM32F4xx_HAL_Driver/Inc/stm32f4xx_ll_gpio.h ****   * @}
 199:Drivers/STM32F4xx_HAL_Driver/Inc/stm32f4xx_ll_gpio.h ****   */
 200:Drivers/STM32F4xx_HAL_Driver/Inc/stm32f4xx_ll_gpio.h **** 
 201:Drivers/STM32F4xx_HAL_Driver/Inc/stm32f4xx_ll_gpio.h **** /* Exported macro ------------------------------------------------------------*/
ARM GAS  C:\Users\HP-Admin\AppData\Local\Temp\ccssVuiz.s 			page 16


 202:Drivers/STM32F4xx_HAL_Driver/Inc/stm32f4xx_ll_gpio.h **** /** @defgroup GPIO_LL_Exported_Macros GPIO Exported Macros
 203:Drivers/STM32F4xx_HAL_Driver/Inc/stm32f4xx_ll_gpio.h ****   * @{
 204:Drivers/STM32F4xx_HAL_Driver/Inc/stm32f4xx_ll_gpio.h ****   */
 205:Drivers/STM32F4xx_HAL_Driver/Inc/stm32f4xx_ll_gpio.h **** 
 206:Drivers/STM32F4xx_HAL_Driver/Inc/stm32f4xx_ll_gpio.h **** /** @defgroup GPIO_LL_EM_WRITE_READ Common Write and read registers Macros
 207:Drivers/STM32F4xx_HAL_Driver/Inc/stm32f4xx_ll_gpio.h ****   * @{
 208:Drivers/STM32F4xx_HAL_Driver/Inc/stm32f4xx_ll_gpio.h ****   */
 209:Drivers/STM32F4xx_HAL_Driver/Inc/stm32f4xx_ll_gpio.h **** 
 210:Drivers/STM32F4xx_HAL_Driver/Inc/stm32f4xx_ll_gpio.h **** /**
 211:Drivers/STM32F4xx_HAL_Driver/Inc/stm32f4xx_ll_gpio.h ****   * @brief  Write a value in GPIO register
 212:Drivers/STM32F4xx_HAL_Driver/Inc/stm32f4xx_ll_gpio.h ****   * @param  __INSTANCE__ GPIO Instance
 213:Drivers/STM32F4xx_HAL_Driver/Inc/stm32f4xx_ll_gpio.h ****   * @param  __REG__ Register to be written
 214:Drivers/STM32F4xx_HAL_Driver/Inc/stm32f4xx_ll_gpio.h ****   * @param  __VALUE__ Value to be written in the register
 215:Drivers/STM32F4xx_HAL_Driver/Inc/stm32f4xx_ll_gpio.h ****   * @retval None
 216:Drivers/STM32F4xx_HAL_Driver/Inc/stm32f4xx_ll_gpio.h ****   */
 217:Drivers/STM32F4xx_HAL_Driver/Inc/stm32f4xx_ll_gpio.h **** #define LL_GPIO_WriteReg(__INSTANCE__, __REG__, __VALUE__) WRITE_REG(__INSTANCE__->__REG__, (__VALU
 218:Drivers/STM32F4xx_HAL_Driver/Inc/stm32f4xx_ll_gpio.h **** 
 219:Drivers/STM32F4xx_HAL_Driver/Inc/stm32f4xx_ll_gpio.h **** /**
 220:Drivers/STM32F4xx_HAL_Driver/Inc/stm32f4xx_ll_gpio.h ****   * @brief  Read a value in GPIO register
 221:Drivers/STM32F4xx_HAL_Driver/Inc/stm32f4xx_ll_gpio.h ****   * @param  __INSTANCE__ GPIO Instance
 222:Drivers/STM32F4xx_HAL_Driver/Inc/stm32f4xx_ll_gpio.h ****   * @param  __REG__ Register to be read
 223:Drivers/STM32F4xx_HAL_Driver/Inc/stm32f4xx_ll_gpio.h ****   * @retval Register value
 224:Drivers/STM32F4xx_HAL_Driver/Inc/stm32f4xx_ll_gpio.h ****   */
 225:Drivers/STM32F4xx_HAL_Driver/Inc/stm32f4xx_ll_gpio.h **** #define LL_GPIO_ReadReg(__INSTANCE__, __REG__) READ_REG(__INSTANCE__->__REG__)
 226:Drivers/STM32F4xx_HAL_Driver/Inc/stm32f4xx_ll_gpio.h **** /**
 227:Drivers/STM32F4xx_HAL_Driver/Inc/stm32f4xx_ll_gpio.h ****   * @}
 228:Drivers/STM32F4xx_HAL_Driver/Inc/stm32f4xx_ll_gpio.h ****   */
 229:Drivers/STM32F4xx_HAL_Driver/Inc/stm32f4xx_ll_gpio.h **** 
 230:Drivers/STM32F4xx_HAL_Driver/Inc/stm32f4xx_ll_gpio.h **** /**
 231:Drivers/STM32F4xx_HAL_Driver/Inc/stm32f4xx_ll_gpio.h ****   * @}
 232:Drivers/STM32F4xx_HAL_Driver/Inc/stm32f4xx_ll_gpio.h ****   */
 233:Drivers/STM32F4xx_HAL_Driver/Inc/stm32f4xx_ll_gpio.h **** 
 234:Drivers/STM32F4xx_HAL_Driver/Inc/stm32f4xx_ll_gpio.h **** /* Exported functions --------------------------------------------------------*/
 235:Drivers/STM32F4xx_HAL_Driver/Inc/stm32f4xx_ll_gpio.h **** /** @defgroup GPIO_LL_Exported_Functions GPIO Exported Functions
 236:Drivers/STM32F4xx_HAL_Driver/Inc/stm32f4xx_ll_gpio.h ****   * @{
 237:Drivers/STM32F4xx_HAL_Driver/Inc/stm32f4xx_ll_gpio.h ****   */
 238:Drivers/STM32F4xx_HAL_Driver/Inc/stm32f4xx_ll_gpio.h **** 
 239:Drivers/STM32F4xx_HAL_Driver/Inc/stm32f4xx_ll_gpio.h **** /** @defgroup GPIO_LL_EF_Port_Configuration Port Configuration
 240:Drivers/STM32F4xx_HAL_Driver/Inc/stm32f4xx_ll_gpio.h ****   * @{
 241:Drivers/STM32F4xx_HAL_Driver/Inc/stm32f4xx_ll_gpio.h ****   */
 242:Drivers/STM32F4xx_HAL_Driver/Inc/stm32f4xx_ll_gpio.h **** 
 243:Drivers/STM32F4xx_HAL_Driver/Inc/stm32f4xx_ll_gpio.h **** /**
 244:Drivers/STM32F4xx_HAL_Driver/Inc/stm32f4xx_ll_gpio.h ****   * @brief  Configure gpio mode for a dedicated pin on dedicated port.
 245:Drivers/STM32F4xx_HAL_Driver/Inc/stm32f4xx_ll_gpio.h ****   * @note   I/O mode can be Input mode, General purpose output, Alternate function mode or Analog.
 246:Drivers/STM32F4xx_HAL_Driver/Inc/stm32f4xx_ll_gpio.h ****   * @note   Warning: only one pin can be passed as parameter.
 247:Drivers/STM32F4xx_HAL_Driver/Inc/stm32f4xx_ll_gpio.h ****   * @rmtoll MODER        MODEy         LL_GPIO_SetPinMode
 248:Drivers/STM32F4xx_HAL_Driver/Inc/stm32f4xx_ll_gpio.h ****   * @param  GPIOx GPIO Port
 249:Drivers/STM32F4xx_HAL_Driver/Inc/stm32f4xx_ll_gpio.h ****   * @param  Pin This parameter can be one of the following values:
 250:Drivers/STM32F4xx_HAL_Driver/Inc/stm32f4xx_ll_gpio.h ****   *         @arg @ref LL_GPIO_PIN_0
 251:Drivers/STM32F4xx_HAL_Driver/Inc/stm32f4xx_ll_gpio.h ****   *         @arg @ref LL_GPIO_PIN_1
 252:Drivers/STM32F4xx_HAL_Driver/Inc/stm32f4xx_ll_gpio.h ****   *         @arg @ref LL_GPIO_PIN_2
 253:Drivers/STM32F4xx_HAL_Driver/Inc/stm32f4xx_ll_gpio.h ****   *         @arg @ref LL_GPIO_PIN_3
 254:Drivers/STM32F4xx_HAL_Driver/Inc/stm32f4xx_ll_gpio.h ****   *         @arg @ref LL_GPIO_PIN_4
 255:Drivers/STM32F4xx_HAL_Driver/Inc/stm32f4xx_ll_gpio.h ****   *         @arg @ref LL_GPIO_PIN_5
 256:Drivers/STM32F4xx_HAL_Driver/Inc/stm32f4xx_ll_gpio.h ****   *         @arg @ref LL_GPIO_PIN_6
 257:Drivers/STM32F4xx_HAL_Driver/Inc/stm32f4xx_ll_gpio.h ****   *         @arg @ref LL_GPIO_PIN_7
 258:Drivers/STM32F4xx_HAL_Driver/Inc/stm32f4xx_ll_gpio.h ****   *         @arg @ref LL_GPIO_PIN_8
ARM GAS  C:\Users\HP-Admin\AppData\Local\Temp\ccssVuiz.s 			page 17


 259:Drivers/STM32F4xx_HAL_Driver/Inc/stm32f4xx_ll_gpio.h ****   *         @arg @ref LL_GPIO_PIN_9
 260:Drivers/STM32F4xx_HAL_Driver/Inc/stm32f4xx_ll_gpio.h ****   *         @arg @ref LL_GPIO_PIN_10
 261:Drivers/STM32F4xx_HAL_Driver/Inc/stm32f4xx_ll_gpio.h ****   *         @arg @ref LL_GPIO_PIN_11
 262:Drivers/STM32F4xx_HAL_Driver/Inc/stm32f4xx_ll_gpio.h ****   *         @arg @ref LL_GPIO_PIN_12
 263:Drivers/STM32F4xx_HAL_Driver/Inc/stm32f4xx_ll_gpio.h ****   *         @arg @ref LL_GPIO_PIN_13
 264:Drivers/STM32F4xx_HAL_Driver/Inc/stm32f4xx_ll_gpio.h ****   *         @arg @ref LL_GPIO_PIN_14
 265:Drivers/STM32F4xx_HAL_Driver/Inc/stm32f4xx_ll_gpio.h ****   *         @arg @ref LL_GPIO_PIN_15
 266:Drivers/STM32F4xx_HAL_Driver/Inc/stm32f4xx_ll_gpio.h ****   * @param  Mode This parameter can be one of the following values:
 267:Drivers/STM32F4xx_HAL_Driver/Inc/stm32f4xx_ll_gpio.h ****   *         @arg @ref LL_GPIO_MODE_INPUT
 268:Drivers/STM32F4xx_HAL_Driver/Inc/stm32f4xx_ll_gpio.h ****   *         @arg @ref LL_GPIO_MODE_OUTPUT
 269:Drivers/STM32F4xx_HAL_Driver/Inc/stm32f4xx_ll_gpio.h ****   *         @arg @ref LL_GPIO_MODE_ALTERNATE
 270:Drivers/STM32F4xx_HAL_Driver/Inc/stm32f4xx_ll_gpio.h ****   *         @arg @ref LL_GPIO_MODE_ANALOG
 271:Drivers/STM32F4xx_HAL_Driver/Inc/stm32f4xx_ll_gpio.h ****   * @retval None
 272:Drivers/STM32F4xx_HAL_Driver/Inc/stm32f4xx_ll_gpio.h ****   */
 273:Drivers/STM32F4xx_HAL_Driver/Inc/stm32f4xx_ll_gpio.h **** __STATIC_INLINE void LL_GPIO_SetPinMode(GPIO_TypeDef *GPIOx, uint32_t Pin, uint32_t Mode)
 156              		.loc 3 273 22 view .LVU23
 157              	.LBB772:
 274:Drivers/STM32F4xx_HAL_Driver/Inc/stm32f4xx_ll_gpio.h **** {
 275:Drivers/STM32F4xx_HAL_Driver/Inc/stm32f4xx_ll_gpio.h ****   MODIFY_REG(GPIOx->MODER, (GPIO_MODER_MODER0 << (POSITION_VAL(Pin) * 2U)), (Mode << (POSITION_VAL(
 158              		.loc 3 275 3 view .LVU24
 159 001a BC4A     		ldr	r2, .L76+8
 160 001c 1168     		ldr	r1, [r2]
 161              	.LVL9:
 162              	.LBB773:
 163              	.LBI773:
 164              		.file 4 "Drivers/CMSIS/Include/cmsis_gcc.h"
   1:Drivers/CMSIS/Include/cmsis_gcc.h **** /**************************************************************************//**
   2:Drivers/CMSIS/Include/cmsis_gcc.h ****  * @file     cmsis_gcc.h
   3:Drivers/CMSIS/Include/cmsis_gcc.h ****  * @brief    CMSIS compiler GCC header file
   4:Drivers/CMSIS/Include/cmsis_gcc.h ****  * @version  V5.4.1
   5:Drivers/CMSIS/Include/cmsis_gcc.h ****  * @date     27. May 2021
   6:Drivers/CMSIS/Include/cmsis_gcc.h ****  ******************************************************************************/
   7:Drivers/CMSIS/Include/cmsis_gcc.h **** /*
   8:Drivers/CMSIS/Include/cmsis_gcc.h ****  * Copyright (c) 2009-2021 Arm Limited. All rights reserved.
   9:Drivers/CMSIS/Include/cmsis_gcc.h ****  *
  10:Drivers/CMSIS/Include/cmsis_gcc.h ****  * SPDX-License-Identifier: Apache-2.0
  11:Drivers/CMSIS/Include/cmsis_gcc.h ****  *
  12:Drivers/CMSIS/Include/cmsis_gcc.h ****  * Licensed under the Apache License, Version 2.0 (the License); you may
  13:Drivers/CMSIS/Include/cmsis_gcc.h ****  * not use this file except in compliance with the License.
  14:Drivers/CMSIS/Include/cmsis_gcc.h ****  * You may obtain a copy of the License at
  15:Drivers/CMSIS/Include/cmsis_gcc.h ****  *
  16:Drivers/CMSIS/Include/cmsis_gcc.h ****  * www.apache.org/licenses/LICENSE-2.0
  17:Drivers/CMSIS/Include/cmsis_gcc.h ****  *
  18:Drivers/CMSIS/Include/cmsis_gcc.h ****  * Unless required by applicable law or agreed to in writing, software
  19:Drivers/CMSIS/Include/cmsis_gcc.h ****  * distributed under the License is distributed on an AS IS BASIS, WITHOUT
  20:Drivers/CMSIS/Include/cmsis_gcc.h ****  * WARRANTIES OR CONDITIONS OF ANY KIND, either express or implied.
  21:Drivers/CMSIS/Include/cmsis_gcc.h ****  * See the License for the specific language governing permissions and
  22:Drivers/CMSIS/Include/cmsis_gcc.h ****  * limitations under the License.
  23:Drivers/CMSIS/Include/cmsis_gcc.h ****  */
  24:Drivers/CMSIS/Include/cmsis_gcc.h **** 
  25:Drivers/CMSIS/Include/cmsis_gcc.h **** #ifndef __CMSIS_GCC_H
  26:Drivers/CMSIS/Include/cmsis_gcc.h **** #define __CMSIS_GCC_H
  27:Drivers/CMSIS/Include/cmsis_gcc.h **** 
  28:Drivers/CMSIS/Include/cmsis_gcc.h **** /* ignore some GCC warnings */
  29:Drivers/CMSIS/Include/cmsis_gcc.h **** #pragma GCC diagnostic push
  30:Drivers/CMSIS/Include/cmsis_gcc.h **** #pragma GCC diagnostic ignored "-Wsign-conversion"
  31:Drivers/CMSIS/Include/cmsis_gcc.h **** #pragma GCC diagnostic ignored "-Wconversion"
ARM GAS  C:\Users\HP-Admin\AppData\Local\Temp\ccssVuiz.s 			page 18


  32:Drivers/CMSIS/Include/cmsis_gcc.h **** #pragma GCC diagnostic ignored "-Wunused-parameter"
  33:Drivers/CMSIS/Include/cmsis_gcc.h **** 
  34:Drivers/CMSIS/Include/cmsis_gcc.h **** /* Fallback for __has_builtin */
  35:Drivers/CMSIS/Include/cmsis_gcc.h **** #ifndef __has_builtin
  36:Drivers/CMSIS/Include/cmsis_gcc.h ****   #define __has_builtin(x) (0)
  37:Drivers/CMSIS/Include/cmsis_gcc.h **** #endif
  38:Drivers/CMSIS/Include/cmsis_gcc.h **** 
  39:Drivers/CMSIS/Include/cmsis_gcc.h **** /* CMSIS compiler specific defines */
  40:Drivers/CMSIS/Include/cmsis_gcc.h **** #ifndef   __ASM
  41:Drivers/CMSIS/Include/cmsis_gcc.h ****   #define __ASM                                  __asm
  42:Drivers/CMSIS/Include/cmsis_gcc.h **** #endif
  43:Drivers/CMSIS/Include/cmsis_gcc.h **** #ifndef   __INLINE
  44:Drivers/CMSIS/Include/cmsis_gcc.h ****   #define __INLINE                               inline
  45:Drivers/CMSIS/Include/cmsis_gcc.h **** #endif
  46:Drivers/CMSIS/Include/cmsis_gcc.h **** #ifndef   __STATIC_INLINE
  47:Drivers/CMSIS/Include/cmsis_gcc.h ****   #define __STATIC_INLINE                        static inline
  48:Drivers/CMSIS/Include/cmsis_gcc.h **** #endif
  49:Drivers/CMSIS/Include/cmsis_gcc.h **** #ifndef   __STATIC_FORCEINLINE
  50:Drivers/CMSIS/Include/cmsis_gcc.h ****   #define __STATIC_FORCEINLINE                   __attribute__((always_inline)) static inline
  51:Drivers/CMSIS/Include/cmsis_gcc.h **** #endif
  52:Drivers/CMSIS/Include/cmsis_gcc.h **** #ifndef   __NO_RETURN
  53:Drivers/CMSIS/Include/cmsis_gcc.h ****   #define __NO_RETURN                            __attribute__((__noreturn__))
  54:Drivers/CMSIS/Include/cmsis_gcc.h **** #endif
  55:Drivers/CMSIS/Include/cmsis_gcc.h **** #ifndef   __USED
  56:Drivers/CMSIS/Include/cmsis_gcc.h ****   #define __USED                                 __attribute__((used))
  57:Drivers/CMSIS/Include/cmsis_gcc.h **** #endif
  58:Drivers/CMSIS/Include/cmsis_gcc.h **** #ifndef   __WEAK
  59:Drivers/CMSIS/Include/cmsis_gcc.h ****   #define __WEAK                                 __attribute__((weak))
  60:Drivers/CMSIS/Include/cmsis_gcc.h **** #endif
  61:Drivers/CMSIS/Include/cmsis_gcc.h **** #ifndef   __PACKED
  62:Drivers/CMSIS/Include/cmsis_gcc.h ****   #define __PACKED                               __attribute__((packed, aligned(1)))
  63:Drivers/CMSIS/Include/cmsis_gcc.h **** #endif
  64:Drivers/CMSIS/Include/cmsis_gcc.h **** #ifndef   __PACKED_STRUCT
  65:Drivers/CMSIS/Include/cmsis_gcc.h ****   #define __PACKED_STRUCT                        struct __attribute__((packed, aligned(1)))
  66:Drivers/CMSIS/Include/cmsis_gcc.h **** #endif
  67:Drivers/CMSIS/Include/cmsis_gcc.h **** #ifndef   __PACKED_UNION
  68:Drivers/CMSIS/Include/cmsis_gcc.h ****   #define __PACKED_UNION                         union __attribute__((packed, aligned(1)))
  69:Drivers/CMSIS/Include/cmsis_gcc.h **** #endif
  70:Drivers/CMSIS/Include/cmsis_gcc.h **** #ifndef   __UNALIGNED_UINT32        /* deprecated */
  71:Drivers/CMSIS/Include/cmsis_gcc.h ****   #pragma GCC diagnostic push
  72:Drivers/CMSIS/Include/cmsis_gcc.h ****   #pragma GCC diagnostic ignored "-Wpacked"
  73:Drivers/CMSIS/Include/cmsis_gcc.h ****   #pragma GCC diagnostic ignored "-Wattributes"
  74:Drivers/CMSIS/Include/cmsis_gcc.h ****   struct __attribute__((packed)) T_UINT32 { uint32_t v; };
  75:Drivers/CMSIS/Include/cmsis_gcc.h ****   #pragma GCC diagnostic pop
  76:Drivers/CMSIS/Include/cmsis_gcc.h ****   #define __UNALIGNED_UINT32(x)                  (((struct T_UINT32 *)(x))->v)
  77:Drivers/CMSIS/Include/cmsis_gcc.h **** #endif
  78:Drivers/CMSIS/Include/cmsis_gcc.h **** #ifndef   __UNALIGNED_UINT16_WRITE
  79:Drivers/CMSIS/Include/cmsis_gcc.h ****   #pragma GCC diagnostic push
  80:Drivers/CMSIS/Include/cmsis_gcc.h ****   #pragma GCC diagnostic ignored "-Wpacked"
  81:Drivers/CMSIS/Include/cmsis_gcc.h ****   #pragma GCC diagnostic ignored "-Wattributes"
  82:Drivers/CMSIS/Include/cmsis_gcc.h ****   __PACKED_STRUCT T_UINT16_WRITE { uint16_t v; };
  83:Drivers/CMSIS/Include/cmsis_gcc.h ****   #pragma GCC diagnostic pop
  84:Drivers/CMSIS/Include/cmsis_gcc.h ****   #define __UNALIGNED_UINT16_WRITE(addr, val)    (void)((((struct T_UINT16_WRITE *)(void *)(addr))-
  85:Drivers/CMSIS/Include/cmsis_gcc.h **** #endif
  86:Drivers/CMSIS/Include/cmsis_gcc.h **** #ifndef   __UNALIGNED_UINT16_READ
  87:Drivers/CMSIS/Include/cmsis_gcc.h ****   #pragma GCC diagnostic push
  88:Drivers/CMSIS/Include/cmsis_gcc.h ****   #pragma GCC diagnostic ignored "-Wpacked"
ARM GAS  C:\Users\HP-Admin\AppData\Local\Temp\ccssVuiz.s 			page 19


  89:Drivers/CMSIS/Include/cmsis_gcc.h ****   #pragma GCC diagnostic ignored "-Wattributes"
  90:Drivers/CMSIS/Include/cmsis_gcc.h ****   __PACKED_STRUCT T_UINT16_READ { uint16_t v; };
  91:Drivers/CMSIS/Include/cmsis_gcc.h ****   #pragma GCC diagnostic pop
  92:Drivers/CMSIS/Include/cmsis_gcc.h ****   #define __UNALIGNED_UINT16_READ(addr)          (((const struct T_UINT16_READ *)(const void *)(add
  93:Drivers/CMSIS/Include/cmsis_gcc.h **** #endif
  94:Drivers/CMSIS/Include/cmsis_gcc.h **** #ifndef   __UNALIGNED_UINT32_WRITE
  95:Drivers/CMSIS/Include/cmsis_gcc.h ****   #pragma GCC diagnostic push
  96:Drivers/CMSIS/Include/cmsis_gcc.h ****   #pragma GCC diagnostic ignored "-Wpacked"
  97:Drivers/CMSIS/Include/cmsis_gcc.h ****   #pragma GCC diagnostic ignored "-Wattributes"
  98:Drivers/CMSIS/Include/cmsis_gcc.h ****   __PACKED_STRUCT T_UINT32_WRITE { uint32_t v; };
  99:Drivers/CMSIS/Include/cmsis_gcc.h ****   #pragma GCC diagnostic pop
 100:Drivers/CMSIS/Include/cmsis_gcc.h ****   #define __UNALIGNED_UINT32_WRITE(addr, val)    (void)((((struct T_UINT32_WRITE *)(void *)(addr))-
 101:Drivers/CMSIS/Include/cmsis_gcc.h **** #endif
 102:Drivers/CMSIS/Include/cmsis_gcc.h **** #ifndef   __UNALIGNED_UINT32_READ
 103:Drivers/CMSIS/Include/cmsis_gcc.h ****   #pragma GCC diagnostic push
 104:Drivers/CMSIS/Include/cmsis_gcc.h ****   #pragma GCC diagnostic ignored "-Wpacked"
 105:Drivers/CMSIS/Include/cmsis_gcc.h ****   #pragma GCC diagnostic ignored "-Wattributes"
 106:Drivers/CMSIS/Include/cmsis_gcc.h ****   __PACKED_STRUCT T_UINT32_READ { uint32_t v; };
 107:Drivers/CMSIS/Include/cmsis_gcc.h ****   #pragma GCC diagnostic pop
 108:Drivers/CMSIS/Include/cmsis_gcc.h ****   #define __UNALIGNED_UINT32_READ(addr)          (((const struct T_UINT32_READ *)(const void *)(add
 109:Drivers/CMSIS/Include/cmsis_gcc.h **** #endif
 110:Drivers/CMSIS/Include/cmsis_gcc.h **** #ifndef   __ALIGNED
 111:Drivers/CMSIS/Include/cmsis_gcc.h ****   #define __ALIGNED(x)                           __attribute__((aligned(x)))
 112:Drivers/CMSIS/Include/cmsis_gcc.h **** #endif
 113:Drivers/CMSIS/Include/cmsis_gcc.h **** #ifndef   __RESTRICT
 114:Drivers/CMSIS/Include/cmsis_gcc.h ****   #define __RESTRICT                             __restrict
 115:Drivers/CMSIS/Include/cmsis_gcc.h **** #endif
 116:Drivers/CMSIS/Include/cmsis_gcc.h **** #ifndef   __COMPILER_BARRIER
 117:Drivers/CMSIS/Include/cmsis_gcc.h ****   #define __COMPILER_BARRIER()                   __ASM volatile("":::"memory")
 118:Drivers/CMSIS/Include/cmsis_gcc.h **** #endif
 119:Drivers/CMSIS/Include/cmsis_gcc.h **** 
 120:Drivers/CMSIS/Include/cmsis_gcc.h **** /* #########################  Startup and Lowlevel Init  ######################## */
 121:Drivers/CMSIS/Include/cmsis_gcc.h **** 
 122:Drivers/CMSIS/Include/cmsis_gcc.h **** #ifndef __PROGRAM_START
 123:Drivers/CMSIS/Include/cmsis_gcc.h **** 
 124:Drivers/CMSIS/Include/cmsis_gcc.h **** /**
 125:Drivers/CMSIS/Include/cmsis_gcc.h ****   \brief   Initializes data and bss sections
 126:Drivers/CMSIS/Include/cmsis_gcc.h ****   \details This default implementations initialized all data and additional bss
 127:Drivers/CMSIS/Include/cmsis_gcc.h ****            sections relying on .copy.table and .zero.table specified properly
 128:Drivers/CMSIS/Include/cmsis_gcc.h ****            in the used linker script.
 129:Drivers/CMSIS/Include/cmsis_gcc.h **** 
 130:Drivers/CMSIS/Include/cmsis_gcc.h ****  */
 131:Drivers/CMSIS/Include/cmsis_gcc.h **** __STATIC_FORCEINLINE __NO_RETURN void __cmsis_start(void)
 132:Drivers/CMSIS/Include/cmsis_gcc.h **** {
 133:Drivers/CMSIS/Include/cmsis_gcc.h ****   extern void _start(void) __NO_RETURN;
 134:Drivers/CMSIS/Include/cmsis_gcc.h **** 
 135:Drivers/CMSIS/Include/cmsis_gcc.h ****   typedef struct {
 136:Drivers/CMSIS/Include/cmsis_gcc.h ****     uint32_t const* src;
 137:Drivers/CMSIS/Include/cmsis_gcc.h ****     uint32_t* dest;
 138:Drivers/CMSIS/Include/cmsis_gcc.h ****     uint32_t  wlen;
 139:Drivers/CMSIS/Include/cmsis_gcc.h ****   } __copy_table_t;
 140:Drivers/CMSIS/Include/cmsis_gcc.h **** 
 141:Drivers/CMSIS/Include/cmsis_gcc.h ****   typedef struct {
 142:Drivers/CMSIS/Include/cmsis_gcc.h ****     uint32_t* dest;
 143:Drivers/CMSIS/Include/cmsis_gcc.h ****     uint32_t  wlen;
 144:Drivers/CMSIS/Include/cmsis_gcc.h ****   } __zero_table_t;
 145:Drivers/CMSIS/Include/cmsis_gcc.h **** 
ARM GAS  C:\Users\HP-Admin\AppData\Local\Temp\ccssVuiz.s 			page 20


 146:Drivers/CMSIS/Include/cmsis_gcc.h ****   extern const __copy_table_t __copy_table_start__;
 147:Drivers/CMSIS/Include/cmsis_gcc.h ****   extern const __copy_table_t __copy_table_end__;
 148:Drivers/CMSIS/Include/cmsis_gcc.h ****   extern const __zero_table_t __zero_table_start__;
 149:Drivers/CMSIS/Include/cmsis_gcc.h ****   extern const __zero_table_t __zero_table_end__;
 150:Drivers/CMSIS/Include/cmsis_gcc.h **** 
 151:Drivers/CMSIS/Include/cmsis_gcc.h ****   for (__copy_table_t const* pTable = &__copy_table_start__; pTable < &__copy_table_end__; ++pTable
 152:Drivers/CMSIS/Include/cmsis_gcc.h ****     for(uint32_t i=0u; i<pTable->wlen; ++i) {
 153:Drivers/CMSIS/Include/cmsis_gcc.h ****       pTable->dest[i] = pTable->src[i];
 154:Drivers/CMSIS/Include/cmsis_gcc.h ****     }
 155:Drivers/CMSIS/Include/cmsis_gcc.h ****   }
 156:Drivers/CMSIS/Include/cmsis_gcc.h **** 
 157:Drivers/CMSIS/Include/cmsis_gcc.h ****   for (__zero_table_t const* pTable = &__zero_table_start__; pTable < &__zero_table_end__; ++pTable
 158:Drivers/CMSIS/Include/cmsis_gcc.h ****     for(uint32_t i=0u; i<pTable->wlen; ++i) {
 159:Drivers/CMSIS/Include/cmsis_gcc.h ****       pTable->dest[i] = 0u;
 160:Drivers/CMSIS/Include/cmsis_gcc.h ****     }
 161:Drivers/CMSIS/Include/cmsis_gcc.h ****   }
 162:Drivers/CMSIS/Include/cmsis_gcc.h **** 
 163:Drivers/CMSIS/Include/cmsis_gcc.h ****   _start();
 164:Drivers/CMSIS/Include/cmsis_gcc.h **** }
 165:Drivers/CMSIS/Include/cmsis_gcc.h **** 
 166:Drivers/CMSIS/Include/cmsis_gcc.h **** #define __PROGRAM_START           __cmsis_start
 167:Drivers/CMSIS/Include/cmsis_gcc.h **** #endif
 168:Drivers/CMSIS/Include/cmsis_gcc.h **** 
 169:Drivers/CMSIS/Include/cmsis_gcc.h **** #ifndef __INITIAL_SP
 170:Drivers/CMSIS/Include/cmsis_gcc.h **** #define __INITIAL_SP              __StackTop
 171:Drivers/CMSIS/Include/cmsis_gcc.h **** #endif
 172:Drivers/CMSIS/Include/cmsis_gcc.h **** 
 173:Drivers/CMSIS/Include/cmsis_gcc.h **** #ifndef __STACK_LIMIT
 174:Drivers/CMSIS/Include/cmsis_gcc.h **** #define __STACK_LIMIT             __StackLimit
 175:Drivers/CMSIS/Include/cmsis_gcc.h **** #endif
 176:Drivers/CMSIS/Include/cmsis_gcc.h **** 
 177:Drivers/CMSIS/Include/cmsis_gcc.h **** #ifndef __VECTOR_TABLE
 178:Drivers/CMSIS/Include/cmsis_gcc.h **** #define __VECTOR_TABLE            __Vectors
 179:Drivers/CMSIS/Include/cmsis_gcc.h **** #endif
 180:Drivers/CMSIS/Include/cmsis_gcc.h **** 
 181:Drivers/CMSIS/Include/cmsis_gcc.h **** #ifndef __VECTOR_TABLE_ATTRIBUTE
 182:Drivers/CMSIS/Include/cmsis_gcc.h **** #define __VECTOR_TABLE_ATTRIBUTE  __attribute__((used, section(".vectors")))
 183:Drivers/CMSIS/Include/cmsis_gcc.h **** #endif
 184:Drivers/CMSIS/Include/cmsis_gcc.h **** 
 185:Drivers/CMSIS/Include/cmsis_gcc.h **** #if defined (__ARM_FEATURE_CMSE) && (__ARM_FEATURE_CMSE == 3U)
 186:Drivers/CMSIS/Include/cmsis_gcc.h **** #ifndef __STACK_SEAL
 187:Drivers/CMSIS/Include/cmsis_gcc.h **** #define __STACK_SEAL              __StackSeal
 188:Drivers/CMSIS/Include/cmsis_gcc.h **** #endif
 189:Drivers/CMSIS/Include/cmsis_gcc.h **** 
 190:Drivers/CMSIS/Include/cmsis_gcc.h **** #ifndef __TZ_STACK_SEAL_SIZE
 191:Drivers/CMSIS/Include/cmsis_gcc.h **** #define __TZ_STACK_SEAL_SIZE      8U
 192:Drivers/CMSIS/Include/cmsis_gcc.h **** #endif
 193:Drivers/CMSIS/Include/cmsis_gcc.h **** 
 194:Drivers/CMSIS/Include/cmsis_gcc.h **** #ifndef __TZ_STACK_SEAL_VALUE
 195:Drivers/CMSIS/Include/cmsis_gcc.h **** #define __TZ_STACK_SEAL_VALUE     0xFEF5EDA5FEF5EDA5ULL
 196:Drivers/CMSIS/Include/cmsis_gcc.h **** #endif
 197:Drivers/CMSIS/Include/cmsis_gcc.h **** 
 198:Drivers/CMSIS/Include/cmsis_gcc.h **** 
 199:Drivers/CMSIS/Include/cmsis_gcc.h **** __STATIC_FORCEINLINE void __TZ_set_STACKSEAL_S (uint32_t* stackTop) {
 200:Drivers/CMSIS/Include/cmsis_gcc.h ****   *((uint64_t *)stackTop) = __TZ_STACK_SEAL_VALUE;
 201:Drivers/CMSIS/Include/cmsis_gcc.h **** }
 202:Drivers/CMSIS/Include/cmsis_gcc.h **** #endif
ARM GAS  C:\Users\HP-Admin\AppData\Local\Temp\ccssVuiz.s 			page 21


 203:Drivers/CMSIS/Include/cmsis_gcc.h **** 
 204:Drivers/CMSIS/Include/cmsis_gcc.h **** 
 205:Drivers/CMSIS/Include/cmsis_gcc.h **** /* ##########################  Core Instruction Access  ######################### */
 206:Drivers/CMSIS/Include/cmsis_gcc.h **** /** \defgroup CMSIS_Core_InstructionInterface CMSIS Core Instruction Interface
 207:Drivers/CMSIS/Include/cmsis_gcc.h ****   Access to dedicated instructions
 208:Drivers/CMSIS/Include/cmsis_gcc.h ****   @{
 209:Drivers/CMSIS/Include/cmsis_gcc.h **** */
 210:Drivers/CMSIS/Include/cmsis_gcc.h **** 
 211:Drivers/CMSIS/Include/cmsis_gcc.h **** /* Define macros for porting to both thumb1 and thumb2.
 212:Drivers/CMSIS/Include/cmsis_gcc.h ****  * For thumb1, use low register (r0-r7), specified by constraint "l"
 213:Drivers/CMSIS/Include/cmsis_gcc.h ****  * Otherwise, use general registers, specified by constraint "r" */
 214:Drivers/CMSIS/Include/cmsis_gcc.h **** #if defined (__thumb__) && !defined (__thumb2__)
 215:Drivers/CMSIS/Include/cmsis_gcc.h **** #define __CMSIS_GCC_OUT_REG(r) "=l" (r)
 216:Drivers/CMSIS/Include/cmsis_gcc.h **** #define __CMSIS_GCC_RW_REG(r) "+l" (r)
 217:Drivers/CMSIS/Include/cmsis_gcc.h **** #define __CMSIS_GCC_USE_REG(r) "l" (r)
 218:Drivers/CMSIS/Include/cmsis_gcc.h **** #else
 219:Drivers/CMSIS/Include/cmsis_gcc.h **** #define __CMSIS_GCC_OUT_REG(r) "=r" (r)
 220:Drivers/CMSIS/Include/cmsis_gcc.h **** #define __CMSIS_GCC_RW_REG(r) "+r" (r)
 221:Drivers/CMSIS/Include/cmsis_gcc.h **** #define __CMSIS_GCC_USE_REG(r) "r" (r)
 222:Drivers/CMSIS/Include/cmsis_gcc.h **** #endif
 223:Drivers/CMSIS/Include/cmsis_gcc.h **** 
 224:Drivers/CMSIS/Include/cmsis_gcc.h **** /**
 225:Drivers/CMSIS/Include/cmsis_gcc.h ****   \brief   No Operation
 226:Drivers/CMSIS/Include/cmsis_gcc.h ****   \details No Operation does nothing. This instruction can be used for code alignment purposes.
 227:Drivers/CMSIS/Include/cmsis_gcc.h ****  */
 228:Drivers/CMSIS/Include/cmsis_gcc.h **** #define __NOP()                             __ASM volatile ("nop")
 229:Drivers/CMSIS/Include/cmsis_gcc.h **** 
 230:Drivers/CMSIS/Include/cmsis_gcc.h **** /**
 231:Drivers/CMSIS/Include/cmsis_gcc.h ****   \brief   Wait For Interrupt
 232:Drivers/CMSIS/Include/cmsis_gcc.h ****   \details Wait For Interrupt is a hint instruction that suspends execution until one of a number o
 233:Drivers/CMSIS/Include/cmsis_gcc.h ****  */
 234:Drivers/CMSIS/Include/cmsis_gcc.h **** #define __WFI()                             __ASM volatile ("wfi":::"memory")
 235:Drivers/CMSIS/Include/cmsis_gcc.h **** 
 236:Drivers/CMSIS/Include/cmsis_gcc.h **** 
 237:Drivers/CMSIS/Include/cmsis_gcc.h **** /**
 238:Drivers/CMSIS/Include/cmsis_gcc.h ****   \brief   Wait For Event
 239:Drivers/CMSIS/Include/cmsis_gcc.h ****   \details Wait For Event is a hint instruction that permits the processor to enter
 240:Drivers/CMSIS/Include/cmsis_gcc.h ****            a low-power state until one of a number of events occurs.
 241:Drivers/CMSIS/Include/cmsis_gcc.h ****  */
 242:Drivers/CMSIS/Include/cmsis_gcc.h **** #define __WFE()                             __ASM volatile ("wfe":::"memory")
 243:Drivers/CMSIS/Include/cmsis_gcc.h **** 
 244:Drivers/CMSIS/Include/cmsis_gcc.h **** 
 245:Drivers/CMSIS/Include/cmsis_gcc.h **** /**
 246:Drivers/CMSIS/Include/cmsis_gcc.h ****   \brief   Send Event
 247:Drivers/CMSIS/Include/cmsis_gcc.h ****   \details Send Event is a hint instruction. It causes an event to be signaled to the CPU.
 248:Drivers/CMSIS/Include/cmsis_gcc.h ****  */
 249:Drivers/CMSIS/Include/cmsis_gcc.h **** #define __SEV()                             __ASM volatile ("sev")
 250:Drivers/CMSIS/Include/cmsis_gcc.h **** 
 251:Drivers/CMSIS/Include/cmsis_gcc.h **** 
 252:Drivers/CMSIS/Include/cmsis_gcc.h **** /**
 253:Drivers/CMSIS/Include/cmsis_gcc.h ****   \brief   Instruction Synchronization Barrier
 254:Drivers/CMSIS/Include/cmsis_gcc.h ****   \details Instruction Synchronization Barrier flushes the pipeline in the processor,
 255:Drivers/CMSIS/Include/cmsis_gcc.h ****            so that all instructions following the ISB are fetched from cache or memory,
 256:Drivers/CMSIS/Include/cmsis_gcc.h ****            after the instruction has been completed.
 257:Drivers/CMSIS/Include/cmsis_gcc.h ****  */
 258:Drivers/CMSIS/Include/cmsis_gcc.h **** __STATIC_FORCEINLINE void __ISB(void)
 259:Drivers/CMSIS/Include/cmsis_gcc.h **** {
ARM GAS  C:\Users\HP-Admin\AppData\Local\Temp\ccssVuiz.s 			page 22


 260:Drivers/CMSIS/Include/cmsis_gcc.h ****   __ASM volatile ("isb 0xF":::"memory");
 261:Drivers/CMSIS/Include/cmsis_gcc.h **** }
 262:Drivers/CMSIS/Include/cmsis_gcc.h **** 
 263:Drivers/CMSIS/Include/cmsis_gcc.h **** 
 264:Drivers/CMSIS/Include/cmsis_gcc.h **** /**
 265:Drivers/CMSIS/Include/cmsis_gcc.h ****   \brief   Data Synchronization Barrier
 266:Drivers/CMSIS/Include/cmsis_gcc.h ****   \details Acts as a special kind of Data Memory Barrier.
 267:Drivers/CMSIS/Include/cmsis_gcc.h ****            It completes when all explicit memory accesses before this instruction complete.
 268:Drivers/CMSIS/Include/cmsis_gcc.h ****  */
 269:Drivers/CMSIS/Include/cmsis_gcc.h **** __STATIC_FORCEINLINE void __DSB(void)
 270:Drivers/CMSIS/Include/cmsis_gcc.h **** {
 271:Drivers/CMSIS/Include/cmsis_gcc.h ****   __ASM volatile ("dsb 0xF":::"memory");
 272:Drivers/CMSIS/Include/cmsis_gcc.h **** }
 273:Drivers/CMSIS/Include/cmsis_gcc.h **** 
 274:Drivers/CMSIS/Include/cmsis_gcc.h **** 
 275:Drivers/CMSIS/Include/cmsis_gcc.h **** /**
 276:Drivers/CMSIS/Include/cmsis_gcc.h ****   \brief   Data Memory Barrier
 277:Drivers/CMSIS/Include/cmsis_gcc.h ****   \details Ensures the apparent order of the explicit memory operations before
 278:Drivers/CMSIS/Include/cmsis_gcc.h ****            and after the instruction, without ensuring their completion.
 279:Drivers/CMSIS/Include/cmsis_gcc.h ****  */
 280:Drivers/CMSIS/Include/cmsis_gcc.h **** __STATIC_FORCEINLINE void __DMB(void)
 281:Drivers/CMSIS/Include/cmsis_gcc.h **** {
 282:Drivers/CMSIS/Include/cmsis_gcc.h ****   __ASM volatile ("dmb 0xF":::"memory");
 283:Drivers/CMSIS/Include/cmsis_gcc.h **** }
 284:Drivers/CMSIS/Include/cmsis_gcc.h **** 
 285:Drivers/CMSIS/Include/cmsis_gcc.h **** 
 286:Drivers/CMSIS/Include/cmsis_gcc.h **** /**
 287:Drivers/CMSIS/Include/cmsis_gcc.h ****   \brief   Reverse byte order (32 bit)
 288:Drivers/CMSIS/Include/cmsis_gcc.h ****   \details Reverses the byte order in unsigned integer value. For example, 0x12345678 becomes 0x785
 289:Drivers/CMSIS/Include/cmsis_gcc.h ****   \param [in]    value  Value to reverse
 290:Drivers/CMSIS/Include/cmsis_gcc.h ****   \return               Reversed value
 291:Drivers/CMSIS/Include/cmsis_gcc.h ****  */
 292:Drivers/CMSIS/Include/cmsis_gcc.h **** __STATIC_FORCEINLINE uint32_t __REV(uint32_t value)
 293:Drivers/CMSIS/Include/cmsis_gcc.h **** {
 294:Drivers/CMSIS/Include/cmsis_gcc.h **** #if (__GNUC__ > 4) || (__GNUC__ == 4 && __GNUC_MINOR__ >= 5)
 295:Drivers/CMSIS/Include/cmsis_gcc.h ****   return __builtin_bswap32(value);
 296:Drivers/CMSIS/Include/cmsis_gcc.h **** #else
 297:Drivers/CMSIS/Include/cmsis_gcc.h ****   uint32_t result;
 298:Drivers/CMSIS/Include/cmsis_gcc.h **** 
 299:Drivers/CMSIS/Include/cmsis_gcc.h ****   __ASM ("rev %0, %1" : __CMSIS_GCC_OUT_REG (result) : __CMSIS_GCC_USE_REG (value) );
 300:Drivers/CMSIS/Include/cmsis_gcc.h ****   return result;
 301:Drivers/CMSIS/Include/cmsis_gcc.h **** #endif
 302:Drivers/CMSIS/Include/cmsis_gcc.h **** }
 303:Drivers/CMSIS/Include/cmsis_gcc.h **** 
 304:Drivers/CMSIS/Include/cmsis_gcc.h **** 
 305:Drivers/CMSIS/Include/cmsis_gcc.h **** /**
 306:Drivers/CMSIS/Include/cmsis_gcc.h ****   \brief   Reverse byte order (16 bit)
 307:Drivers/CMSIS/Include/cmsis_gcc.h ****   \details Reverses the byte order within each halfword of a word. For example, 0x12345678 becomes 
 308:Drivers/CMSIS/Include/cmsis_gcc.h ****   \param [in]    value  Value to reverse
 309:Drivers/CMSIS/Include/cmsis_gcc.h ****   \return               Reversed value
 310:Drivers/CMSIS/Include/cmsis_gcc.h ****  */
 311:Drivers/CMSIS/Include/cmsis_gcc.h **** __STATIC_FORCEINLINE uint32_t __REV16(uint32_t value)
 312:Drivers/CMSIS/Include/cmsis_gcc.h **** {
 313:Drivers/CMSIS/Include/cmsis_gcc.h ****   uint32_t result;
 314:Drivers/CMSIS/Include/cmsis_gcc.h **** 
 315:Drivers/CMSIS/Include/cmsis_gcc.h ****   __ASM ("rev16 %0, %1" : __CMSIS_GCC_OUT_REG (result) : __CMSIS_GCC_USE_REG (value) );
 316:Drivers/CMSIS/Include/cmsis_gcc.h ****   return result;
ARM GAS  C:\Users\HP-Admin\AppData\Local\Temp\ccssVuiz.s 			page 23


 317:Drivers/CMSIS/Include/cmsis_gcc.h **** }
 318:Drivers/CMSIS/Include/cmsis_gcc.h **** 
 319:Drivers/CMSIS/Include/cmsis_gcc.h **** 
 320:Drivers/CMSIS/Include/cmsis_gcc.h **** /**
 321:Drivers/CMSIS/Include/cmsis_gcc.h ****   \brief   Reverse byte order (16 bit)
 322:Drivers/CMSIS/Include/cmsis_gcc.h ****   \details Reverses the byte order in a 16-bit value and returns the signed 16-bit result. For exam
 323:Drivers/CMSIS/Include/cmsis_gcc.h ****   \param [in]    value  Value to reverse
 324:Drivers/CMSIS/Include/cmsis_gcc.h ****   \return               Reversed value
 325:Drivers/CMSIS/Include/cmsis_gcc.h ****  */
 326:Drivers/CMSIS/Include/cmsis_gcc.h **** __STATIC_FORCEINLINE int16_t __REVSH(int16_t value)
 327:Drivers/CMSIS/Include/cmsis_gcc.h **** {
 328:Drivers/CMSIS/Include/cmsis_gcc.h **** #if (__GNUC__ > 4) || (__GNUC__ == 4 && __GNUC_MINOR__ >= 8)
 329:Drivers/CMSIS/Include/cmsis_gcc.h ****   return (int16_t)__builtin_bswap16(value);
 330:Drivers/CMSIS/Include/cmsis_gcc.h **** #else
 331:Drivers/CMSIS/Include/cmsis_gcc.h ****   int16_t result;
 332:Drivers/CMSIS/Include/cmsis_gcc.h **** 
 333:Drivers/CMSIS/Include/cmsis_gcc.h ****   __ASM ("revsh %0, %1" : __CMSIS_GCC_OUT_REG (result) : __CMSIS_GCC_USE_REG (value) );
 334:Drivers/CMSIS/Include/cmsis_gcc.h ****   return result;
 335:Drivers/CMSIS/Include/cmsis_gcc.h **** #endif
 336:Drivers/CMSIS/Include/cmsis_gcc.h **** }
 337:Drivers/CMSIS/Include/cmsis_gcc.h **** 
 338:Drivers/CMSIS/Include/cmsis_gcc.h **** 
 339:Drivers/CMSIS/Include/cmsis_gcc.h **** /**
 340:Drivers/CMSIS/Include/cmsis_gcc.h ****   \brief   Rotate Right in unsigned value (32 bit)
 341:Drivers/CMSIS/Include/cmsis_gcc.h ****   \details Rotate Right (immediate) provides the value of the contents of a register rotated by a v
 342:Drivers/CMSIS/Include/cmsis_gcc.h ****   \param [in]    op1  Value to rotate
 343:Drivers/CMSIS/Include/cmsis_gcc.h ****   \param [in]    op2  Number of Bits to rotate
 344:Drivers/CMSIS/Include/cmsis_gcc.h ****   \return               Rotated value
 345:Drivers/CMSIS/Include/cmsis_gcc.h ****  */
 346:Drivers/CMSIS/Include/cmsis_gcc.h **** __STATIC_FORCEINLINE uint32_t __ROR(uint32_t op1, uint32_t op2)
 347:Drivers/CMSIS/Include/cmsis_gcc.h **** {
 348:Drivers/CMSIS/Include/cmsis_gcc.h ****   op2 %= 32U;
 349:Drivers/CMSIS/Include/cmsis_gcc.h ****   if (op2 == 0U)
 350:Drivers/CMSIS/Include/cmsis_gcc.h ****   {
 351:Drivers/CMSIS/Include/cmsis_gcc.h ****     return op1;
 352:Drivers/CMSIS/Include/cmsis_gcc.h ****   }
 353:Drivers/CMSIS/Include/cmsis_gcc.h ****   return (op1 >> op2) | (op1 << (32U - op2));
 354:Drivers/CMSIS/Include/cmsis_gcc.h **** }
 355:Drivers/CMSIS/Include/cmsis_gcc.h **** 
 356:Drivers/CMSIS/Include/cmsis_gcc.h **** 
 357:Drivers/CMSIS/Include/cmsis_gcc.h **** /**
 358:Drivers/CMSIS/Include/cmsis_gcc.h ****   \brief   Breakpoint
 359:Drivers/CMSIS/Include/cmsis_gcc.h ****   \details Causes the processor to enter Debug state.
 360:Drivers/CMSIS/Include/cmsis_gcc.h ****            Debug tools can use this to investigate system state when the instruction at a particula
 361:Drivers/CMSIS/Include/cmsis_gcc.h ****   \param [in]    value  is ignored by the processor.
 362:Drivers/CMSIS/Include/cmsis_gcc.h ****                  If required, a debugger can use it to store additional information about the break
 363:Drivers/CMSIS/Include/cmsis_gcc.h ****  */
 364:Drivers/CMSIS/Include/cmsis_gcc.h **** #define __BKPT(value)                       __ASM volatile ("bkpt "#value)
 365:Drivers/CMSIS/Include/cmsis_gcc.h **** 
 366:Drivers/CMSIS/Include/cmsis_gcc.h **** 
 367:Drivers/CMSIS/Include/cmsis_gcc.h **** /**
 368:Drivers/CMSIS/Include/cmsis_gcc.h ****   \brief   Reverse bit order of value
 369:Drivers/CMSIS/Include/cmsis_gcc.h ****   \details Reverses the bit order of the given value.
 370:Drivers/CMSIS/Include/cmsis_gcc.h ****   \param [in]    value  Value to reverse
 371:Drivers/CMSIS/Include/cmsis_gcc.h ****   \return               Reversed value
 372:Drivers/CMSIS/Include/cmsis_gcc.h ****  */
 373:Drivers/CMSIS/Include/cmsis_gcc.h **** __STATIC_FORCEINLINE uint32_t __RBIT(uint32_t value)
ARM GAS  C:\Users\HP-Admin\AppData\Local\Temp\ccssVuiz.s 			page 24


 165              		.loc 4 373 31 view .LVU25
 166              	.LBB774:
 374:Drivers/CMSIS/Include/cmsis_gcc.h **** {
 375:Drivers/CMSIS/Include/cmsis_gcc.h ****   uint32_t result;
 167              		.loc 4 375 3 view .LVU26
 376:Drivers/CMSIS/Include/cmsis_gcc.h **** 
 377:Drivers/CMSIS/Include/cmsis_gcc.h **** #if ((defined (__ARM_ARCH_7M__      ) && (__ARM_ARCH_7M__      == 1)) || \
 378:Drivers/CMSIS/Include/cmsis_gcc.h ****      (defined (__ARM_ARCH_7EM__     ) && (__ARM_ARCH_7EM__     == 1)) || \
 379:Drivers/CMSIS/Include/cmsis_gcc.h ****      (defined (__ARM_ARCH_8M_MAIN__ ) && (__ARM_ARCH_8M_MAIN__ == 1))    )
 380:Drivers/CMSIS/Include/cmsis_gcc.h ****    __ASM ("rbit %0, %1" : "=r" (result) : "r" (value) );
 168              		.loc 4 380 4 view .LVU27
 169              		.syntax unified
 170              	@ 380 "Drivers/CMSIS/Include/cmsis_gcc.h" 1
 171 001e 93FAA3F2 		rbit r2, r3
 172              	@ 0 "" 2
 173              	.LVL10:
 381:Drivers/CMSIS/Include/cmsis_gcc.h **** #else
 382:Drivers/CMSIS/Include/cmsis_gcc.h ****   uint32_t s = (4U /*sizeof(v)*/ * 8U) - 1U; /* extra shift needed at end */
 383:Drivers/CMSIS/Include/cmsis_gcc.h **** 
 384:Drivers/CMSIS/Include/cmsis_gcc.h ****   result = value;                      /* r will be reversed bits of v; first get LSB of v */
 385:Drivers/CMSIS/Include/cmsis_gcc.h ****   for (value >>= 1U; value != 0U; value >>= 1U)
 386:Drivers/CMSIS/Include/cmsis_gcc.h ****   {
 387:Drivers/CMSIS/Include/cmsis_gcc.h ****     result <<= 1U;
 388:Drivers/CMSIS/Include/cmsis_gcc.h ****     result |= value & 1U;
 389:Drivers/CMSIS/Include/cmsis_gcc.h ****     s--;
 390:Drivers/CMSIS/Include/cmsis_gcc.h ****   }
 391:Drivers/CMSIS/Include/cmsis_gcc.h ****   result <<= s;                        /* shift when v's highest bits are zero */
 392:Drivers/CMSIS/Include/cmsis_gcc.h **** #endif
 393:Drivers/CMSIS/Include/cmsis_gcc.h ****   return result;
 174              		.loc 4 393 3 view .LVU28
 175              		.loc 4 393 3 is_stmt 0 view .LVU29
 176              		.thumb
 177              		.syntax unified
 178              	.LBE774:
 179              	.LBE773:
 180              	.LBB775:
 181              	.LBI775:
 394:Drivers/CMSIS/Include/cmsis_gcc.h **** }
 395:Drivers/CMSIS/Include/cmsis_gcc.h **** 
 396:Drivers/CMSIS/Include/cmsis_gcc.h **** 
 397:Drivers/CMSIS/Include/cmsis_gcc.h **** /**
 398:Drivers/CMSIS/Include/cmsis_gcc.h ****   \brief   Count leading zeros
 399:Drivers/CMSIS/Include/cmsis_gcc.h ****   \details Counts the number of leading zeros of a data value.
 400:Drivers/CMSIS/Include/cmsis_gcc.h ****   \param [in]  value  Value to count the leading zeros
 401:Drivers/CMSIS/Include/cmsis_gcc.h ****   \return             number of leading zeros in value
 402:Drivers/CMSIS/Include/cmsis_gcc.h ****  */
 403:Drivers/CMSIS/Include/cmsis_gcc.h **** __STATIC_FORCEINLINE uint8_t __CLZ(uint32_t value)
 182              		.loc 4 403 30 is_stmt 1 view .LVU30
 183              	.LBB776:
 404:Drivers/CMSIS/Include/cmsis_gcc.h **** {
 405:Drivers/CMSIS/Include/cmsis_gcc.h ****   /* Even though __builtin_clz produces a CLZ instruction on ARM, formally
 406:Drivers/CMSIS/Include/cmsis_gcc.h ****      __builtin_clz(0) is undefined behaviour, so handle this case specially.
 407:Drivers/CMSIS/Include/cmsis_gcc.h ****      This guarantees ARM-compatible results if happening to compile on a non-ARM
 408:Drivers/CMSIS/Include/cmsis_gcc.h ****      target, and ensures the compiler doesn't decide to activate any
 409:Drivers/CMSIS/Include/cmsis_gcc.h ****      optimisations using the logic "value was passed to __builtin_clz, so it
 410:Drivers/CMSIS/Include/cmsis_gcc.h ****      is non-zero".
 411:Drivers/CMSIS/Include/cmsis_gcc.h ****      ARM GCC 7.3 and possibly earlier will optimise this test away, leaving a
ARM GAS  C:\Users\HP-Admin\AppData\Local\Temp\ccssVuiz.s 			page 25


 412:Drivers/CMSIS/Include/cmsis_gcc.h ****      single CLZ instruction.
 413:Drivers/CMSIS/Include/cmsis_gcc.h ****    */
 414:Drivers/CMSIS/Include/cmsis_gcc.h ****   if (value == 0U)
 184              		.loc 4 414 3 view .LVU31
 185              		.loc 4 414 6 is_stmt 0 view .LVU32
 186 0022 002A     		cmp	r2, #0
 187 0024 00F03782 		beq	.L43
 415:Drivers/CMSIS/Include/cmsis_gcc.h ****   {
 416:Drivers/CMSIS/Include/cmsis_gcc.h ****     return 32U;
 417:Drivers/CMSIS/Include/cmsis_gcc.h ****   }
 418:Drivers/CMSIS/Include/cmsis_gcc.h ****   return __builtin_clz(value);
 188              		.loc 4 418 3 is_stmt 1 view .LVU33
 189              		.loc 4 418 10 is_stmt 0 view .LVU34
 190 0028 B2FA82F2 		clz	r2, r2
 191              	.LVL11:
 192              	.L11:
 193              		.loc 4 418 10 view .LVU35
 194              	.LBE776:
 195              	.LBE775:
 196              		.loc 3 275 3 view .LVU36
 197 002c 5200     		lsls	r2, r2, #1
 198 002e 0320     		movs	r0, #3
 199 0030 00FA02F2 		lsl	r2, r0, r2
 200 0034 21EA0202 		bic	r2, r1, r2
 201              	.LVL12:
 202              	.LBB778:
 203              	.LBI778:
 373:Drivers/CMSIS/Include/cmsis_gcc.h **** {
 204              		.loc 4 373 31 is_stmt 1 view .LVU37
 205              	.LBB779:
 375:Drivers/CMSIS/Include/cmsis_gcc.h **** 
 206              		.loc 4 375 3 view .LVU38
 380:Drivers/CMSIS/Include/cmsis_gcc.h **** #else
 207              		.loc 4 380 4 view .LVU39
 208              		.syntax unified
 209              	@ 380 "Drivers/CMSIS/Include/cmsis_gcc.h" 1
 210 0038 93FAA3F3 		rbit r3, r3
 211              	@ 0 "" 2
 212              	.LVL13:
 393:Drivers/CMSIS/Include/cmsis_gcc.h **** }
 213              		.loc 4 393 3 view .LVU40
 393:Drivers/CMSIS/Include/cmsis_gcc.h **** }
 214              		.loc 4 393 3 is_stmt 0 view .LVU41
 215              		.thumb
 216              		.syntax unified
 217              	.LBE779:
 218              	.LBE778:
 219              	.LBB780:
 220              	.LBI780:
 403:Drivers/CMSIS/Include/cmsis_gcc.h **** {
 221              		.loc 4 403 30 is_stmt 1 view .LVU42
 222              	.LBB781:
 414:Drivers/CMSIS/Include/cmsis_gcc.h ****   {
 223              		.loc 4 414 3 view .LVU43
 414:Drivers/CMSIS/Include/cmsis_gcc.h ****   {
 224              		.loc 4 414 6 is_stmt 0 view .LVU44
 225 003c 002B     		cmp	r3, #0
ARM GAS  C:\Users\HP-Admin\AppData\Local\Temp\ccssVuiz.s 			page 26


 226 003e 00F02C82 		beq	.L44
 227              		.loc 4 418 3 is_stmt 1 view .LVU45
 228              		.loc 4 418 10 is_stmt 0 view .LVU46
 229 0042 B3FA83F3 		clz	r3, r3
 230              	.LVL14:
 231              	.L12:
 232              		.loc 4 418 10 view .LVU47
 233              	.LBE781:
 234              	.LBE780:
 235              		.loc 3 275 3 view .LVU48
 236 0046 5B00     		lsls	r3, r3, #1
 237 0048 0121     		movs	r1, #1
 238 004a 01FA03F3 		lsl	r3, r1, r3
 239 004e 1343     		orrs	r3, r3, r2
 240 0050 AE4A     		ldr	r2, .L76+8
 241 0052 1360     		str	r3, [r2]
 242              	.LVL15:
 243              		.loc 3 275 3 view .LVU49
 244              	.LBE772:
 245              	.LBE771:
  92:Core/Src/Darin3Cart_Driver.c ****     LL_GPIO_SetPinOutputType(GPIOE, M_D0, LL_GPIO_OUTPUT_PUSHPULL);
 246              		.loc 1 92 5 is_stmt 1 view .LVU50
 247 0054 AC4B     		ldr	r3, .L76+4
 248 0056 1B88     		ldrh	r3, [r3]
 249              	.LVL16:
 250              	.LBB786:
 251              	.LBI786:
 276:Drivers/STM32F4xx_HAL_Driver/Inc/stm32f4xx_ll_gpio.h **** }
 277:Drivers/STM32F4xx_HAL_Driver/Inc/stm32f4xx_ll_gpio.h **** 
 278:Drivers/STM32F4xx_HAL_Driver/Inc/stm32f4xx_ll_gpio.h **** /**
 279:Drivers/STM32F4xx_HAL_Driver/Inc/stm32f4xx_ll_gpio.h ****   * @brief  Return gpio mode for a dedicated pin on dedicated port.
 280:Drivers/STM32F4xx_HAL_Driver/Inc/stm32f4xx_ll_gpio.h ****   * @note   I/O mode can be Input mode, General purpose output, Alternate function mode or Analog.
 281:Drivers/STM32F4xx_HAL_Driver/Inc/stm32f4xx_ll_gpio.h ****   * @note   Warning: only one pin can be passed as parameter.
 282:Drivers/STM32F4xx_HAL_Driver/Inc/stm32f4xx_ll_gpio.h ****   * @rmtoll MODER        MODEy         LL_GPIO_GetPinMode
 283:Drivers/STM32F4xx_HAL_Driver/Inc/stm32f4xx_ll_gpio.h ****   * @param  GPIOx GPIO Port
 284:Drivers/STM32F4xx_HAL_Driver/Inc/stm32f4xx_ll_gpio.h ****   * @param  Pin This parameter can be one of the following values:
 285:Drivers/STM32F4xx_HAL_Driver/Inc/stm32f4xx_ll_gpio.h ****   *         @arg @ref LL_GPIO_PIN_0
 286:Drivers/STM32F4xx_HAL_Driver/Inc/stm32f4xx_ll_gpio.h ****   *         @arg @ref LL_GPIO_PIN_1
 287:Drivers/STM32F4xx_HAL_Driver/Inc/stm32f4xx_ll_gpio.h ****   *         @arg @ref LL_GPIO_PIN_2
 288:Drivers/STM32F4xx_HAL_Driver/Inc/stm32f4xx_ll_gpio.h ****   *         @arg @ref LL_GPIO_PIN_3
 289:Drivers/STM32F4xx_HAL_Driver/Inc/stm32f4xx_ll_gpio.h ****   *         @arg @ref LL_GPIO_PIN_4
 290:Drivers/STM32F4xx_HAL_Driver/Inc/stm32f4xx_ll_gpio.h ****   *         @arg @ref LL_GPIO_PIN_5
 291:Drivers/STM32F4xx_HAL_Driver/Inc/stm32f4xx_ll_gpio.h ****   *         @arg @ref LL_GPIO_PIN_6
 292:Drivers/STM32F4xx_HAL_Driver/Inc/stm32f4xx_ll_gpio.h ****   *         @arg @ref LL_GPIO_PIN_7
 293:Drivers/STM32F4xx_HAL_Driver/Inc/stm32f4xx_ll_gpio.h ****   *         @arg @ref LL_GPIO_PIN_8
 294:Drivers/STM32F4xx_HAL_Driver/Inc/stm32f4xx_ll_gpio.h ****   *         @arg @ref LL_GPIO_PIN_9
 295:Drivers/STM32F4xx_HAL_Driver/Inc/stm32f4xx_ll_gpio.h ****   *         @arg @ref LL_GPIO_PIN_10
 296:Drivers/STM32F4xx_HAL_Driver/Inc/stm32f4xx_ll_gpio.h ****   *         @arg @ref LL_GPIO_PIN_11
 297:Drivers/STM32F4xx_HAL_Driver/Inc/stm32f4xx_ll_gpio.h ****   *         @arg @ref LL_GPIO_PIN_12
 298:Drivers/STM32F4xx_HAL_Driver/Inc/stm32f4xx_ll_gpio.h ****   *         @arg @ref LL_GPIO_PIN_13
 299:Drivers/STM32F4xx_HAL_Driver/Inc/stm32f4xx_ll_gpio.h ****   *         @arg @ref LL_GPIO_PIN_14
 300:Drivers/STM32F4xx_HAL_Driver/Inc/stm32f4xx_ll_gpio.h ****   *         @arg @ref LL_GPIO_PIN_15
 301:Drivers/STM32F4xx_HAL_Driver/Inc/stm32f4xx_ll_gpio.h ****   * @retval Returned value can be one of the following values:
 302:Drivers/STM32F4xx_HAL_Driver/Inc/stm32f4xx_ll_gpio.h ****   *         @arg @ref LL_GPIO_MODE_INPUT
 303:Drivers/STM32F4xx_HAL_Driver/Inc/stm32f4xx_ll_gpio.h ****   *         @arg @ref LL_GPIO_MODE_OUTPUT
 304:Drivers/STM32F4xx_HAL_Driver/Inc/stm32f4xx_ll_gpio.h ****   *         @arg @ref LL_GPIO_MODE_ALTERNATE
 305:Drivers/STM32F4xx_HAL_Driver/Inc/stm32f4xx_ll_gpio.h ****   *         @arg @ref LL_GPIO_MODE_ANALOG
ARM GAS  C:\Users\HP-Admin\AppData\Local\Temp\ccssVuiz.s 			page 27


 306:Drivers/STM32F4xx_HAL_Driver/Inc/stm32f4xx_ll_gpio.h ****   */
 307:Drivers/STM32F4xx_HAL_Driver/Inc/stm32f4xx_ll_gpio.h **** __STATIC_INLINE uint32_t LL_GPIO_GetPinMode(GPIO_TypeDef *GPIOx, uint32_t Pin)
 308:Drivers/STM32F4xx_HAL_Driver/Inc/stm32f4xx_ll_gpio.h **** {
 309:Drivers/STM32F4xx_HAL_Driver/Inc/stm32f4xx_ll_gpio.h ****   return (uint32_t)(READ_BIT(GPIOx->MODER,
 310:Drivers/STM32F4xx_HAL_Driver/Inc/stm32f4xx_ll_gpio.h ****                              (GPIO_MODER_MODER0 << (POSITION_VAL(Pin) * 2U))) >> (POSITION_VAL(Pin)
 311:Drivers/STM32F4xx_HAL_Driver/Inc/stm32f4xx_ll_gpio.h **** }
 312:Drivers/STM32F4xx_HAL_Driver/Inc/stm32f4xx_ll_gpio.h **** 
 313:Drivers/STM32F4xx_HAL_Driver/Inc/stm32f4xx_ll_gpio.h **** /**
 314:Drivers/STM32F4xx_HAL_Driver/Inc/stm32f4xx_ll_gpio.h ****   * @brief  Configure gpio output type for several pins on dedicated port.
 315:Drivers/STM32F4xx_HAL_Driver/Inc/stm32f4xx_ll_gpio.h ****   * @note   Output type as to be set when gpio pin is in output or
 316:Drivers/STM32F4xx_HAL_Driver/Inc/stm32f4xx_ll_gpio.h ****   *         alternate modes. Possible type are Push-pull or Open-drain.
 317:Drivers/STM32F4xx_HAL_Driver/Inc/stm32f4xx_ll_gpio.h ****   * @rmtoll OTYPER       OTy           LL_GPIO_SetPinOutputType
 318:Drivers/STM32F4xx_HAL_Driver/Inc/stm32f4xx_ll_gpio.h ****   * @param  GPIOx GPIO Port
 319:Drivers/STM32F4xx_HAL_Driver/Inc/stm32f4xx_ll_gpio.h ****   * @param  PinMask This parameter can be a combination of the following values:
 320:Drivers/STM32F4xx_HAL_Driver/Inc/stm32f4xx_ll_gpio.h ****   *         @arg @ref LL_GPIO_PIN_0
 321:Drivers/STM32F4xx_HAL_Driver/Inc/stm32f4xx_ll_gpio.h ****   *         @arg @ref LL_GPIO_PIN_1
 322:Drivers/STM32F4xx_HAL_Driver/Inc/stm32f4xx_ll_gpio.h ****   *         @arg @ref LL_GPIO_PIN_2
 323:Drivers/STM32F4xx_HAL_Driver/Inc/stm32f4xx_ll_gpio.h ****   *         @arg @ref LL_GPIO_PIN_3
 324:Drivers/STM32F4xx_HAL_Driver/Inc/stm32f4xx_ll_gpio.h ****   *         @arg @ref LL_GPIO_PIN_4
 325:Drivers/STM32F4xx_HAL_Driver/Inc/stm32f4xx_ll_gpio.h ****   *         @arg @ref LL_GPIO_PIN_5
 326:Drivers/STM32F4xx_HAL_Driver/Inc/stm32f4xx_ll_gpio.h ****   *         @arg @ref LL_GPIO_PIN_6
 327:Drivers/STM32F4xx_HAL_Driver/Inc/stm32f4xx_ll_gpio.h ****   *         @arg @ref LL_GPIO_PIN_7
 328:Drivers/STM32F4xx_HAL_Driver/Inc/stm32f4xx_ll_gpio.h ****   *         @arg @ref LL_GPIO_PIN_8
 329:Drivers/STM32F4xx_HAL_Driver/Inc/stm32f4xx_ll_gpio.h ****   *         @arg @ref LL_GPIO_PIN_9
 330:Drivers/STM32F4xx_HAL_Driver/Inc/stm32f4xx_ll_gpio.h ****   *         @arg @ref LL_GPIO_PIN_10
 331:Drivers/STM32F4xx_HAL_Driver/Inc/stm32f4xx_ll_gpio.h ****   *         @arg @ref LL_GPIO_PIN_11
 332:Drivers/STM32F4xx_HAL_Driver/Inc/stm32f4xx_ll_gpio.h ****   *         @arg @ref LL_GPIO_PIN_12
 333:Drivers/STM32F4xx_HAL_Driver/Inc/stm32f4xx_ll_gpio.h ****   *         @arg @ref LL_GPIO_PIN_13
 334:Drivers/STM32F4xx_HAL_Driver/Inc/stm32f4xx_ll_gpio.h ****   *         @arg @ref LL_GPIO_PIN_14
 335:Drivers/STM32F4xx_HAL_Driver/Inc/stm32f4xx_ll_gpio.h ****   *         @arg @ref LL_GPIO_PIN_15
 336:Drivers/STM32F4xx_HAL_Driver/Inc/stm32f4xx_ll_gpio.h ****   *         @arg @ref LL_GPIO_PIN_ALL
 337:Drivers/STM32F4xx_HAL_Driver/Inc/stm32f4xx_ll_gpio.h ****   * @param  OutputType This parameter can be one of the following values:
 338:Drivers/STM32F4xx_HAL_Driver/Inc/stm32f4xx_ll_gpio.h ****   *         @arg @ref LL_GPIO_OUTPUT_PUSHPULL
 339:Drivers/STM32F4xx_HAL_Driver/Inc/stm32f4xx_ll_gpio.h ****   *         @arg @ref LL_GPIO_OUTPUT_OPENDRAIN
 340:Drivers/STM32F4xx_HAL_Driver/Inc/stm32f4xx_ll_gpio.h ****   * @retval None
 341:Drivers/STM32F4xx_HAL_Driver/Inc/stm32f4xx_ll_gpio.h ****   */
 342:Drivers/STM32F4xx_HAL_Driver/Inc/stm32f4xx_ll_gpio.h **** __STATIC_INLINE void LL_GPIO_SetPinOutputType(GPIO_TypeDef *GPIOx, uint32_t PinMask, uint32_t Outpu
 252              		.loc 3 342 22 view .LVU51
 253              	.LBB787:
 343:Drivers/STM32F4xx_HAL_Driver/Inc/stm32f4xx_ll_gpio.h **** {
 344:Drivers/STM32F4xx_HAL_Driver/Inc/stm32f4xx_ll_gpio.h ****   MODIFY_REG(GPIOx->OTYPER, PinMask, (PinMask * OutputType));
 254              		.loc 3 344 3 view .LVU52
 255 0058 5168     		ldr	r1, [r2, #4]
 256 005a 21EA0301 		bic	r1, r1, r3
 257 005e 5160     		str	r1, [r2, #4]
 258              	.LVL17:
 259              		.loc 3 344 3 is_stmt 0 view .LVU53
 260              	.LBE787:
 261              	.LBE786:
  93:Core/Src/Darin3Cart_Driver.c ****     LL_GPIO_SetPinSpeed(GPIOE, M_D0, LL_GPIO_SPEED_FREQ_LOW);
 262              		.loc 1 93 5 is_stmt 1 view .LVU54
 263              	.LBB788:
 264              	.LBI788:
 345:Drivers/STM32F4xx_HAL_Driver/Inc/stm32f4xx_ll_gpio.h **** }
 346:Drivers/STM32F4xx_HAL_Driver/Inc/stm32f4xx_ll_gpio.h **** 
 347:Drivers/STM32F4xx_HAL_Driver/Inc/stm32f4xx_ll_gpio.h **** /**
 348:Drivers/STM32F4xx_HAL_Driver/Inc/stm32f4xx_ll_gpio.h ****   * @brief  Return gpio output type for several pins on dedicated port.
ARM GAS  C:\Users\HP-Admin\AppData\Local\Temp\ccssVuiz.s 			page 28


 349:Drivers/STM32F4xx_HAL_Driver/Inc/stm32f4xx_ll_gpio.h ****   * @note   Output type as to be set when gpio pin is in output or
 350:Drivers/STM32F4xx_HAL_Driver/Inc/stm32f4xx_ll_gpio.h ****   *         alternate modes. Possible type are Push-pull or Open-drain.
 351:Drivers/STM32F4xx_HAL_Driver/Inc/stm32f4xx_ll_gpio.h ****   * @note   Warning: only one pin can be passed as parameter.
 352:Drivers/STM32F4xx_HAL_Driver/Inc/stm32f4xx_ll_gpio.h ****   * @rmtoll OTYPER       OTy           LL_GPIO_GetPinOutputType
 353:Drivers/STM32F4xx_HAL_Driver/Inc/stm32f4xx_ll_gpio.h ****   * @param  GPIOx GPIO Port
 354:Drivers/STM32F4xx_HAL_Driver/Inc/stm32f4xx_ll_gpio.h ****   * @param  Pin This parameter can be one of the following values:
 355:Drivers/STM32F4xx_HAL_Driver/Inc/stm32f4xx_ll_gpio.h ****   *         @arg @ref LL_GPIO_PIN_0
 356:Drivers/STM32F4xx_HAL_Driver/Inc/stm32f4xx_ll_gpio.h ****   *         @arg @ref LL_GPIO_PIN_1
 357:Drivers/STM32F4xx_HAL_Driver/Inc/stm32f4xx_ll_gpio.h ****   *         @arg @ref LL_GPIO_PIN_2
 358:Drivers/STM32F4xx_HAL_Driver/Inc/stm32f4xx_ll_gpio.h ****   *         @arg @ref LL_GPIO_PIN_3
 359:Drivers/STM32F4xx_HAL_Driver/Inc/stm32f4xx_ll_gpio.h ****   *         @arg @ref LL_GPIO_PIN_4
 360:Drivers/STM32F4xx_HAL_Driver/Inc/stm32f4xx_ll_gpio.h ****   *         @arg @ref LL_GPIO_PIN_5
 361:Drivers/STM32F4xx_HAL_Driver/Inc/stm32f4xx_ll_gpio.h ****   *         @arg @ref LL_GPIO_PIN_6
 362:Drivers/STM32F4xx_HAL_Driver/Inc/stm32f4xx_ll_gpio.h ****   *         @arg @ref LL_GPIO_PIN_7
 363:Drivers/STM32F4xx_HAL_Driver/Inc/stm32f4xx_ll_gpio.h ****   *         @arg @ref LL_GPIO_PIN_8
 364:Drivers/STM32F4xx_HAL_Driver/Inc/stm32f4xx_ll_gpio.h ****   *         @arg @ref LL_GPIO_PIN_9
 365:Drivers/STM32F4xx_HAL_Driver/Inc/stm32f4xx_ll_gpio.h ****   *         @arg @ref LL_GPIO_PIN_10
 366:Drivers/STM32F4xx_HAL_Driver/Inc/stm32f4xx_ll_gpio.h ****   *         @arg @ref LL_GPIO_PIN_11
 367:Drivers/STM32F4xx_HAL_Driver/Inc/stm32f4xx_ll_gpio.h ****   *         @arg @ref LL_GPIO_PIN_12
 368:Drivers/STM32F4xx_HAL_Driver/Inc/stm32f4xx_ll_gpio.h ****   *         @arg @ref LL_GPIO_PIN_13
 369:Drivers/STM32F4xx_HAL_Driver/Inc/stm32f4xx_ll_gpio.h ****   *         @arg @ref LL_GPIO_PIN_14
 370:Drivers/STM32F4xx_HAL_Driver/Inc/stm32f4xx_ll_gpio.h ****   *         @arg @ref LL_GPIO_PIN_15
 371:Drivers/STM32F4xx_HAL_Driver/Inc/stm32f4xx_ll_gpio.h ****   *         @arg @ref LL_GPIO_PIN_ALL
 372:Drivers/STM32F4xx_HAL_Driver/Inc/stm32f4xx_ll_gpio.h ****   * @retval Returned value can be one of the following values:
 373:Drivers/STM32F4xx_HAL_Driver/Inc/stm32f4xx_ll_gpio.h ****   *         @arg @ref LL_GPIO_OUTPUT_PUSHPULL
 374:Drivers/STM32F4xx_HAL_Driver/Inc/stm32f4xx_ll_gpio.h ****   *         @arg @ref LL_GPIO_OUTPUT_OPENDRAIN
 375:Drivers/STM32F4xx_HAL_Driver/Inc/stm32f4xx_ll_gpio.h ****   */
 376:Drivers/STM32F4xx_HAL_Driver/Inc/stm32f4xx_ll_gpio.h **** __STATIC_INLINE uint32_t LL_GPIO_GetPinOutputType(GPIO_TypeDef *GPIOx, uint32_t Pin)
 377:Drivers/STM32F4xx_HAL_Driver/Inc/stm32f4xx_ll_gpio.h **** {
 378:Drivers/STM32F4xx_HAL_Driver/Inc/stm32f4xx_ll_gpio.h ****   return (uint32_t)(READ_BIT(GPIOx->OTYPER, Pin) >> POSITION_VAL(Pin));
 379:Drivers/STM32F4xx_HAL_Driver/Inc/stm32f4xx_ll_gpio.h **** }
 380:Drivers/STM32F4xx_HAL_Driver/Inc/stm32f4xx_ll_gpio.h **** 
 381:Drivers/STM32F4xx_HAL_Driver/Inc/stm32f4xx_ll_gpio.h **** /**
 382:Drivers/STM32F4xx_HAL_Driver/Inc/stm32f4xx_ll_gpio.h ****   * @brief  Configure gpio speed for a dedicated pin on dedicated port.
 383:Drivers/STM32F4xx_HAL_Driver/Inc/stm32f4xx_ll_gpio.h ****   * @note   I/O speed can be Low, Medium, Fast or High speed.
 384:Drivers/STM32F4xx_HAL_Driver/Inc/stm32f4xx_ll_gpio.h ****   * @note   Warning: only one pin can be passed as parameter.
 385:Drivers/STM32F4xx_HAL_Driver/Inc/stm32f4xx_ll_gpio.h ****   * @note   Refer to datasheet for frequency specifications and the power
 386:Drivers/STM32F4xx_HAL_Driver/Inc/stm32f4xx_ll_gpio.h ****   *         supply and load conditions for each speed.
 387:Drivers/STM32F4xx_HAL_Driver/Inc/stm32f4xx_ll_gpio.h ****   * @rmtoll OSPEEDR      OSPEEDy       LL_GPIO_SetPinSpeed
 388:Drivers/STM32F4xx_HAL_Driver/Inc/stm32f4xx_ll_gpio.h ****   * @param  GPIOx GPIO Port
 389:Drivers/STM32F4xx_HAL_Driver/Inc/stm32f4xx_ll_gpio.h ****   * @param  Pin This parameter can be one of the following values:
 390:Drivers/STM32F4xx_HAL_Driver/Inc/stm32f4xx_ll_gpio.h ****   *         @arg @ref LL_GPIO_PIN_0
 391:Drivers/STM32F4xx_HAL_Driver/Inc/stm32f4xx_ll_gpio.h ****   *         @arg @ref LL_GPIO_PIN_1
 392:Drivers/STM32F4xx_HAL_Driver/Inc/stm32f4xx_ll_gpio.h ****   *         @arg @ref LL_GPIO_PIN_2
 393:Drivers/STM32F4xx_HAL_Driver/Inc/stm32f4xx_ll_gpio.h ****   *         @arg @ref LL_GPIO_PIN_3
 394:Drivers/STM32F4xx_HAL_Driver/Inc/stm32f4xx_ll_gpio.h ****   *         @arg @ref LL_GPIO_PIN_4
 395:Drivers/STM32F4xx_HAL_Driver/Inc/stm32f4xx_ll_gpio.h ****   *         @arg @ref LL_GPIO_PIN_5
 396:Drivers/STM32F4xx_HAL_Driver/Inc/stm32f4xx_ll_gpio.h ****   *         @arg @ref LL_GPIO_PIN_6
 397:Drivers/STM32F4xx_HAL_Driver/Inc/stm32f4xx_ll_gpio.h ****   *         @arg @ref LL_GPIO_PIN_7
 398:Drivers/STM32F4xx_HAL_Driver/Inc/stm32f4xx_ll_gpio.h ****   *         @arg @ref LL_GPIO_PIN_8
 399:Drivers/STM32F4xx_HAL_Driver/Inc/stm32f4xx_ll_gpio.h ****   *         @arg @ref LL_GPIO_PIN_9
 400:Drivers/STM32F4xx_HAL_Driver/Inc/stm32f4xx_ll_gpio.h ****   *         @arg @ref LL_GPIO_PIN_10
 401:Drivers/STM32F4xx_HAL_Driver/Inc/stm32f4xx_ll_gpio.h ****   *         @arg @ref LL_GPIO_PIN_11
 402:Drivers/STM32F4xx_HAL_Driver/Inc/stm32f4xx_ll_gpio.h ****   *         @arg @ref LL_GPIO_PIN_12
 403:Drivers/STM32F4xx_HAL_Driver/Inc/stm32f4xx_ll_gpio.h ****   *         @arg @ref LL_GPIO_PIN_13
 404:Drivers/STM32F4xx_HAL_Driver/Inc/stm32f4xx_ll_gpio.h ****   *         @arg @ref LL_GPIO_PIN_14
 405:Drivers/STM32F4xx_HAL_Driver/Inc/stm32f4xx_ll_gpio.h ****   *         @arg @ref LL_GPIO_PIN_15
ARM GAS  C:\Users\HP-Admin\AppData\Local\Temp\ccssVuiz.s 			page 29


 406:Drivers/STM32F4xx_HAL_Driver/Inc/stm32f4xx_ll_gpio.h ****   * @param  Speed This parameter can be one of the following values:
 407:Drivers/STM32F4xx_HAL_Driver/Inc/stm32f4xx_ll_gpio.h ****   *         @arg @ref LL_GPIO_SPEED_FREQ_LOW
 408:Drivers/STM32F4xx_HAL_Driver/Inc/stm32f4xx_ll_gpio.h ****   *         @arg @ref LL_GPIO_SPEED_FREQ_MEDIUM
 409:Drivers/STM32F4xx_HAL_Driver/Inc/stm32f4xx_ll_gpio.h ****   *         @arg @ref LL_GPIO_SPEED_FREQ_HIGH
 410:Drivers/STM32F4xx_HAL_Driver/Inc/stm32f4xx_ll_gpio.h ****   *         @arg @ref LL_GPIO_SPEED_FREQ_VERY_HIGH
 411:Drivers/STM32F4xx_HAL_Driver/Inc/stm32f4xx_ll_gpio.h ****   * @retval None
 412:Drivers/STM32F4xx_HAL_Driver/Inc/stm32f4xx_ll_gpio.h ****   */
 413:Drivers/STM32F4xx_HAL_Driver/Inc/stm32f4xx_ll_gpio.h **** __STATIC_INLINE void LL_GPIO_SetPinSpeed(GPIO_TypeDef *GPIOx, uint32_t Pin, uint32_t  Speed)
 265              		.loc 3 413 22 view .LVU55
 266              	.LBB789:
 414:Drivers/STM32F4xx_HAL_Driver/Inc/stm32f4xx_ll_gpio.h **** {
 415:Drivers/STM32F4xx_HAL_Driver/Inc/stm32f4xx_ll_gpio.h ****   MODIFY_REG(GPIOx->OSPEEDR, (GPIO_OSPEEDER_OSPEEDR0 << (POSITION_VAL(Pin) * 2U)),
 267              		.loc 3 415 3 view .LVU56
 268 0060 9268     		ldr	r2, [r2, #8]
 269              	.LVL18:
 270              	.LBB790:
 271              	.LBI790:
 373:Drivers/CMSIS/Include/cmsis_gcc.h **** {
 272              		.loc 4 373 31 view .LVU57
 273              	.LBB791:
 375:Drivers/CMSIS/Include/cmsis_gcc.h **** 
 274              		.loc 4 375 3 view .LVU58
 380:Drivers/CMSIS/Include/cmsis_gcc.h **** #else
 275              		.loc 4 380 4 view .LVU59
 276              		.syntax unified
 277              	@ 380 "Drivers/CMSIS/Include/cmsis_gcc.h" 1
 278 0062 93FAA3F3 		rbit r3, r3
 279              	@ 0 "" 2
 280              	.LVL19:
 393:Drivers/CMSIS/Include/cmsis_gcc.h **** }
 281              		.loc 4 393 3 view .LVU60
 393:Drivers/CMSIS/Include/cmsis_gcc.h **** }
 282              		.loc 4 393 3 is_stmt 0 view .LVU61
 283              		.thumb
 284              		.syntax unified
 285              	.LBE791:
 286              	.LBE790:
 287              	.LBB792:
 288              	.LBI792:
 403:Drivers/CMSIS/Include/cmsis_gcc.h **** {
 289              		.loc 4 403 30 is_stmt 1 view .LVU62
 290              	.LBB793:
 414:Drivers/CMSIS/Include/cmsis_gcc.h ****   {
 291              		.loc 4 414 3 view .LVU63
 414:Drivers/CMSIS/Include/cmsis_gcc.h ****   {
 292              		.loc 4 414 6 is_stmt 0 view .LVU64
 293 0066 002B     		cmp	r3, #0
 294 0068 00F01982 		beq	.L45
 295              		.loc 4 418 3 is_stmt 1 view .LVU65
 296              		.loc 4 418 10 is_stmt 0 view .LVU66
 297 006c B3FA83F3 		clz	r3, r3
 298              	.LVL20:
 299              	.L13:
 300              		.loc 4 418 10 view .LVU67
 301              	.LBE793:
 302              	.LBE792:
 303              		.loc 3 415 3 view .LVU68
ARM GAS  C:\Users\HP-Admin\AppData\Local\Temp\ccssVuiz.s 			page 30


 304 0070 5B00     		lsls	r3, r3, #1
 305 0072 0321     		movs	r1, #3
 306 0074 01FA03F3 		lsl	r3, r1, r3
 307 0078 22EA0303 		bic	r3, r2, r3
 308              	.LVL21:
 309              	.LBB795:
 310              	.LBI795:
 373:Drivers/CMSIS/Include/cmsis_gcc.h **** {
 311              		.loc 4 373 31 is_stmt 1 view .LVU69
 312              	.LBB796:
 375:Drivers/CMSIS/Include/cmsis_gcc.h **** 
 313              		.loc 4 375 3 view .LVU70
 380:Drivers/CMSIS/Include/cmsis_gcc.h **** #else
 314              		.loc 4 380 4 view .LVU71
 393:Drivers/CMSIS/Include/cmsis_gcc.h **** }
 315              		.loc 4 393 3 view .LVU72
 393:Drivers/CMSIS/Include/cmsis_gcc.h **** }
 316              		.loc 4 393 3 is_stmt 0 view .LVU73
 317              	.LBE796:
 318              	.LBE795:
 319              	.LBE789:
 320              	.LBE788:
 414:Drivers/CMSIS/Include/cmsis_gcc.h ****   {
 321              		.loc 4 414 3 is_stmt 1 view .LVU74
 322              	.LBB800:
 323              	.LBB798:
 324              		.loc 3 415 3 is_stmt 0 view .LVU75
 325 007c A34A     		ldr	r2, .L76+8
 326 007e 9360     		str	r3, [r2, #8]
 327              	.LVL22:
 328              		.loc 3 415 3 view .LVU76
 329              	.LBE798:
 330              	.LBE800:
  94:Core/Src/Darin3Cart_Driver.c ****     LL_GPIO_SetPinPull(GPIOE, M_D0, LL_GPIO_PULL_NO);
 331              		.loc 1 94 5 is_stmt 1 view .LVU77
 332 0080 A14B     		ldr	r3, .L76+4
 333 0082 1B88     		ldrh	r3, [r3]
 334              	.LVL23:
 335              	.LBB801:
 336              	.LBI801:
 416:Drivers/STM32F4xx_HAL_Driver/Inc/stm32f4xx_ll_gpio.h ****              (Speed << (POSITION_VAL(Pin) * 2U)));
 417:Drivers/STM32F4xx_HAL_Driver/Inc/stm32f4xx_ll_gpio.h **** }
 418:Drivers/STM32F4xx_HAL_Driver/Inc/stm32f4xx_ll_gpio.h **** 
 419:Drivers/STM32F4xx_HAL_Driver/Inc/stm32f4xx_ll_gpio.h **** /**
 420:Drivers/STM32F4xx_HAL_Driver/Inc/stm32f4xx_ll_gpio.h ****   * @brief  Return gpio speed for a dedicated pin on dedicated port.
 421:Drivers/STM32F4xx_HAL_Driver/Inc/stm32f4xx_ll_gpio.h ****   * @note   I/O speed can be Low, Medium, Fast or High speed.
 422:Drivers/STM32F4xx_HAL_Driver/Inc/stm32f4xx_ll_gpio.h ****   * @note   Warning: only one pin can be passed as parameter.
 423:Drivers/STM32F4xx_HAL_Driver/Inc/stm32f4xx_ll_gpio.h ****   * @note   Refer to datasheet for frequency specifications and the power
 424:Drivers/STM32F4xx_HAL_Driver/Inc/stm32f4xx_ll_gpio.h ****   *         supply and load conditions for each speed.
 425:Drivers/STM32F4xx_HAL_Driver/Inc/stm32f4xx_ll_gpio.h ****   * @rmtoll OSPEEDR      OSPEEDy       LL_GPIO_GetPinSpeed
 426:Drivers/STM32F4xx_HAL_Driver/Inc/stm32f4xx_ll_gpio.h ****   * @param  GPIOx GPIO Port
 427:Drivers/STM32F4xx_HAL_Driver/Inc/stm32f4xx_ll_gpio.h ****   * @param  Pin This parameter can be one of the following values:
 428:Drivers/STM32F4xx_HAL_Driver/Inc/stm32f4xx_ll_gpio.h ****   *         @arg @ref LL_GPIO_PIN_0
 429:Drivers/STM32F4xx_HAL_Driver/Inc/stm32f4xx_ll_gpio.h ****   *         @arg @ref LL_GPIO_PIN_1
 430:Drivers/STM32F4xx_HAL_Driver/Inc/stm32f4xx_ll_gpio.h ****   *         @arg @ref LL_GPIO_PIN_2
 431:Drivers/STM32F4xx_HAL_Driver/Inc/stm32f4xx_ll_gpio.h ****   *         @arg @ref LL_GPIO_PIN_3
 432:Drivers/STM32F4xx_HAL_Driver/Inc/stm32f4xx_ll_gpio.h ****   *         @arg @ref LL_GPIO_PIN_4
ARM GAS  C:\Users\HP-Admin\AppData\Local\Temp\ccssVuiz.s 			page 31


 433:Drivers/STM32F4xx_HAL_Driver/Inc/stm32f4xx_ll_gpio.h ****   *         @arg @ref LL_GPIO_PIN_5
 434:Drivers/STM32F4xx_HAL_Driver/Inc/stm32f4xx_ll_gpio.h ****   *         @arg @ref LL_GPIO_PIN_6
 435:Drivers/STM32F4xx_HAL_Driver/Inc/stm32f4xx_ll_gpio.h ****   *         @arg @ref LL_GPIO_PIN_7
 436:Drivers/STM32F4xx_HAL_Driver/Inc/stm32f4xx_ll_gpio.h ****   *         @arg @ref LL_GPIO_PIN_8
 437:Drivers/STM32F4xx_HAL_Driver/Inc/stm32f4xx_ll_gpio.h ****   *         @arg @ref LL_GPIO_PIN_9
 438:Drivers/STM32F4xx_HAL_Driver/Inc/stm32f4xx_ll_gpio.h ****   *         @arg @ref LL_GPIO_PIN_10
 439:Drivers/STM32F4xx_HAL_Driver/Inc/stm32f4xx_ll_gpio.h ****   *         @arg @ref LL_GPIO_PIN_11
 440:Drivers/STM32F4xx_HAL_Driver/Inc/stm32f4xx_ll_gpio.h ****   *         @arg @ref LL_GPIO_PIN_12
 441:Drivers/STM32F4xx_HAL_Driver/Inc/stm32f4xx_ll_gpio.h ****   *         @arg @ref LL_GPIO_PIN_13
 442:Drivers/STM32F4xx_HAL_Driver/Inc/stm32f4xx_ll_gpio.h ****   *         @arg @ref LL_GPIO_PIN_14
 443:Drivers/STM32F4xx_HAL_Driver/Inc/stm32f4xx_ll_gpio.h ****   *         @arg @ref LL_GPIO_PIN_15
 444:Drivers/STM32F4xx_HAL_Driver/Inc/stm32f4xx_ll_gpio.h ****   * @retval Returned value can be one of the following values:
 445:Drivers/STM32F4xx_HAL_Driver/Inc/stm32f4xx_ll_gpio.h ****   *         @arg @ref LL_GPIO_SPEED_FREQ_LOW
 446:Drivers/STM32F4xx_HAL_Driver/Inc/stm32f4xx_ll_gpio.h ****   *         @arg @ref LL_GPIO_SPEED_FREQ_MEDIUM
 447:Drivers/STM32F4xx_HAL_Driver/Inc/stm32f4xx_ll_gpio.h ****   *         @arg @ref LL_GPIO_SPEED_FREQ_HIGH
 448:Drivers/STM32F4xx_HAL_Driver/Inc/stm32f4xx_ll_gpio.h ****   *         @arg @ref LL_GPIO_SPEED_FREQ_VERY_HIGH
 449:Drivers/STM32F4xx_HAL_Driver/Inc/stm32f4xx_ll_gpio.h ****   */
 450:Drivers/STM32F4xx_HAL_Driver/Inc/stm32f4xx_ll_gpio.h **** __STATIC_INLINE uint32_t LL_GPIO_GetPinSpeed(GPIO_TypeDef *GPIOx, uint32_t Pin)
 451:Drivers/STM32F4xx_HAL_Driver/Inc/stm32f4xx_ll_gpio.h **** {
 452:Drivers/STM32F4xx_HAL_Driver/Inc/stm32f4xx_ll_gpio.h ****   return (uint32_t)(READ_BIT(GPIOx->OSPEEDR,
 453:Drivers/STM32F4xx_HAL_Driver/Inc/stm32f4xx_ll_gpio.h ****                              (GPIO_OSPEEDER_OSPEEDR0 << (POSITION_VAL(Pin) * 2U))) >> (POSITION_VAL
 454:Drivers/STM32F4xx_HAL_Driver/Inc/stm32f4xx_ll_gpio.h **** }
 455:Drivers/STM32F4xx_HAL_Driver/Inc/stm32f4xx_ll_gpio.h **** 
 456:Drivers/STM32F4xx_HAL_Driver/Inc/stm32f4xx_ll_gpio.h **** /**
 457:Drivers/STM32F4xx_HAL_Driver/Inc/stm32f4xx_ll_gpio.h ****   * @brief  Configure gpio pull-up or pull-down for a dedicated pin on a dedicated port.
 458:Drivers/STM32F4xx_HAL_Driver/Inc/stm32f4xx_ll_gpio.h ****   * @note   Warning: only one pin can be passed as parameter.
 459:Drivers/STM32F4xx_HAL_Driver/Inc/stm32f4xx_ll_gpio.h ****   * @rmtoll PUPDR        PUPDy         LL_GPIO_SetPinPull
 460:Drivers/STM32F4xx_HAL_Driver/Inc/stm32f4xx_ll_gpio.h ****   * @param  GPIOx GPIO Port
 461:Drivers/STM32F4xx_HAL_Driver/Inc/stm32f4xx_ll_gpio.h ****   * @param  Pin This parameter can be one of the following values:
 462:Drivers/STM32F4xx_HAL_Driver/Inc/stm32f4xx_ll_gpio.h ****   *         @arg @ref LL_GPIO_PIN_0
 463:Drivers/STM32F4xx_HAL_Driver/Inc/stm32f4xx_ll_gpio.h ****   *         @arg @ref LL_GPIO_PIN_1
 464:Drivers/STM32F4xx_HAL_Driver/Inc/stm32f4xx_ll_gpio.h ****   *         @arg @ref LL_GPIO_PIN_2
 465:Drivers/STM32F4xx_HAL_Driver/Inc/stm32f4xx_ll_gpio.h ****   *         @arg @ref LL_GPIO_PIN_3
 466:Drivers/STM32F4xx_HAL_Driver/Inc/stm32f4xx_ll_gpio.h ****   *         @arg @ref LL_GPIO_PIN_4
 467:Drivers/STM32F4xx_HAL_Driver/Inc/stm32f4xx_ll_gpio.h ****   *         @arg @ref LL_GPIO_PIN_5
 468:Drivers/STM32F4xx_HAL_Driver/Inc/stm32f4xx_ll_gpio.h ****   *         @arg @ref LL_GPIO_PIN_6
 469:Drivers/STM32F4xx_HAL_Driver/Inc/stm32f4xx_ll_gpio.h ****   *         @arg @ref LL_GPIO_PIN_7
 470:Drivers/STM32F4xx_HAL_Driver/Inc/stm32f4xx_ll_gpio.h ****   *         @arg @ref LL_GPIO_PIN_8
 471:Drivers/STM32F4xx_HAL_Driver/Inc/stm32f4xx_ll_gpio.h ****   *         @arg @ref LL_GPIO_PIN_9
 472:Drivers/STM32F4xx_HAL_Driver/Inc/stm32f4xx_ll_gpio.h ****   *         @arg @ref LL_GPIO_PIN_10
 473:Drivers/STM32F4xx_HAL_Driver/Inc/stm32f4xx_ll_gpio.h ****   *         @arg @ref LL_GPIO_PIN_11
 474:Drivers/STM32F4xx_HAL_Driver/Inc/stm32f4xx_ll_gpio.h ****   *         @arg @ref LL_GPIO_PIN_12
 475:Drivers/STM32F4xx_HAL_Driver/Inc/stm32f4xx_ll_gpio.h ****   *         @arg @ref LL_GPIO_PIN_13
 476:Drivers/STM32F4xx_HAL_Driver/Inc/stm32f4xx_ll_gpio.h ****   *         @arg @ref LL_GPIO_PIN_14
 477:Drivers/STM32F4xx_HAL_Driver/Inc/stm32f4xx_ll_gpio.h ****   *         @arg @ref LL_GPIO_PIN_15
 478:Drivers/STM32F4xx_HAL_Driver/Inc/stm32f4xx_ll_gpio.h ****   * @param  Pull This parameter can be one of the following values:
 479:Drivers/STM32F4xx_HAL_Driver/Inc/stm32f4xx_ll_gpio.h ****   *         @arg @ref LL_GPIO_PULL_NO
 480:Drivers/STM32F4xx_HAL_Driver/Inc/stm32f4xx_ll_gpio.h ****   *         @arg @ref LL_GPIO_PULL_UP
 481:Drivers/STM32F4xx_HAL_Driver/Inc/stm32f4xx_ll_gpio.h ****   *         @arg @ref LL_GPIO_PULL_DOWN
 482:Drivers/STM32F4xx_HAL_Driver/Inc/stm32f4xx_ll_gpio.h ****   * @retval None
 483:Drivers/STM32F4xx_HAL_Driver/Inc/stm32f4xx_ll_gpio.h ****   */
 484:Drivers/STM32F4xx_HAL_Driver/Inc/stm32f4xx_ll_gpio.h **** __STATIC_INLINE void LL_GPIO_SetPinPull(GPIO_TypeDef *GPIOx, uint32_t Pin, uint32_t Pull)
 337              		.loc 3 484 22 view .LVU78
 338              	.LBB802:
 485:Drivers/STM32F4xx_HAL_Driver/Inc/stm32f4xx_ll_gpio.h **** {
 486:Drivers/STM32F4xx_HAL_Driver/Inc/stm32f4xx_ll_gpio.h ****   MODIFY_REG(GPIOx->PUPDR, (GPIO_PUPDR_PUPDR0 << (POSITION_VAL(Pin) * 2U)), (Pull << (POSITION_VAL(
 339              		.loc 3 486 3 view .LVU79
ARM GAS  C:\Users\HP-Admin\AppData\Local\Temp\ccssVuiz.s 			page 32


 340 0084 D268     		ldr	r2, [r2, #12]
 341              	.LVL24:
 342              	.LBB803:
 343              	.LBI803:
 373:Drivers/CMSIS/Include/cmsis_gcc.h **** {
 344              		.loc 4 373 31 view .LVU80
 345              	.LBB804:
 375:Drivers/CMSIS/Include/cmsis_gcc.h **** 
 346              		.loc 4 375 3 view .LVU81
 380:Drivers/CMSIS/Include/cmsis_gcc.h **** #else
 347              		.loc 4 380 4 view .LVU82
 348              		.syntax unified
 349              	@ 380 "Drivers/CMSIS/Include/cmsis_gcc.h" 1
 350 0086 93FAA3F3 		rbit r3, r3
 351              	@ 0 "" 2
 352              	.LVL25:
 393:Drivers/CMSIS/Include/cmsis_gcc.h **** }
 353              		.loc 4 393 3 view .LVU83
 393:Drivers/CMSIS/Include/cmsis_gcc.h **** }
 354              		.loc 4 393 3 is_stmt 0 view .LVU84
 355              		.thumb
 356              		.syntax unified
 357              	.LBE804:
 358              	.LBE803:
 359              	.LBB805:
 360              	.LBI805:
 403:Drivers/CMSIS/Include/cmsis_gcc.h **** {
 361              		.loc 4 403 30 is_stmt 1 view .LVU85
 362              	.LBB806:
 414:Drivers/CMSIS/Include/cmsis_gcc.h ****   {
 363              		.loc 4 414 3 view .LVU86
 414:Drivers/CMSIS/Include/cmsis_gcc.h ****   {
 364              		.loc 4 414 6 is_stmt 0 view .LVU87
 365 008a 002B     		cmp	r3, #0
 366 008c 00F00982 		beq	.L46
 367              		.loc 4 418 3 is_stmt 1 view .LVU88
 368              		.loc 4 418 10 is_stmt 0 view .LVU89
 369 0090 B3FA83F3 		clz	r3, r3
 370              	.LVL26:
 371              	.L14:
 372              		.loc 4 418 10 view .LVU90
 373              	.LBE806:
 374              	.LBE805:
 375              		.loc 3 486 3 view .LVU91
 376 0094 5B00     		lsls	r3, r3, #1
 377 0096 0321     		movs	r1, #3
 378 0098 01FA03F3 		lsl	r3, r1, r3
 379 009c 22EA0303 		bic	r3, r2, r3
 380              	.LVL27:
 381              	.LBB808:
 382              	.LBI808:
 373:Drivers/CMSIS/Include/cmsis_gcc.h **** {
 383              		.loc 4 373 31 is_stmt 1 view .LVU92
 384              	.LBB809:
 375:Drivers/CMSIS/Include/cmsis_gcc.h **** 
 385              		.loc 4 375 3 view .LVU93
 380:Drivers/CMSIS/Include/cmsis_gcc.h **** #else
ARM GAS  C:\Users\HP-Admin\AppData\Local\Temp\ccssVuiz.s 			page 33


 386              		.loc 4 380 4 view .LVU94
 393:Drivers/CMSIS/Include/cmsis_gcc.h **** }
 387              		.loc 4 393 3 view .LVU95
 393:Drivers/CMSIS/Include/cmsis_gcc.h **** }
 388              		.loc 4 393 3 is_stmt 0 view .LVU96
 389              	.LBE809:
 390              	.LBE808:
 391              	.LBE802:
 392              	.LBE801:
 414:Drivers/CMSIS/Include/cmsis_gcc.h ****   {
 393              		.loc 4 414 3 is_stmt 1 view .LVU97
 394              	.LBB813:
 395              	.LBB811:
 396              		.loc 3 486 3 is_stmt 0 view .LVU98
 397 00a0 9A4A     		ldr	r2, .L76+8
 398 00a2 D360     		str	r3, [r2, #12]
 399              	.LVL28:
 400              		.loc 3 486 3 view .LVU99
 401              	.LBE811:
 402              	.LBE813:
  95:Core/Src/Darin3Cart_Driver.c **** 
  96:Core/Src/Darin3Cart_Driver.c ****     LL_GPIO_SetPinMode(GPIOE, M_D1, LL_GPIO_MODE_OUTPUT);
 403              		.loc 1 96 5 is_stmt 1 view .LVU100
 404 00a4 9A4B     		ldr	r3, .L76+12
 405 00a6 1B88     		ldrh	r3, [r3]
 406              	.LVL29:
 407              	.LBB814:
 408              	.LBI814:
 273:Drivers/STM32F4xx_HAL_Driver/Inc/stm32f4xx_ll_gpio.h **** {
 409              		.loc 3 273 22 view .LVU101
 410              	.LBB815:
 275:Drivers/STM32F4xx_HAL_Driver/Inc/stm32f4xx_ll_gpio.h **** }
 411              		.loc 3 275 3 view .LVU102
 412 00a8 1168     		ldr	r1, [r2]
 413              	.LVL30:
 414              	.LBB816:
 415              	.LBI816:
 373:Drivers/CMSIS/Include/cmsis_gcc.h **** {
 416              		.loc 4 373 31 view .LVU103
 417              	.LBB817:
 375:Drivers/CMSIS/Include/cmsis_gcc.h **** 
 418              		.loc 4 375 3 view .LVU104
 380:Drivers/CMSIS/Include/cmsis_gcc.h **** #else
 419              		.loc 4 380 4 view .LVU105
 420              		.syntax unified
 421              	@ 380 "Drivers/CMSIS/Include/cmsis_gcc.h" 1
 422 00aa 93FAA3F2 		rbit r2, r3
 423              	@ 0 "" 2
 424              	.LVL31:
 393:Drivers/CMSIS/Include/cmsis_gcc.h **** }
 425              		.loc 4 393 3 view .LVU106
 393:Drivers/CMSIS/Include/cmsis_gcc.h **** }
 426              		.loc 4 393 3 is_stmt 0 view .LVU107
 427              		.thumb
 428              		.syntax unified
 429              	.LBE817:
 430              	.LBE816:
ARM GAS  C:\Users\HP-Admin\AppData\Local\Temp\ccssVuiz.s 			page 34


 431              	.LBB818:
 432              	.LBI818:
 403:Drivers/CMSIS/Include/cmsis_gcc.h **** {
 433              		.loc 4 403 30 is_stmt 1 view .LVU108
 434              	.LBB819:
 414:Drivers/CMSIS/Include/cmsis_gcc.h ****   {
 435              		.loc 4 414 3 view .LVU109
 414:Drivers/CMSIS/Include/cmsis_gcc.h ****   {
 436              		.loc 4 414 6 is_stmt 0 view .LVU110
 437 00ae 002A     		cmp	r2, #0
 438 00b0 00F0F981 		beq	.L47
 439              		.loc 4 418 3 is_stmt 1 view .LVU111
 440              		.loc 4 418 10 is_stmt 0 view .LVU112
 441 00b4 B2FA82F2 		clz	r2, r2
 442              	.LVL32:
 443              	.L15:
 444              		.loc 4 418 10 view .LVU113
 445              	.LBE819:
 446              	.LBE818:
 275:Drivers/STM32F4xx_HAL_Driver/Inc/stm32f4xx_ll_gpio.h **** }
 447              		.loc 3 275 3 view .LVU114
 448 00b8 5200     		lsls	r2, r2, #1
 449 00ba 0320     		movs	r0, #3
 450 00bc 00FA02F2 		lsl	r2, r0, r2
 451 00c0 21EA0202 		bic	r2, r1, r2
 452              	.LVL33:
 453              	.LBB821:
 454              	.LBI821:
 373:Drivers/CMSIS/Include/cmsis_gcc.h **** {
 455              		.loc 4 373 31 is_stmt 1 view .LVU115
 456              	.LBB822:
 375:Drivers/CMSIS/Include/cmsis_gcc.h **** 
 457              		.loc 4 375 3 view .LVU116
 380:Drivers/CMSIS/Include/cmsis_gcc.h **** #else
 458              		.loc 4 380 4 view .LVU117
 459              		.syntax unified
 460              	@ 380 "Drivers/CMSIS/Include/cmsis_gcc.h" 1
 461 00c4 93FAA3F3 		rbit r3, r3
 462              	@ 0 "" 2
 463              	.LVL34:
 393:Drivers/CMSIS/Include/cmsis_gcc.h **** }
 464              		.loc 4 393 3 view .LVU118
 393:Drivers/CMSIS/Include/cmsis_gcc.h **** }
 465              		.loc 4 393 3 is_stmt 0 view .LVU119
 466              		.thumb
 467              		.syntax unified
 468              	.LBE822:
 469              	.LBE821:
 470              	.LBB823:
 471              	.LBI823:
 403:Drivers/CMSIS/Include/cmsis_gcc.h **** {
 472              		.loc 4 403 30 is_stmt 1 view .LVU120
 473              	.LBB824:
 414:Drivers/CMSIS/Include/cmsis_gcc.h ****   {
 474              		.loc 4 414 3 view .LVU121
 414:Drivers/CMSIS/Include/cmsis_gcc.h ****   {
 475              		.loc 4 414 6 is_stmt 0 view .LVU122
ARM GAS  C:\Users\HP-Admin\AppData\Local\Temp\ccssVuiz.s 			page 35


 476 00c8 002B     		cmp	r3, #0
 477 00ca 00F0EE81 		beq	.L48
 478              		.loc 4 418 3 is_stmt 1 view .LVU123
 479              		.loc 4 418 10 is_stmt 0 view .LVU124
 480 00ce B3FA83F3 		clz	r3, r3
 481              	.LVL35:
 482              	.L16:
 483              		.loc 4 418 10 view .LVU125
 484              	.LBE824:
 485              	.LBE823:
 275:Drivers/STM32F4xx_HAL_Driver/Inc/stm32f4xx_ll_gpio.h **** }
 486              		.loc 3 275 3 view .LVU126
 487 00d2 5B00     		lsls	r3, r3, #1
 488 00d4 0121     		movs	r1, #1
 489 00d6 01FA03F3 		lsl	r3, r1, r3
 490 00da 1343     		orrs	r3, r3, r2
 491 00dc 8B4A     		ldr	r2, .L76+8
 492 00de 1360     		str	r3, [r2]
 493              	.LVL36:
 275:Drivers/STM32F4xx_HAL_Driver/Inc/stm32f4xx_ll_gpio.h **** }
 494              		.loc 3 275 3 view .LVU127
 495              	.LBE815:
 496              	.LBE814:
  97:Core/Src/Darin3Cart_Driver.c ****     LL_GPIO_SetPinOutputType(GPIOE, M_D1, LL_GPIO_OUTPUT_PUSHPULL);
 497              		.loc 1 97 5 is_stmt 1 view .LVU128
 498 00e0 8B4B     		ldr	r3, .L76+12
 499 00e2 1B88     		ldrh	r3, [r3]
 500              	.LVL37:
 501              	.LBB829:
 502              	.LBI829:
 342:Drivers/STM32F4xx_HAL_Driver/Inc/stm32f4xx_ll_gpio.h **** {
 503              		.loc 3 342 22 view .LVU129
 504              	.LBB830:
 344:Drivers/STM32F4xx_HAL_Driver/Inc/stm32f4xx_ll_gpio.h **** }
 505              		.loc 3 344 3 view .LVU130
 506 00e4 5168     		ldr	r1, [r2, #4]
 507 00e6 21EA0301 		bic	r1, r1, r3
 508 00ea 5160     		str	r1, [r2, #4]
 509              	.LVL38:
 344:Drivers/STM32F4xx_HAL_Driver/Inc/stm32f4xx_ll_gpio.h **** }
 510              		.loc 3 344 3 is_stmt 0 view .LVU131
 511              	.LBE830:
 512              	.LBE829:
  98:Core/Src/Darin3Cart_Driver.c ****     LL_GPIO_SetPinSpeed(GPIOE, M_D1, LL_GPIO_SPEED_FREQ_LOW);
 513              		.loc 1 98 5 is_stmt 1 view .LVU132
 514              	.LBB831:
 515              	.LBI831:
 413:Drivers/STM32F4xx_HAL_Driver/Inc/stm32f4xx_ll_gpio.h **** {
 516              		.loc 3 413 22 view .LVU133
 517              	.LBB832:
 415:Drivers/STM32F4xx_HAL_Driver/Inc/stm32f4xx_ll_gpio.h ****              (Speed << (POSITION_VAL(Pin) * 2U)));
 518              		.loc 3 415 3 view .LVU134
 519 00ec 9268     		ldr	r2, [r2, #8]
 520              	.LVL39:
 521              	.LBB833:
 522              	.LBI833:
 373:Drivers/CMSIS/Include/cmsis_gcc.h **** {
ARM GAS  C:\Users\HP-Admin\AppData\Local\Temp\ccssVuiz.s 			page 36


 523              		.loc 4 373 31 view .LVU135
 524              	.LBB834:
 375:Drivers/CMSIS/Include/cmsis_gcc.h **** 
 525              		.loc 4 375 3 view .LVU136
 380:Drivers/CMSIS/Include/cmsis_gcc.h **** #else
 526              		.loc 4 380 4 view .LVU137
 527              		.syntax unified
 528              	@ 380 "Drivers/CMSIS/Include/cmsis_gcc.h" 1
 529 00ee 93FAA3F3 		rbit r3, r3
 530              	@ 0 "" 2
 531              	.LVL40:
 393:Drivers/CMSIS/Include/cmsis_gcc.h **** }
 532              		.loc 4 393 3 view .LVU138
 393:Drivers/CMSIS/Include/cmsis_gcc.h **** }
 533              		.loc 4 393 3 is_stmt 0 view .LVU139
 534              		.thumb
 535              		.syntax unified
 536              	.LBE834:
 537              	.LBE833:
 538              	.LBB835:
 539              	.LBI835:
 403:Drivers/CMSIS/Include/cmsis_gcc.h **** {
 540              		.loc 4 403 30 is_stmt 1 view .LVU140
 541              	.LBB836:
 414:Drivers/CMSIS/Include/cmsis_gcc.h ****   {
 542              		.loc 4 414 3 view .LVU141
 414:Drivers/CMSIS/Include/cmsis_gcc.h ****   {
 543              		.loc 4 414 6 is_stmt 0 view .LVU142
 544 00f2 002B     		cmp	r3, #0
 545 00f4 00F0DB81 		beq	.L49
 546              		.loc 4 418 3 is_stmt 1 view .LVU143
 547              		.loc 4 418 10 is_stmt 0 view .LVU144
 548 00f8 B3FA83F3 		clz	r3, r3
 549              	.LVL41:
 550              	.L17:
 551              		.loc 4 418 10 view .LVU145
 552              	.LBE836:
 553              	.LBE835:
 415:Drivers/STM32F4xx_HAL_Driver/Inc/stm32f4xx_ll_gpio.h ****              (Speed << (POSITION_VAL(Pin) * 2U)));
 554              		.loc 3 415 3 view .LVU146
 555 00fc 5B00     		lsls	r3, r3, #1
 556 00fe 0321     		movs	r1, #3
 557 0100 01FA03F3 		lsl	r3, r1, r3
 558 0104 22EA0303 		bic	r3, r2, r3
 559              	.LVL42:
 560              	.LBB838:
 561              	.LBI838:
 373:Drivers/CMSIS/Include/cmsis_gcc.h **** {
 562              		.loc 4 373 31 is_stmt 1 view .LVU147
 563              	.LBB839:
 375:Drivers/CMSIS/Include/cmsis_gcc.h **** 
 564              		.loc 4 375 3 view .LVU148
 380:Drivers/CMSIS/Include/cmsis_gcc.h **** #else
 565              		.loc 4 380 4 view .LVU149
 393:Drivers/CMSIS/Include/cmsis_gcc.h **** }
 566              		.loc 4 393 3 view .LVU150
 393:Drivers/CMSIS/Include/cmsis_gcc.h **** }
ARM GAS  C:\Users\HP-Admin\AppData\Local\Temp\ccssVuiz.s 			page 37


 567              		.loc 4 393 3 is_stmt 0 view .LVU151
 568              	.LBE839:
 569              	.LBE838:
 570              	.LBE832:
 571              	.LBE831:
 414:Drivers/CMSIS/Include/cmsis_gcc.h ****   {
 572              		.loc 4 414 3 is_stmt 1 view .LVU152
 573              	.LBB843:
 574              	.LBB841:
 415:Drivers/STM32F4xx_HAL_Driver/Inc/stm32f4xx_ll_gpio.h ****              (Speed << (POSITION_VAL(Pin) * 2U)));
 575              		.loc 3 415 3 is_stmt 0 view .LVU153
 576 0108 804A     		ldr	r2, .L76+8
 577 010a 9360     		str	r3, [r2, #8]
 578              	.LVL43:
 415:Drivers/STM32F4xx_HAL_Driver/Inc/stm32f4xx_ll_gpio.h ****              (Speed << (POSITION_VAL(Pin) * 2U)));
 579              		.loc 3 415 3 view .LVU154
 580              	.LBE841:
 581              	.LBE843:
  99:Core/Src/Darin3Cart_Driver.c ****     LL_GPIO_SetPinPull(GPIOE, M_D1, LL_GPIO_PULL_NO);
 582              		.loc 1 99 5 is_stmt 1 view .LVU155
 583 010c 804B     		ldr	r3, .L76+12
 584 010e 1B88     		ldrh	r3, [r3]
 585              	.LVL44:
 586              	.LBB844:
 587              	.LBI844:
 484:Drivers/STM32F4xx_HAL_Driver/Inc/stm32f4xx_ll_gpio.h **** {
 588              		.loc 3 484 22 view .LVU156
 589              	.LBB845:
 590              		.loc 3 486 3 view .LVU157
 591 0110 D268     		ldr	r2, [r2, #12]
 592              	.LVL45:
 593              	.LBB846:
 594              	.LBI846:
 373:Drivers/CMSIS/Include/cmsis_gcc.h **** {
 595              		.loc 4 373 31 view .LVU158
 596              	.LBB847:
 375:Drivers/CMSIS/Include/cmsis_gcc.h **** 
 597              		.loc 4 375 3 view .LVU159
 380:Drivers/CMSIS/Include/cmsis_gcc.h **** #else
 598              		.loc 4 380 4 view .LVU160
 599              		.syntax unified
 600              	@ 380 "Drivers/CMSIS/Include/cmsis_gcc.h" 1
 601 0112 93FAA3F3 		rbit r3, r3
 602              	@ 0 "" 2
 603              	.LVL46:
 393:Drivers/CMSIS/Include/cmsis_gcc.h **** }
 604              		.loc 4 393 3 view .LVU161
 393:Drivers/CMSIS/Include/cmsis_gcc.h **** }
 605              		.loc 4 393 3 is_stmt 0 view .LVU162
 606              		.thumb
 607              		.syntax unified
 608              	.LBE847:
 609              	.LBE846:
 610              	.LBB848:
 611              	.LBI848:
 403:Drivers/CMSIS/Include/cmsis_gcc.h **** {
 612              		.loc 4 403 30 is_stmt 1 view .LVU163
ARM GAS  C:\Users\HP-Admin\AppData\Local\Temp\ccssVuiz.s 			page 38


 613              	.LBB849:
 414:Drivers/CMSIS/Include/cmsis_gcc.h ****   {
 614              		.loc 4 414 3 view .LVU164
 414:Drivers/CMSIS/Include/cmsis_gcc.h ****   {
 615              		.loc 4 414 6 is_stmt 0 view .LVU165
 616 0116 002B     		cmp	r3, #0
 617 0118 00F0CB81 		beq	.L50
 618              		.loc 4 418 3 is_stmt 1 view .LVU166
 619              		.loc 4 418 10 is_stmt 0 view .LVU167
 620 011c B3FA83F3 		clz	r3, r3
 621              	.LVL47:
 622              	.L18:
 623              		.loc 4 418 10 view .LVU168
 624              	.LBE849:
 625              	.LBE848:
 626              		.loc 3 486 3 view .LVU169
 627 0120 5B00     		lsls	r3, r3, #1
 628 0122 0321     		movs	r1, #3
 629 0124 01FA03F3 		lsl	r3, r1, r3
 630 0128 22EA0303 		bic	r3, r2, r3
 631              	.LVL48:
 632              	.LBB851:
 633              	.LBI851:
 373:Drivers/CMSIS/Include/cmsis_gcc.h **** {
 634              		.loc 4 373 31 is_stmt 1 view .LVU170
 635              	.LBB852:
 375:Drivers/CMSIS/Include/cmsis_gcc.h **** 
 636              		.loc 4 375 3 view .LVU171
 380:Drivers/CMSIS/Include/cmsis_gcc.h **** #else
 637              		.loc 4 380 4 view .LVU172
 393:Drivers/CMSIS/Include/cmsis_gcc.h **** }
 638              		.loc 4 393 3 view .LVU173
 393:Drivers/CMSIS/Include/cmsis_gcc.h **** }
 639              		.loc 4 393 3 is_stmt 0 view .LVU174
 640              	.LBE852:
 641              	.LBE851:
 642              	.LBE845:
 643              	.LBE844:
 414:Drivers/CMSIS/Include/cmsis_gcc.h ****   {
 644              		.loc 4 414 3 is_stmt 1 view .LVU175
 645              	.LBB856:
 646              	.LBB854:
 647              		.loc 3 486 3 is_stmt 0 view .LVU176
 648 012c 774A     		ldr	r2, .L76+8
 649 012e D360     		str	r3, [r2, #12]
 650              	.LVL49:
 651              		.loc 3 486 3 view .LVU177
 652              	.LBE854:
 653              	.LBE856:
 100:Core/Src/Darin3Cart_Driver.c **** 
 101:Core/Src/Darin3Cart_Driver.c ****     LL_GPIO_SetPinMode(GPIOE, M_D2, LL_GPIO_MODE_OUTPUT);
 654              		.loc 1 101 5 is_stmt 1 view .LVU178
 655 0130 784B     		ldr	r3, .L76+16
 656 0132 1B88     		ldrh	r3, [r3]
 657              	.LVL50:
 658              	.LBB857:
 659              	.LBI857:
ARM GAS  C:\Users\HP-Admin\AppData\Local\Temp\ccssVuiz.s 			page 39


 273:Drivers/STM32F4xx_HAL_Driver/Inc/stm32f4xx_ll_gpio.h **** {
 660              		.loc 3 273 22 view .LVU179
 661              	.LBB858:
 275:Drivers/STM32F4xx_HAL_Driver/Inc/stm32f4xx_ll_gpio.h **** }
 662              		.loc 3 275 3 view .LVU180
 663 0134 1168     		ldr	r1, [r2]
 664              	.LVL51:
 665              	.LBB859:
 666              	.LBI859:
 373:Drivers/CMSIS/Include/cmsis_gcc.h **** {
 667              		.loc 4 373 31 view .LVU181
 668              	.LBB860:
 375:Drivers/CMSIS/Include/cmsis_gcc.h **** 
 669              		.loc 4 375 3 view .LVU182
 380:Drivers/CMSIS/Include/cmsis_gcc.h **** #else
 670              		.loc 4 380 4 view .LVU183
 671              		.syntax unified
 672              	@ 380 "Drivers/CMSIS/Include/cmsis_gcc.h" 1
 673 0136 93FAA3F2 		rbit r2, r3
 674              	@ 0 "" 2
 675              	.LVL52:
 393:Drivers/CMSIS/Include/cmsis_gcc.h **** }
 676              		.loc 4 393 3 view .LVU184
 393:Drivers/CMSIS/Include/cmsis_gcc.h **** }
 677              		.loc 4 393 3 is_stmt 0 view .LVU185
 678              		.thumb
 679              		.syntax unified
 680              	.LBE860:
 681              	.LBE859:
 682              	.LBB861:
 683              	.LBI861:
 403:Drivers/CMSIS/Include/cmsis_gcc.h **** {
 684              		.loc 4 403 30 is_stmt 1 view .LVU186
 685              	.LBB862:
 414:Drivers/CMSIS/Include/cmsis_gcc.h ****   {
 686              		.loc 4 414 3 view .LVU187
 414:Drivers/CMSIS/Include/cmsis_gcc.h ****   {
 687              		.loc 4 414 6 is_stmt 0 view .LVU188
 688 013a 002A     		cmp	r2, #0
 689 013c 00F0BB81 		beq	.L51
 690              		.loc 4 418 3 is_stmt 1 view .LVU189
 691              		.loc 4 418 10 is_stmt 0 view .LVU190
 692 0140 B2FA82F2 		clz	r2, r2
 693              	.LVL53:
 694              	.L19:
 695              		.loc 4 418 10 view .LVU191
 696              	.LBE862:
 697              	.LBE861:
 275:Drivers/STM32F4xx_HAL_Driver/Inc/stm32f4xx_ll_gpio.h **** }
 698              		.loc 3 275 3 view .LVU192
 699 0144 5200     		lsls	r2, r2, #1
 700 0146 0320     		movs	r0, #3
 701 0148 00FA02F2 		lsl	r2, r0, r2
 702 014c 21EA0202 		bic	r2, r1, r2
 703              	.LVL54:
 704              	.LBB864:
 705              	.LBI864:
ARM GAS  C:\Users\HP-Admin\AppData\Local\Temp\ccssVuiz.s 			page 40


 373:Drivers/CMSIS/Include/cmsis_gcc.h **** {
 706              		.loc 4 373 31 is_stmt 1 view .LVU193
 707              	.LBB865:
 375:Drivers/CMSIS/Include/cmsis_gcc.h **** 
 708              		.loc 4 375 3 view .LVU194
 380:Drivers/CMSIS/Include/cmsis_gcc.h **** #else
 709              		.loc 4 380 4 view .LVU195
 710              		.syntax unified
 711              	@ 380 "Drivers/CMSIS/Include/cmsis_gcc.h" 1
 712 0150 93FAA3F3 		rbit r3, r3
 713              	@ 0 "" 2
 714              	.LVL55:
 393:Drivers/CMSIS/Include/cmsis_gcc.h **** }
 715              		.loc 4 393 3 view .LVU196
 393:Drivers/CMSIS/Include/cmsis_gcc.h **** }
 716              		.loc 4 393 3 is_stmt 0 view .LVU197
 717              		.thumb
 718              		.syntax unified
 719              	.LBE865:
 720              	.LBE864:
 721              	.LBB866:
 722              	.LBI866:
 403:Drivers/CMSIS/Include/cmsis_gcc.h **** {
 723              		.loc 4 403 30 is_stmt 1 view .LVU198
 724              	.LBB867:
 414:Drivers/CMSIS/Include/cmsis_gcc.h ****   {
 725              		.loc 4 414 3 view .LVU199
 414:Drivers/CMSIS/Include/cmsis_gcc.h ****   {
 726              		.loc 4 414 6 is_stmt 0 view .LVU200
 727 0154 002B     		cmp	r3, #0
 728 0156 00F0B081 		beq	.L52
 729              		.loc 4 418 3 is_stmt 1 view .LVU201
 730              		.loc 4 418 10 is_stmt 0 view .LVU202
 731 015a B3FA83F3 		clz	r3, r3
 732              	.LVL56:
 733              	.L20:
 734              		.loc 4 418 10 view .LVU203
 735              	.LBE867:
 736              	.LBE866:
 275:Drivers/STM32F4xx_HAL_Driver/Inc/stm32f4xx_ll_gpio.h **** }
 737              		.loc 3 275 3 view .LVU204
 738 015e 5B00     		lsls	r3, r3, #1
 739 0160 0121     		movs	r1, #1
 740 0162 01FA03F3 		lsl	r3, r1, r3
 741 0166 1343     		orrs	r3, r3, r2
 742 0168 684A     		ldr	r2, .L76+8
 743 016a 1360     		str	r3, [r2]
 744              	.LVL57:
 275:Drivers/STM32F4xx_HAL_Driver/Inc/stm32f4xx_ll_gpio.h **** }
 745              		.loc 3 275 3 view .LVU205
 746              	.LBE858:
 747              	.LBE857:
 102:Core/Src/Darin3Cart_Driver.c ****     LL_GPIO_SetPinOutputType(GPIOE, M_D2, LL_GPIO_OUTPUT_PUSHPULL);
 748              		.loc 1 102 5 is_stmt 1 view .LVU206
 749 016c 694B     		ldr	r3, .L76+16
 750 016e 1B88     		ldrh	r3, [r3]
 751              	.LVL58:
ARM GAS  C:\Users\HP-Admin\AppData\Local\Temp\ccssVuiz.s 			page 41


 752              	.LBB872:
 753              	.LBI872:
 342:Drivers/STM32F4xx_HAL_Driver/Inc/stm32f4xx_ll_gpio.h **** {
 754              		.loc 3 342 22 view .LVU207
 755              	.LBB873:
 344:Drivers/STM32F4xx_HAL_Driver/Inc/stm32f4xx_ll_gpio.h **** }
 756              		.loc 3 344 3 view .LVU208
 757 0170 5168     		ldr	r1, [r2, #4]
 758 0172 21EA0301 		bic	r1, r1, r3
 759 0176 5160     		str	r1, [r2, #4]
 760              	.LVL59:
 344:Drivers/STM32F4xx_HAL_Driver/Inc/stm32f4xx_ll_gpio.h **** }
 761              		.loc 3 344 3 is_stmt 0 view .LVU209
 762              	.LBE873:
 763              	.LBE872:
 103:Core/Src/Darin3Cart_Driver.c ****     LL_GPIO_SetPinSpeed(GPIOE, M_D2, LL_GPIO_SPEED_FREQ_LOW);
 764              		.loc 1 103 5 is_stmt 1 view .LVU210
 765              	.LBB874:
 766              	.LBI874:
 413:Drivers/STM32F4xx_HAL_Driver/Inc/stm32f4xx_ll_gpio.h **** {
 767              		.loc 3 413 22 view .LVU211
 768              	.LBB875:
 415:Drivers/STM32F4xx_HAL_Driver/Inc/stm32f4xx_ll_gpio.h ****              (Speed << (POSITION_VAL(Pin) * 2U)));
 769              		.loc 3 415 3 view .LVU212
 770 0178 9268     		ldr	r2, [r2, #8]
 771              	.LVL60:
 772              	.LBB876:
 773              	.LBI876:
 373:Drivers/CMSIS/Include/cmsis_gcc.h **** {
 774              		.loc 4 373 31 view .LVU213
 775              	.LBB877:
 375:Drivers/CMSIS/Include/cmsis_gcc.h **** 
 776              		.loc 4 375 3 view .LVU214
 380:Drivers/CMSIS/Include/cmsis_gcc.h **** #else
 777              		.loc 4 380 4 view .LVU215
 778              		.syntax unified
 779              	@ 380 "Drivers/CMSIS/Include/cmsis_gcc.h" 1
 780 017a 93FAA3F3 		rbit r3, r3
 781              	@ 0 "" 2
 782              	.LVL61:
 393:Drivers/CMSIS/Include/cmsis_gcc.h **** }
 783              		.loc 4 393 3 view .LVU216
 393:Drivers/CMSIS/Include/cmsis_gcc.h **** }
 784              		.loc 4 393 3 is_stmt 0 view .LVU217
 785              		.thumb
 786              		.syntax unified
 787              	.LBE877:
 788              	.LBE876:
 789              	.LBB878:
 790              	.LBI878:
 403:Drivers/CMSIS/Include/cmsis_gcc.h **** {
 791              		.loc 4 403 30 is_stmt 1 view .LVU218
 792              	.LBB879:
 414:Drivers/CMSIS/Include/cmsis_gcc.h ****   {
 793              		.loc 4 414 3 view .LVU219
 414:Drivers/CMSIS/Include/cmsis_gcc.h ****   {
 794              		.loc 4 414 6 is_stmt 0 view .LVU220
ARM GAS  C:\Users\HP-Admin\AppData\Local\Temp\ccssVuiz.s 			page 42


 795 017e 002B     		cmp	r3, #0
 796 0180 00F09D81 		beq	.L53
 797              		.loc 4 418 3 is_stmt 1 view .LVU221
 798              		.loc 4 418 10 is_stmt 0 view .LVU222
 799 0184 B3FA83F3 		clz	r3, r3
 800              	.LVL62:
 801              	.L21:
 802              		.loc 4 418 10 view .LVU223
 803              	.LBE879:
 804              	.LBE878:
 415:Drivers/STM32F4xx_HAL_Driver/Inc/stm32f4xx_ll_gpio.h ****              (Speed << (POSITION_VAL(Pin) * 2U)));
 805              		.loc 3 415 3 view .LVU224
 806 0188 5B00     		lsls	r3, r3, #1
 807 018a 0321     		movs	r1, #3
 808 018c 01FA03F3 		lsl	r3, r1, r3
 809 0190 22EA0303 		bic	r3, r2, r3
 810              	.LVL63:
 811              	.LBB881:
 812              	.LBI881:
 373:Drivers/CMSIS/Include/cmsis_gcc.h **** {
 813              		.loc 4 373 31 is_stmt 1 view .LVU225
 814              	.LBB882:
 375:Drivers/CMSIS/Include/cmsis_gcc.h **** 
 815              		.loc 4 375 3 view .LVU226
 380:Drivers/CMSIS/Include/cmsis_gcc.h **** #else
 816              		.loc 4 380 4 view .LVU227
 393:Drivers/CMSIS/Include/cmsis_gcc.h **** }
 817              		.loc 4 393 3 view .LVU228
 393:Drivers/CMSIS/Include/cmsis_gcc.h **** }
 818              		.loc 4 393 3 is_stmt 0 view .LVU229
 819              	.LBE882:
 820              	.LBE881:
 821              	.LBE875:
 822              	.LBE874:
 414:Drivers/CMSIS/Include/cmsis_gcc.h ****   {
 823              		.loc 4 414 3 is_stmt 1 view .LVU230
 824              	.LBB886:
 825              	.LBB884:
 415:Drivers/STM32F4xx_HAL_Driver/Inc/stm32f4xx_ll_gpio.h ****              (Speed << (POSITION_VAL(Pin) * 2U)));
 826              		.loc 3 415 3 is_stmt 0 view .LVU231
 827 0194 5D4A     		ldr	r2, .L76+8
 828 0196 9360     		str	r3, [r2, #8]
 829              	.LVL64:
 415:Drivers/STM32F4xx_HAL_Driver/Inc/stm32f4xx_ll_gpio.h ****              (Speed << (POSITION_VAL(Pin) * 2U)));
 830              		.loc 3 415 3 view .LVU232
 831              	.LBE884:
 832              	.LBE886:
 104:Core/Src/Darin3Cart_Driver.c ****     LL_GPIO_SetPinPull(GPIOE, M_D2, LL_GPIO_PULL_NO);
 833              		.loc 1 104 5 is_stmt 1 view .LVU233
 834 0198 5E4B     		ldr	r3, .L76+16
 835 019a 1B88     		ldrh	r3, [r3]
 836              	.LVL65:
 837              	.LBB887:
 838              	.LBI887:
 484:Drivers/STM32F4xx_HAL_Driver/Inc/stm32f4xx_ll_gpio.h **** {
 839              		.loc 3 484 22 view .LVU234
 840              	.LBB888:
ARM GAS  C:\Users\HP-Admin\AppData\Local\Temp\ccssVuiz.s 			page 43


 841              		.loc 3 486 3 view .LVU235
 842 019c D268     		ldr	r2, [r2, #12]
 843              	.LVL66:
 844              	.LBB889:
 845              	.LBI889:
 373:Drivers/CMSIS/Include/cmsis_gcc.h **** {
 846              		.loc 4 373 31 view .LVU236
 847              	.LBB890:
 375:Drivers/CMSIS/Include/cmsis_gcc.h **** 
 848              		.loc 4 375 3 view .LVU237
 380:Drivers/CMSIS/Include/cmsis_gcc.h **** #else
 849              		.loc 4 380 4 view .LVU238
 850              		.syntax unified
 851              	@ 380 "Drivers/CMSIS/Include/cmsis_gcc.h" 1
 852 019e 93FAA3F3 		rbit r3, r3
 853              	@ 0 "" 2
 854              	.LVL67:
 393:Drivers/CMSIS/Include/cmsis_gcc.h **** }
 855              		.loc 4 393 3 view .LVU239
 393:Drivers/CMSIS/Include/cmsis_gcc.h **** }
 856              		.loc 4 393 3 is_stmt 0 view .LVU240
 857              		.thumb
 858              		.syntax unified
 859              	.LBE890:
 860              	.LBE889:
 861              	.LBB891:
 862              	.LBI891:
 403:Drivers/CMSIS/Include/cmsis_gcc.h **** {
 863              		.loc 4 403 30 is_stmt 1 view .LVU241
 864              	.LBB892:
 414:Drivers/CMSIS/Include/cmsis_gcc.h ****   {
 865              		.loc 4 414 3 view .LVU242
 414:Drivers/CMSIS/Include/cmsis_gcc.h ****   {
 866              		.loc 4 414 6 is_stmt 0 view .LVU243
 867 01a2 002B     		cmp	r3, #0
 868 01a4 00F08D81 		beq	.L54
 869              		.loc 4 418 3 is_stmt 1 view .LVU244
 870              		.loc 4 418 10 is_stmt 0 view .LVU245
 871 01a8 B3FA83F3 		clz	r3, r3
 872              	.LVL68:
 873              	.L22:
 874              		.loc 4 418 10 view .LVU246
 875              	.LBE892:
 876              	.LBE891:
 877              		.loc 3 486 3 view .LVU247
 878 01ac 5B00     		lsls	r3, r3, #1
 879 01ae 0321     		movs	r1, #3
 880 01b0 01FA03F3 		lsl	r3, r1, r3
 881 01b4 22EA0303 		bic	r3, r2, r3
 882              	.LVL69:
 883              	.LBB894:
 884              	.LBI894:
 373:Drivers/CMSIS/Include/cmsis_gcc.h **** {
 885              		.loc 4 373 31 is_stmt 1 view .LVU248
 886              	.LBB895:
 375:Drivers/CMSIS/Include/cmsis_gcc.h **** 
 887              		.loc 4 375 3 view .LVU249
ARM GAS  C:\Users\HP-Admin\AppData\Local\Temp\ccssVuiz.s 			page 44


 380:Drivers/CMSIS/Include/cmsis_gcc.h **** #else
 888              		.loc 4 380 4 view .LVU250
 393:Drivers/CMSIS/Include/cmsis_gcc.h **** }
 889              		.loc 4 393 3 view .LVU251
 393:Drivers/CMSIS/Include/cmsis_gcc.h **** }
 890              		.loc 4 393 3 is_stmt 0 view .LVU252
 891              	.LBE895:
 892              	.LBE894:
 893              	.LBE888:
 894              	.LBE887:
 414:Drivers/CMSIS/Include/cmsis_gcc.h ****   {
 895              		.loc 4 414 3 is_stmt 1 view .LVU253
 896              	.LBB899:
 897              	.LBB897:
 898              		.loc 3 486 3 is_stmt 0 view .LVU254
 899 01b8 544A     		ldr	r2, .L76+8
 900 01ba D360     		str	r3, [r2, #12]
 901              	.LVL70:
 902              		.loc 3 486 3 view .LVU255
 903              	.LBE897:
 904              	.LBE899:
 105:Core/Src/Darin3Cart_Driver.c **** 
 106:Core/Src/Darin3Cart_Driver.c ****     LL_GPIO_SetPinMode(GPIOE, M_D3, LL_GPIO_MODE_OUTPUT);
 905              		.loc 1 106 5 is_stmt 1 view .LVU256
 906 01bc 564B     		ldr	r3, .L76+20
 907 01be 1B88     		ldrh	r3, [r3]
 908              	.LVL71:
 909              	.LBB900:
 910              	.LBI900:
 273:Drivers/STM32F4xx_HAL_Driver/Inc/stm32f4xx_ll_gpio.h **** {
 911              		.loc 3 273 22 view .LVU257
 912              	.LBB901:
 275:Drivers/STM32F4xx_HAL_Driver/Inc/stm32f4xx_ll_gpio.h **** }
 913              		.loc 3 275 3 view .LVU258
 914 01c0 1168     		ldr	r1, [r2]
 915              	.LVL72:
 916              	.LBB902:
 917              	.LBI902:
 373:Drivers/CMSIS/Include/cmsis_gcc.h **** {
 918              		.loc 4 373 31 view .LVU259
 919              	.LBB903:
 375:Drivers/CMSIS/Include/cmsis_gcc.h **** 
 920              		.loc 4 375 3 view .LVU260
 380:Drivers/CMSIS/Include/cmsis_gcc.h **** #else
 921              		.loc 4 380 4 view .LVU261
 922              		.syntax unified
 923              	@ 380 "Drivers/CMSIS/Include/cmsis_gcc.h" 1
 924 01c2 93FAA3F2 		rbit r2, r3
 925              	@ 0 "" 2
 926              	.LVL73:
 393:Drivers/CMSIS/Include/cmsis_gcc.h **** }
 927              		.loc 4 393 3 view .LVU262
 393:Drivers/CMSIS/Include/cmsis_gcc.h **** }
 928              		.loc 4 393 3 is_stmt 0 view .LVU263
 929              		.thumb
 930              		.syntax unified
 931              	.LBE903:
ARM GAS  C:\Users\HP-Admin\AppData\Local\Temp\ccssVuiz.s 			page 45


 932              	.LBE902:
 933              	.LBB904:
 934              	.LBI904:
 403:Drivers/CMSIS/Include/cmsis_gcc.h **** {
 935              		.loc 4 403 30 is_stmt 1 view .LVU264
 936              	.LBB905:
 414:Drivers/CMSIS/Include/cmsis_gcc.h ****   {
 937              		.loc 4 414 3 view .LVU265
 414:Drivers/CMSIS/Include/cmsis_gcc.h ****   {
 938              		.loc 4 414 6 is_stmt 0 view .LVU266
 939 01c6 002A     		cmp	r2, #0
 940 01c8 00F07D81 		beq	.L55
 941              		.loc 4 418 3 is_stmt 1 view .LVU267
 942              		.loc 4 418 10 is_stmt 0 view .LVU268
 943 01cc B2FA82F2 		clz	r2, r2
 944              	.LVL74:
 945              	.L23:
 946              		.loc 4 418 10 view .LVU269
 947              	.LBE905:
 948              	.LBE904:
 275:Drivers/STM32F4xx_HAL_Driver/Inc/stm32f4xx_ll_gpio.h **** }
 949              		.loc 3 275 3 view .LVU270
 950 01d0 5200     		lsls	r2, r2, #1
 951 01d2 0320     		movs	r0, #3
 952 01d4 00FA02F2 		lsl	r2, r0, r2
 953 01d8 21EA0202 		bic	r2, r1, r2
 954              	.LVL75:
 955              	.LBB907:
 956              	.LBI907:
 373:Drivers/CMSIS/Include/cmsis_gcc.h **** {
 957              		.loc 4 373 31 is_stmt 1 view .LVU271
 958              	.LBB908:
 375:Drivers/CMSIS/Include/cmsis_gcc.h **** 
 959              		.loc 4 375 3 view .LVU272
 380:Drivers/CMSIS/Include/cmsis_gcc.h **** #else
 960              		.loc 4 380 4 view .LVU273
 961              		.syntax unified
 962              	@ 380 "Drivers/CMSIS/Include/cmsis_gcc.h" 1
 963 01dc 93FAA3F3 		rbit r3, r3
 964              	@ 0 "" 2
 965              	.LVL76:
 393:Drivers/CMSIS/Include/cmsis_gcc.h **** }
 966              		.loc 4 393 3 view .LVU274
 393:Drivers/CMSIS/Include/cmsis_gcc.h **** }
 967              		.loc 4 393 3 is_stmt 0 view .LVU275
 968              		.thumb
 969              		.syntax unified
 970              	.LBE908:
 971              	.LBE907:
 972              	.LBB909:
 973              	.LBI909:
 403:Drivers/CMSIS/Include/cmsis_gcc.h **** {
 974              		.loc 4 403 30 is_stmt 1 view .LVU276
 975              	.LBB910:
 414:Drivers/CMSIS/Include/cmsis_gcc.h ****   {
 976              		.loc 4 414 3 view .LVU277
 414:Drivers/CMSIS/Include/cmsis_gcc.h ****   {
ARM GAS  C:\Users\HP-Admin\AppData\Local\Temp\ccssVuiz.s 			page 46


 977              		.loc 4 414 6 is_stmt 0 view .LVU278
 978 01e0 002B     		cmp	r3, #0
 979 01e2 00F07281 		beq	.L56
 980              		.loc 4 418 3 is_stmt 1 view .LVU279
 981              		.loc 4 418 10 is_stmt 0 view .LVU280
 982 01e6 B3FA83F3 		clz	r3, r3
 983              	.LVL77:
 984              	.L24:
 985              		.loc 4 418 10 view .LVU281
 986              	.LBE910:
 987              	.LBE909:
 275:Drivers/STM32F4xx_HAL_Driver/Inc/stm32f4xx_ll_gpio.h **** }
 988              		.loc 3 275 3 view .LVU282
 989 01ea 5B00     		lsls	r3, r3, #1
 990 01ec 0121     		movs	r1, #1
 991 01ee 01FA03F3 		lsl	r3, r1, r3
 992 01f2 1343     		orrs	r3, r3, r2
 993 01f4 454A     		ldr	r2, .L76+8
 994 01f6 1360     		str	r3, [r2]
 995              	.LVL78:
 275:Drivers/STM32F4xx_HAL_Driver/Inc/stm32f4xx_ll_gpio.h **** }
 996              		.loc 3 275 3 view .LVU283
 997              	.LBE901:
 998              	.LBE900:
 107:Core/Src/Darin3Cart_Driver.c ****     LL_GPIO_SetPinOutputType(GPIOE, M_D3, LL_GPIO_OUTPUT_PUSHPULL);
 999              		.loc 1 107 5 is_stmt 1 view .LVU284
 1000 01f8 474B     		ldr	r3, .L76+20
 1001 01fa 1B88     		ldrh	r3, [r3]
 1002              	.LVL79:
 1003              	.LBB915:
 1004              	.LBI915:
 342:Drivers/STM32F4xx_HAL_Driver/Inc/stm32f4xx_ll_gpio.h **** {
 1005              		.loc 3 342 22 view .LVU285
 1006              	.LBB916:
 344:Drivers/STM32F4xx_HAL_Driver/Inc/stm32f4xx_ll_gpio.h **** }
 1007              		.loc 3 344 3 view .LVU286
 1008 01fc 5168     		ldr	r1, [r2, #4]
 1009 01fe 21EA0301 		bic	r1, r1, r3
 1010 0202 5160     		str	r1, [r2, #4]
 1011              	.LVL80:
 344:Drivers/STM32F4xx_HAL_Driver/Inc/stm32f4xx_ll_gpio.h **** }
 1012              		.loc 3 344 3 is_stmt 0 view .LVU287
 1013              	.LBE916:
 1014              	.LBE915:
 108:Core/Src/Darin3Cart_Driver.c ****     LL_GPIO_SetPinSpeed(GPIOE, M_D3, LL_GPIO_SPEED_FREQ_LOW);
 1015              		.loc 1 108 5 is_stmt 1 view .LVU288
 1016              	.LBB917:
 1017              	.LBI917:
 413:Drivers/STM32F4xx_HAL_Driver/Inc/stm32f4xx_ll_gpio.h **** {
 1018              		.loc 3 413 22 view .LVU289
 1019              	.LBB918:
 415:Drivers/STM32F4xx_HAL_Driver/Inc/stm32f4xx_ll_gpio.h ****              (Speed << (POSITION_VAL(Pin) * 2U)));
 1020              		.loc 3 415 3 view .LVU290
 1021 0204 9268     		ldr	r2, [r2, #8]
 1022              	.LVL81:
 1023              	.LBB919:
 1024              	.LBI919:
ARM GAS  C:\Users\HP-Admin\AppData\Local\Temp\ccssVuiz.s 			page 47


 373:Drivers/CMSIS/Include/cmsis_gcc.h **** {
 1025              		.loc 4 373 31 view .LVU291
 1026              	.LBB920:
 375:Drivers/CMSIS/Include/cmsis_gcc.h **** 
 1027              		.loc 4 375 3 view .LVU292
 380:Drivers/CMSIS/Include/cmsis_gcc.h **** #else
 1028              		.loc 4 380 4 view .LVU293
 1029              		.syntax unified
 1030              	@ 380 "Drivers/CMSIS/Include/cmsis_gcc.h" 1
 1031 0206 93FAA3F3 		rbit r3, r3
 1032              	@ 0 "" 2
 1033              	.LVL82:
 393:Drivers/CMSIS/Include/cmsis_gcc.h **** }
 1034              		.loc 4 393 3 view .LVU294
 393:Drivers/CMSIS/Include/cmsis_gcc.h **** }
 1035              		.loc 4 393 3 is_stmt 0 view .LVU295
 1036              		.thumb
 1037              		.syntax unified
 1038              	.LBE920:
 1039              	.LBE919:
 1040              	.LBB921:
 1041              	.LBI921:
 403:Drivers/CMSIS/Include/cmsis_gcc.h **** {
 1042              		.loc 4 403 30 is_stmt 1 view .LVU296
 1043              	.LBB922:
 414:Drivers/CMSIS/Include/cmsis_gcc.h ****   {
 1044              		.loc 4 414 3 view .LVU297
 414:Drivers/CMSIS/Include/cmsis_gcc.h ****   {
 1045              		.loc 4 414 6 is_stmt 0 view .LVU298
 1046 020a 002B     		cmp	r3, #0
 1047 020c 00F05F81 		beq	.L57
 1048              		.loc 4 418 3 is_stmt 1 view .LVU299
 1049              		.loc 4 418 10 is_stmt 0 view .LVU300
 1050 0210 B3FA83F3 		clz	r3, r3
 1051              	.LVL83:
 1052              	.L25:
 1053              		.loc 4 418 10 view .LVU301
 1054              	.LBE922:
 1055              	.LBE921:
 415:Drivers/STM32F4xx_HAL_Driver/Inc/stm32f4xx_ll_gpio.h ****              (Speed << (POSITION_VAL(Pin) * 2U)));
 1056              		.loc 3 415 3 view .LVU302
 1057 0214 5B00     		lsls	r3, r3, #1
 1058 0216 0321     		movs	r1, #3
 1059 0218 01FA03F3 		lsl	r3, r1, r3
 1060 021c 22EA0303 		bic	r3, r2, r3
 1061              	.LVL84:
 1062              	.LBB924:
 1063              	.LBI924:
 373:Drivers/CMSIS/Include/cmsis_gcc.h **** {
 1064              		.loc 4 373 31 is_stmt 1 view .LVU303
 1065              	.LBB925:
 375:Drivers/CMSIS/Include/cmsis_gcc.h **** 
 1066              		.loc 4 375 3 view .LVU304
 380:Drivers/CMSIS/Include/cmsis_gcc.h **** #else
 1067              		.loc 4 380 4 view .LVU305
 393:Drivers/CMSIS/Include/cmsis_gcc.h **** }
 1068              		.loc 4 393 3 view .LVU306
ARM GAS  C:\Users\HP-Admin\AppData\Local\Temp\ccssVuiz.s 			page 48


 393:Drivers/CMSIS/Include/cmsis_gcc.h **** }
 1069              		.loc 4 393 3 is_stmt 0 view .LVU307
 1070              	.LBE925:
 1071              	.LBE924:
 1072              	.LBE918:
 1073              	.LBE917:
 414:Drivers/CMSIS/Include/cmsis_gcc.h ****   {
 1074              		.loc 4 414 3 is_stmt 1 view .LVU308
 1075              	.LBB929:
 1076              	.LBB927:
 415:Drivers/STM32F4xx_HAL_Driver/Inc/stm32f4xx_ll_gpio.h ****              (Speed << (POSITION_VAL(Pin) * 2U)));
 1077              		.loc 3 415 3 is_stmt 0 view .LVU309
 1078 0220 3A4A     		ldr	r2, .L76+8
 1079 0222 9360     		str	r3, [r2, #8]
 1080              	.LVL85:
 415:Drivers/STM32F4xx_HAL_Driver/Inc/stm32f4xx_ll_gpio.h ****              (Speed << (POSITION_VAL(Pin) * 2U)));
 1081              		.loc 3 415 3 view .LVU310
 1082              	.LBE927:
 1083              	.LBE929:
 109:Core/Src/Darin3Cart_Driver.c ****     LL_GPIO_SetPinPull(GPIOE, M_D3, LL_GPIO_PULL_NO);
 1084              		.loc 1 109 5 is_stmt 1 view .LVU311
 1085 0224 3C4B     		ldr	r3, .L76+20
 1086 0226 1B88     		ldrh	r3, [r3]
 1087              	.LVL86:
 1088              	.LBB930:
 1089              	.LBI930:
 484:Drivers/STM32F4xx_HAL_Driver/Inc/stm32f4xx_ll_gpio.h **** {
 1090              		.loc 3 484 22 view .LVU312
 1091              	.LBB931:
 1092              		.loc 3 486 3 view .LVU313
 1093 0228 D268     		ldr	r2, [r2, #12]
 1094              	.LVL87:
 1095              	.LBB932:
 1096              	.LBI932:
 373:Drivers/CMSIS/Include/cmsis_gcc.h **** {
 1097              		.loc 4 373 31 view .LVU314
 1098              	.LBB933:
 375:Drivers/CMSIS/Include/cmsis_gcc.h **** 
 1099              		.loc 4 375 3 view .LVU315
 380:Drivers/CMSIS/Include/cmsis_gcc.h **** #else
 1100              		.loc 4 380 4 view .LVU316
 1101              		.syntax unified
 1102              	@ 380 "Drivers/CMSIS/Include/cmsis_gcc.h" 1
 1103 022a 93FAA3F3 		rbit r3, r3
 1104              	@ 0 "" 2
 1105              	.LVL88:
 393:Drivers/CMSIS/Include/cmsis_gcc.h **** }
 1106              		.loc 4 393 3 view .LVU317
 393:Drivers/CMSIS/Include/cmsis_gcc.h **** }
 1107              		.loc 4 393 3 is_stmt 0 view .LVU318
 1108              		.thumb
 1109              		.syntax unified
 1110              	.LBE933:
 1111              	.LBE932:
 1112              	.LBB934:
 1113              	.LBI934:
 403:Drivers/CMSIS/Include/cmsis_gcc.h **** {
ARM GAS  C:\Users\HP-Admin\AppData\Local\Temp\ccssVuiz.s 			page 49


 1114              		.loc 4 403 30 is_stmt 1 view .LVU319
 1115              	.LBB935:
 414:Drivers/CMSIS/Include/cmsis_gcc.h ****   {
 1116              		.loc 4 414 3 view .LVU320
 414:Drivers/CMSIS/Include/cmsis_gcc.h ****   {
 1117              		.loc 4 414 6 is_stmt 0 view .LVU321
 1118 022e 002B     		cmp	r3, #0
 1119 0230 00F04F81 		beq	.L58
 1120              		.loc 4 418 3 is_stmt 1 view .LVU322
 1121              		.loc 4 418 10 is_stmt 0 view .LVU323
 1122 0234 B3FA83F3 		clz	r3, r3
 1123              	.LVL89:
 1124              	.L26:
 1125              		.loc 4 418 10 view .LVU324
 1126              	.LBE935:
 1127              	.LBE934:
 1128              		.loc 3 486 3 view .LVU325
 1129 0238 5B00     		lsls	r3, r3, #1
 1130 023a 0321     		movs	r1, #3
 1131 023c 01FA03F3 		lsl	r3, r1, r3
 1132 0240 22EA0303 		bic	r3, r2, r3
 1133              	.LVL90:
 1134              	.LBB937:
 1135              	.LBI937:
 373:Drivers/CMSIS/Include/cmsis_gcc.h **** {
 1136              		.loc 4 373 31 is_stmt 1 view .LVU326
 1137              	.LBB938:
 375:Drivers/CMSIS/Include/cmsis_gcc.h **** 
 1138              		.loc 4 375 3 view .LVU327
 380:Drivers/CMSIS/Include/cmsis_gcc.h **** #else
 1139              		.loc 4 380 4 view .LVU328
 393:Drivers/CMSIS/Include/cmsis_gcc.h **** }
 1140              		.loc 4 393 3 view .LVU329
 393:Drivers/CMSIS/Include/cmsis_gcc.h **** }
 1141              		.loc 4 393 3 is_stmt 0 view .LVU330
 1142              	.LBE938:
 1143              	.LBE937:
 1144              	.LBE931:
 1145              	.LBE930:
 414:Drivers/CMSIS/Include/cmsis_gcc.h ****   {
 1146              		.loc 4 414 3 is_stmt 1 view .LVU331
 1147              	.LBB942:
 1148              	.LBB940:
 1149              		.loc 3 486 3 is_stmt 0 view .LVU332
 1150 0244 314A     		ldr	r2, .L76+8
 1151 0246 D360     		str	r3, [r2, #12]
 1152              	.LVL91:
 1153              		.loc 3 486 3 view .LVU333
 1154              	.LBE940:
 1155              	.LBE942:
 110:Core/Src/Darin3Cart_Driver.c **** 
 111:Core/Src/Darin3Cart_Driver.c ****     LL_GPIO_SetPinMode(GPIOE, M_D4, LL_GPIO_MODE_OUTPUT);
 1156              		.loc 1 111 5 is_stmt 1 view .LVU334
 1157 0248 344B     		ldr	r3, .L76+24
 1158 024a 1B88     		ldrh	r3, [r3]
 1159              	.LVL92:
 1160              	.LBB943:
ARM GAS  C:\Users\HP-Admin\AppData\Local\Temp\ccssVuiz.s 			page 50


 1161              	.LBI943:
 273:Drivers/STM32F4xx_HAL_Driver/Inc/stm32f4xx_ll_gpio.h **** {
 1162              		.loc 3 273 22 view .LVU335
 1163              	.LBB944:
 275:Drivers/STM32F4xx_HAL_Driver/Inc/stm32f4xx_ll_gpio.h **** }
 1164              		.loc 3 275 3 view .LVU336
 1165 024c 1168     		ldr	r1, [r2]
 1166              	.LVL93:
 1167              	.LBB945:
 1168              	.LBI945:
 373:Drivers/CMSIS/Include/cmsis_gcc.h **** {
 1169              		.loc 4 373 31 view .LVU337
 1170              	.LBB946:
 375:Drivers/CMSIS/Include/cmsis_gcc.h **** 
 1171              		.loc 4 375 3 view .LVU338
 380:Drivers/CMSIS/Include/cmsis_gcc.h **** #else
 1172              		.loc 4 380 4 view .LVU339
 1173              		.syntax unified
 1174              	@ 380 "Drivers/CMSIS/Include/cmsis_gcc.h" 1
 1175 024e 93FAA3F2 		rbit r2, r3
 1176              	@ 0 "" 2
 1177              	.LVL94:
 393:Drivers/CMSIS/Include/cmsis_gcc.h **** }
 1178              		.loc 4 393 3 view .LVU340
 393:Drivers/CMSIS/Include/cmsis_gcc.h **** }
 1179              		.loc 4 393 3 is_stmt 0 view .LVU341
 1180              		.thumb
 1181              		.syntax unified
 1182              	.LBE946:
 1183              	.LBE945:
 1184              	.LBB947:
 1185              	.LBI947:
 403:Drivers/CMSIS/Include/cmsis_gcc.h **** {
 1186              		.loc 4 403 30 is_stmt 1 view .LVU342
 1187              	.LBB948:
 414:Drivers/CMSIS/Include/cmsis_gcc.h ****   {
 1188              		.loc 4 414 3 view .LVU343
 414:Drivers/CMSIS/Include/cmsis_gcc.h ****   {
 1189              		.loc 4 414 6 is_stmt 0 view .LVU344
 1190 0252 002A     		cmp	r2, #0
 1191 0254 00F03F81 		beq	.L59
 1192              		.loc 4 418 3 is_stmt 1 view .LVU345
 1193              		.loc 4 418 10 is_stmt 0 view .LVU346
 1194 0258 B2FA82F2 		clz	r2, r2
 1195              	.LVL95:
 1196              	.L27:
 1197              		.loc 4 418 10 view .LVU347
 1198              	.LBE948:
 1199              	.LBE947:
 275:Drivers/STM32F4xx_HAL_Driver/Inc/stm32f4xx_ll_gpio.h **** }
 1200              		.loc 3 275 3 view .LVU348
 1201 025c 5200     		lsls	r2, r2, #1
 1202 025e 0320     		movs	r0, #3
 1203 0260 00FA02F2 		lsl	r2, r0, r2
 1204 0264 21EA0202 		bic	r2, r1, r2
 1205              	.LVL96:
 1206              	.LBB950:
ARM GAS  C:\Users\HP-Admin\AppData\Local\Temp\ccssVuiz.s 			page 51


 1207              	.LBI950:
 373:Drivers/CMSIS/Include/cmsis_gcc.h **** {
 1208              		.loc 4 373 31 is_stmt 1 view .LVU349
 1209              	.LBB951:
 375:Drivers/CMSIS/Include/cmsis_gcc.h **** 
 1210              		.loc 4 375 3 view .LVU350
 380:Drivers/CMSIS/Include/cmsis_gcc.h **** #else
 1211              		.loc 4 380 4 view .LVU351
 1212              		.syntax unified
 1213              	@ 380 "Drivers/CMSIS/Include/cmsis_gcc.h" 1
 1214 0268 93FAA3F3 		rbit r3, r3
 1215              	@ 0 "" 2
 1216              	.LVL97:
 393:Drivers/CMSIS/Include/cmsis_gcc.h **** }
 1217              		.loc 4 393 3 view .LVU352
 393:Drivers/CMSIS/Include/cmsis_gcc.h **** }
 1218              		.loc 4 393 3 is_stmt 0 view .LVU353
 1219              		.thumb
 1220              		.syntax unified
 1221              	.LBE951:
 1222              	.LBE950:
 1223              	.LBB952:
 1224              	.LBI952:
 403:Drivers/CMSIS/Include/cmsis_gcc.h **** {
 1225              		.loc 4 403 30 is_stmt 1 view .LVU354
 1226              	.LBB953:
 414:Drivers/CMSIS/Include/cmsis_gcc.h ****   {
 1227              		.loc 4 414 3 view .LVU355
 414:Drivers/CMSIS/Include/cmsis_gcc.h ****   {
 1228              		.loc 4 414 6 is_stmt 0 view .LVU356
 1229 026c 002B     		cmp	r3, #0
 1230 026e 00F03481 		beq	.L60
 1231              		.loc 4 418 3 is_stmt 1 view .LVU357
 1232              		.loc 4 418 10 is_stmt 0 view .LVU358
 1233 0272 B3FA83F3 		clz	r3, r3
 1234              	.LVL98:
 1235              	.L28:
 1236              		.loc 4 418 10 view .LVU359
 1237              	.LBE953:
 1238              	.LBE952:
 275:Drivers/STM32F4xx_HAL_Driver/Inc/stm32f4xx_ll_gpio.h **** }
 1239              		.loc 3 275 3 view .LVU360
 1240 0276 5B00     		lsls	r3, r3, #1
 1241 0278 0121     		movs	r1, #1
 1242 027a 01FA03F3 		lsl	r3, r1, r3
 1243 027e 1343     		orrs	r3, r3, r2
 1244 0280 224A     		ldr	r2, .L76+8
 1245 0282 1360     		str	r3, [r2]
 1246              	.LVL99:
 275:Drivers/STM32F4xx_HAL_Driver/Inc/stm32f4xx_ll_gpio.h **** }
 1247              		.loc 3 275 3 view .LVU361
 1248              	.LBE944:
 1249              	.LBE943:
 112:Core/Src/Darin3Cart_Driver.c ****     LL_GPIO_SetPinOutputType(GPIOE, M_D4, LL_GPIO_OUTPUT_PUSHPULL);
 1250              		.loc 1 112 5 is_stmt 1 view .LVU362
 1251 0284 254B     		ldr	r3, .L76+24
 1252 0286 1B88     		ldrh	r3, [r3]
ARM GAS  C:\Users\HP-Admin\AppData\Local\Temp\ccssVuiz.s 			page 52


 1253              	.LVL100:
 1254              	.LBB958:
 1255              	.LBI958:
 342:Drivers/STM32F4xx_HAL_Driver/Inc/stm32f4xx_ll_gpio.h **** {
 1256              		.loc 3 342 22 view .LVU363
 1257              	.LBB959:
 344:Drivers/STM32F4xx_HAL_Driver/Inc/stm32f4xx_ll_gpio.h **** }
 1258              		.loc 3 344 3 view .LVU364
 1259 0288 5168     		ldr	r1, [r2, #4]
 1260 028a 21EA0301 		bic	r1, r1, r3
 1261 028e 5160     		str	r1, [r2, #4]
 1262              	.LVL101:
 344:Drivers/STM32F4xx_HAL_Driver/Inc/stm32f4xx_ll_gpio.h **** }
 1263              		.loc 3 344 3 is_stmt 0 view .LVU365
 1264              	.LBE959:
 1265              	.LBE958:
 113:Core/Src/Darin3Cart_Driver.c ****     LL_GPIO_SetPinSpeed(GPIOE, M_D4, LL_GPIO_SPEED_FREQ_LOW);
 1266              		.loc 1 113 5 is_stmt 1 view .LVU366
 1267              	.LBB960:
 1268              	.LBI960:
 413:Drivers/STM32F4xx_HAL_Driver/Inc/stm32f4xx_ll_gpio.h **** {
 1269              		.loc 3 413 22 view .LVU367
 1270              	.LBB961:
 415:Drivers/STM32F4xx_HAL_Driver/Inc/stm32f4xx_ll_gpio.h ****              (Speed << (POSITION_VAL(Pin) * 2U)));
 1271              		.loc 3 415 3 view .LVU368
 1272 0290 9268     		ldr	r2, [r2, #8]
 1273              	.LVL102:
 1274              	.LBB962:
 1275              	.LBI962:
 373:Drivers/CMSIS/Include/cmsis_gcc.h **** {
 1276              		.loc 4 373 31 view .LVU369
 1277              	.LBB963:
 375:Drivers/CMSIS/Include/cmsis_gcc.h **** 
 1278              		.loc 4 375 3 view .LVU370
 380:Drivers/CMSIS/Include/cmsis_gcc.h **** #else
 1279              		.loc 4 380 4 view .LVU371
 1280              		.syntax unified
 1281              	@ 380 "Drivers/CMSIS/Include/cmsis_gcc.h" 1
 1282 0292 93FAA3F3 		rbit r3, r3
 1283              	@ 0 "" 2
 1284              	.LVL103:
 393:Drivers/CMSIS/Include/cmsis_gcc.h **** }
 1285              		.loc 4 393 3 view .LVU372
 393:Drivers/CMSIS/Include/cmsis_gcc.h **** }
 1286              		.loc 4 393 3 is_stmt 0 view .LVU373
 1287              		.thumb
 1288              		.syntax unified
 1289              	.LBE963:
 1290              	.LBE962:
 1291              	.LBB964:
 1292              	.LBI964:
 403:Drivers/CMSIS/Include/cmsis_gcc.h **** {
 1293              		.loc 4 403 30 is_stmt 1 view .LVU374
 1294              	.LBB965:
 414:Drivers/CMSIS/Include/cmsis_gcc.h ****   {
 1295              		.loc 4 414 3 view .LVU375
 414:Drivers/CMSIS/Include/cmsis_gcc.h ****   {
ARM GAS  C:\Users\HP-Admin\AppData\Local\Temp\ccssVuiz.s 			page 53


 1296              		.loc 4 414 6 is_stmt 0 view .LVU376
 1297 0296 002B     		cmp	r3, #0
 1298 0298 00F02181 		beq	.L61
 1299              		.loc 4 418 3 is_stmt 1 view .LVU377
 1300              		.loc 4 418 10 is_stmt 0 view .LVU378
 1301 029c B3FA83F3 		clz	r3, r3
 1302              	.LVL104:
 1303              	.L29:
 1304              		.loc 4 418 10 view .LVU379
 1305              	.LBE965:
 1306              	.LBE964:
 415:Drivers/STM32F4xx_HAL_Driver/Inc/stm32f4xx_ll_gpio.h ****              (Speed << (POSITION_VAL(Pin) * 2U)));
 1307              		.loc 3 415 3 view .LVU380
 1308 02a0 5B00     		lsls	r3, r3, #1
 1309 02a2 0321     		movs	r1, #3
 1310 02a4 01FA03F3 		lsl	r3, r1, r3
 1311 02a8 22EA0303 		bic	r3, r2, r3
 1312              	.LVL105:
 1313              	.LBB967:
 1314              	.LBI967:
 373:Drivers/CMSIS/Include/cmsis_gcc.h **** {
 1315              		.loc 4 373 31 is_stmt 1 view .LVU381
 1316              	.LBB968:
 375:Drivers/CMSIS/Include/cmsis_gcc.h **** 
 1317              		.loc 4 375 3 view .LVU382
 380:Drivers/CMSIS/Include/cmsis_gcc.h **** #else
 1318              		.loc 4 380 4 view .LVU383
 393:Drivers/CMSIS/Include/cmsis_gcc.h **** }
 1319              		.loc 4 393 3 view .LVU384
 393:Drivers/CMSIS/Include/cmsis_gcc.h **** }
 1320              		.loc 4 393 3 is_stmt 0 view .LVU385
 1321              	.LBE968:
 1322              	.LBE967:
 1323              	.LBE961:
 1324              	.LBE960:
 414:Drivers/CMSIS/Include/cmsis_gcc.h ****   {
 1325              		.loc 4 414 3 is_stmt 1 view .LVU386
 1326              	.LBB972:
 1327              	.LBB970:
 415:Drivers/STM32F4xx_HAL_Driver/Inc/stm32f4xx_ll_gpio.h ****              (Speed << (POSITION_VAL(Pin) * 2U)));
 1328              		.loc 3 415 3 is_stmt 0 view .LVU387
 1329 02ac 174A     		ldr	r2, .L76+8
 1330 02ae 9360     		str	r3, [r2, #8]
 1331              	.LVL106:
 415:Drivers/STM32F4xx_HAL_Driver/Inc/stm32f4xx_ll_gpio.h ****              (Speed << (POSITION_VAL(Pin) * 2U)));
 1332              		.loc 3 415 3 view .LVU388
 1333              	.LBE970:
 1334              	.LBE972:
 114:Core/Src/Darin3Cart_Driver.c ****     LL_GPIO_SetPinPull(GPIOE, M_D4, LL_GPIO_PULL_NO);
 1335              		.loc 1 114 5 is_stmt 1 view .LVU389
 1336 02b0 1A4B     		ldr	r3, .L76+24
 1337 02b2 1B88     		ldrh	r3, [r3]
 1338              	.LVL107:
 1339              	.LBB973:
 1340              	.LBI973:
 484:Drivers/STM32F4xx_HAL_Driver/Inc/stm32f4xx_ll_gpio.h **** {
 1341              		.loc 3 484 22 view .LVU390
ARM GAS  C:\Users\HP-Admin\AppData\Local\Temp\ccssVuiz.s 			page 54


 1342              	.LBB974:
 1343              		.loc 3 486 3 view .LVU391
 1344 02b4 D268     		ldr	r2, [r2, #12]
 1345              	.LVL108:
 1346              	.LBB975:
 1347              	.LBI975:
 373:Drivers/CMSIS/Include/cmsis_gcc.h **** {
 1348              		.loc 4 373 31 view .LVU392
 1349              	.LBB976:
 375:Drivers/CMSIS/Include/cmsis_gcc.h **** 
 1350              		.loc 4 375 3 view .LVU393
 380:Drivers/CMSIS/Include/cmsis_gcc.h **** #else
 1351              		.loc 4 380 4 view .LVU394
 1352              		.syntax unified
 1353              	@ 380 "Drivers/CMSIS/Include/cmsis_gcc.h" 1
 1354 02b6 93FAA3F3 		rbit r3, r3
 1355              	@ 0 "" 2
 1356              	.LVL109:
 393:Drivers/CMSIS/Include/cmsis_gcc.h **** }
 1357              		.loc 4 393 3 view .LVU395
 393:Drivers/CMSIS/Include/cmsis_gcc.h **** }
 1358              		.loc 4 393 3 is_stmt 0 view .LVU396
 1359              		.thumb
 1360              		.syntax unified
 1361              	.LBE976:
 1362              	.LBE975:
 1363              	.LBB977:
 1364              	.LBI977:
 403:Drivers/CMSIS/Include/cmsis_gcc.h **** {
 1365              		.loc 4 403 30 is_stmt 1 view .LVU397
 1366              	.LBB978:
 414:Drivers/CMSIS/Include/cmsis_gcc.h ****   {
 1367              		.loc 4 414 3 view .LVU398
 414:Drivers/CMSIS/Include/cmsis_gcc.h ****   {
 1368              		.loc 4 414 6 is_stmt 0 view .LVU399
 1369 02ba 002B     		cmp	r3, #0
 1370 02bc 00F01181 		beq	.L62
 1371              		.loc 4 418 3 is_stmt 1 view .LVU400
 1372              		.loc 4 418 10 is_stmt 0 view .LVU401
 1373 02c0 B3FA83F3 		clz	r3, r3
 1374              	.LVL110:
 1375              	.L30:
 1376              		.loc 4 418 10 view .LVU402
 1377              	.LBE978:
 1378              	.LBE977:
 1379              		.loc 3 486 3 view .LVU403
 1380 02c4 5B00     		lsls	r3, r3, #1
 1381 02c6 0321     		movs	r1, #3
 1382 02c8 01FA03F3 		lsl	r3, r1, r3
 1383 02cc 22EA0303 		bic	r3, r2, r3
 1384              	.LVL111:
 1385              	.LBB980:
 1386              	.LBI980:
 373:Drivers/CMSIS/Include/cmsis_gcc.h **** {
 1387              		.loc 4 373 31 is_stmt 1 view .LVU404
 1388              	.LBB981:
 375:Drivers/CMSIS/Include/cmsis_gcc.h **** 
ARM GAS  C:\Users\HP-Admin\AppData\Local\Temp\ccssVuiz.s 			page 55


 1389              		.loc 4 375 3 view .LVU405
 380:Drivers/CMSIS/Include/cmsis_gcc.h **** #else
 1390              		.loc 4 380 4 view .LVU406
 393:Drivers/CMSIS/Include/cmsis_gcc.h **** }
 1391              		.loc 4 393 3 view .LVU407
 393:Drivers/CMSIS/Include/cmsis_gcc.h **** }
 1392              		.loc 4 393 3 is_stmt 0 view .LVU408
 1393              	.LBE981:
 1394              	.LBE980:
 1395              	.LBE974:
 1396              	.LBE973:
 414:Drivers/CMSIS/Include/cmsis_gcc.h ****   {
 1397              		.loc 4 414 3 is_stmt 1 view .LVU409
 1398              	.LBB985:
 1399              	.LBB983:
 1400              		.loc 3 486 3 is_stmt 0 view .LVU410
 1401 02d0 0E4A     		ldr	r2, .L76+8
 1402 02d2 D360     		str	r3, [r2, #12]
 1403              	.LVL112:
 1404              		.loc 3 486 3 view .LVU411
 1405              	.LBE983:
 1406              	.LBE985:
 115:Core/Src/Darin3Cart_Driver.c **** 
 116:Core/Src/Darin3Cart_Driver.c ****     LL_GPIO_SetPinMode(GPIOE, M_D5, LL_GPIO_MODE_OUTPUT);
 1407              		.loc 1 116 5 is_stmt 1 view .LVU412
 1408 02d4 124B     		ldr	r3, .L76+28
 1409 02d6 1B88     		ldrh	r3, [r3]
 1410              	.LVL113:
 1411              	.LBB986:
 1412              	.LBI986:
 273:Drivers/STM32F4xx_HAL_Driver/Inc/stm32f4xx_ll_gpio.h **** {
 1413              		.loc 3 273 22 view .LVU413
 1414              	.LBB987:
 275:Drivers/STM32F4xx_HAL_Driver/Inc/stm32f4xx_ll_gpio.h **** }
 1415              		.loc 3 275 3 view .LVU414
 1416 02d8 1168     		ldr	r1, [r2]
 1417              	.LVL114:
 1418              	.LBB988:
 1419              	.LBI988:
 373:Drivers/CMSIS/Include/cmsis_gcc.h **** {
 1420              		.loc 4 373 31 view .LVU415
 1421              	.LBB989:
 375:Drivers/CMSIS/Include/cmsis_gcc.h **** 
 1422              		.loc 4 375 3 view .LVU416
 380:Drivers/CMSIS/Include/cmsis_gcc.h **** #else
 1423              		.loc 4 380 4 view .LVU417
 1424              		.syntax unified
 1425              	@ 380 "Drivers/CMSIS/Include/cmsis_gcc.h" 1
 1426 02da 93FAA3F2 		rbit r2, r3
 1427              	@ 0 "" 2
 1428              	.LVL115:
 393:Drivers/CMSIS/Include/cmsis_gcc.h **** }
 1429              		.loc 4 393 3 view .LVU418
 393:Drivers/CMSIS/Include/cmsis_gcc.h **** }
 1430              		.loc 4 393 3 is_stmt 0 view .LVU419
 1431              		.thumb
 1432              		.syntax unified
ARM GAS  C:\Users\HP-Admin\AppData\Local\Temp\ccssVuiz.s 			page 56


 1433              	.LBE989:
 1434              	.LBE988:
 1435              	.LBB990:
 1436              	.LBI990:
 403:Drivers/CMSIS/Include/cmsis_gcc.h **** {
 1437              		.loc 4 403 30 is_stmt 1 view .LVU420
 1438              	.LBB991:
 414:Drivers/CMSIS/Include/cmsis_gcc.h ****   {
 1439              		.loc 4 414 3 view .LVU421
 414:Drivers/CMSIS/Include/cmsis_gcc.h ****   {
 1440              		.loc 4 414 6 is_stmt 0 view .LVU422
 1441 02de 002A     		cmp	r2, #0
 1442 02e0 00F00181 		beq	.L63
 1443              		.loc 4 418 3 is_stmt 1 view .LVU423
 1444              		.loc 4 418 10 is_stmt 0 view .LVU424
 1445 02e4 B2FA82F2 		clz	r2, r2
 1446              	.LVL116:
 1447              	.L31:
 1448              		.loc 4 418 10 view .LVU425
 1449              	.LBE991:
 1450              	.LBE990:
 275:Drivers/STM32F4xx_HAL_Driver/Inc/stm32f4xx_ll_gpio.h **** }
 1451              		.loc 3 275 3 view .LVU426
 1452 02e8 5200     		lsls	r2, r2, #1
 1453 02ea 0320     		movs	r0, #3
 1454 02ec 00FA02F2 		lsl	r2, r0, r2
 1455 02f0 21EA0202 		bic	r2, r1, r2
 1456              	.LVL117:
 1457              	.LBB993:
 1458              	.LBI993:
 373:Drivers/CMSIS/Include/cmsis_gcc.h **** {
 1459              		.loc 4 373 31 is_stmt 1 view .LVU427
 1460              	.LBB994:
 375:Drivers/CMSIS/Include/cmsis_gcc.h **** 
 1461              		.loc 4 375 3 view .LVU428
 380:Drivers/CMSIS/Include/cmsis_gcc.h **** #else
 1462              		.loc 4 380 4 view .LVU429
 1463              		.syntax unified
 1464              	@ 380 "Drivers/CMSIS/Include/cmsis_gcc.h" 1
 1465 02f4 93FAA3F3 		rbit r3, r3
 1466              	@ 0 "" 2
 1467              	.LVL118:
 393:Drivers/CMSIS/Include/cmsis_gcc.h **** }
 1468              		.loc 4 393 3 view .LVU430
 393:Drivers/CMSIS/Include/cmsis_gcc.h **** }
 1469              		.loc 4 393 3 is_stmt 0 view .LVU431
 1470              		.thumb
 1471              		.syntax unified
 1472              	.LBE994:
 1473              	.LBE993:
 1474              	.LBB995:
 1475              	.LBI995:
 403:Drivers/CMSIS/Include/cmsis_gcc.h **** {
 1476              		.loc 4 403 30 is_stmt 1 view .LVU432
 1477              	.LBB996:
 414:Drivers/CMSIS/Include/cmsis_gcc.h ****   {
 1478              		.loc 4 414 3 view .LVU433
ARM GAS  C:\Users\HP-Admin\AppData\Local\Temp\ccssVuiz.s 			page 57


 414:Drivers/CMSIS/Include/cmsis_gcc.h ****   {
 1479              		.loc 4 414 6 is_stmt 0 view .LVU434
 1480 02f8 002B     		cmp	r3, #0
 1481 02fa 00F0F680 		beq	.L64
 1482              		.loc 4 418 3 is_stmt 1 view .LVU435
 1483              		.loc 4 418 10 is_stmt 0 view .LVU436
 1484 02fe B3FA83F3 		clz	r3, r3
 1485 0302 0FE0     		b	.L77
 1486              	.L78:
 1487              		.align	2
 1488              	.L76:
 1489 0304 00380240 		.word	1073887232
 1490 0308 00000000 		.word	.LANCHOR3
 1491 030c 00100240 		.word	1073876992
 1492 0310 00000000 		.word	.LANCHOR4
 1493 0314 00000000 		.word	.LANCHOR5
 1494 0318 00000000 		.word	.LANCHOR6
 1495 031c 00000000 		.word	.LANCHOR7
 1496 0320 00000000 		.word	.LANCHOR8
 1497              	.L77:
 1498              	.LVL119:
 1499              	.L32:
 1500              		.loc 4 418 10 view .LVU437
 1501              	.LBE996:
 1502              	.LBE995:
 275:Drivers/STM32F4xx_HAL_Driver/Inc/stm32f4xx_ll_gpio.h **** }
 1503              		.loc 3 275 3 view .LVU438
 1504 0324 5B00     		lsls	r3, r3, #1
 1505 0326 0121     		movs	r1, #1
 1506 0328 01FA03F3 		lsl	r3, r1, r3
 1507 032c 1343     		orrs	r3, r3, r2
 1508 032e 7A4A     		ldr	r2, .L79
 1509 0330 1360     		str	r3, [r2]
 1510              	.LVL120:
 275:Drivers/STM32F4xx_HAL_Driver/Inc/stm32f4xx_ll_gpio.h **** }
 1511              		.loc 3 275 3 view .LVU439
 1512              	.LBE987:
 1513              	.LBE986:
 117:Core/Src/Darin3Cart_Driver.c ****     LL_GPIO_SetPinOutputType(GPIOE, M_D5, LL_GPIO_OUTPUT_PUSHPULL);
 1514              		.loc 1 117 5 is_stmt 1 view .LVU440
 1515 0332 7A4B     		ldr	r3, .L79+4
 1516 0334 1B88     		ldrh	r3, [r3]
 1517              	.LVL121:
 1518              	.LBB1001:
 1519              	.LBI1001:
 342:Drivers/STM32F4xx_HAL_Driver/Inc/stm32f4xx_ll_gpio.h **** {
 1520              		.loc 3 342 22 view .LVU441
 1521              	.LBB1002:
 344:Drivers/STM32F4xx_HAL_Driver/Inc/stm32f4xx_ll_gpio.h **** }
 1522              		.loc 3 344 3 view .LVU442
 1523 0336 5168     		ldr	r1, [r2, #4]
 1524 0338 21EA0301 		bic	r1, r1, r3
 1525 033c 5160     		str	r1, [r2, #4]
 1526              	.LVL122:
 344:Drivers/STM32F4xx_HAL_Driver/Inc/stm32f4xx_ll_gpio.h **** }
 1527              		.loc 3 344 3 is_stmt 0 view .LVU443
 1528              	.LBE1002:
ARM GAS  C:\Users\HP-Admin\AppData\Local\Temp\ccssVuiz.s 			page 58


 1529              	.LBE1001:
 118:Core/Src/Darin3Cart_Driver.c ****     LL_GPIO_SetPinSpeed(GPIOE, M_D5, LL_GPIO_SPEED_FREQ_LOW);
 1530              		.loc 1 118 5 is_stmt 1 view .LVU444
 1531              	.LBB1003:
 1532              	.LBI1003:
 413:Drivers/STM32F4xx_HAL_Driver/Inc/stm32f4xx_ll_gpio.h **** {
 1533              		.loc 3 413 22 view .LVU445
 1534              	.LBB1004:
 415:Drivers/STM32F4xx_HAL_Driver/Inc/stm32f4xx_ll_gpio.h ****              (Speed << (POSITION_VAL(Pin) * 2U)));
 1535              		.loc 3 415 3 view .LVU446
 1536 033e 9268     		ldr	r2, [r2, #8]
 1537              	.LVL123:
 1538              	.LBB1005:
 1539              	.LBI1005:
 373:Drivers/CMSIS/Include/cmsis_gcc.h **** {
 1540              		.loc 4 373 31 view .LVU447
 1541              	.LBB1006:
 375:Drivers/CMSIS/Include/cmsis_gcc.h **** 
 1542              		.loc 4 375 3 view .LVU448
 380:Drivers/CMSIS/Include/cmsis_gcc.h **** #else
 1543              		.loc 4 380 4 view .LVU449
 1544              		.syntax unified
 1545              	@ 380 "Drivers/CMSIS/Include/cmsis_gcc.h" 1
 1546 0340 93FAA3F3 		rbit r3, r3
 1547              	@ 0 "" 2
 1548              	.LVL124:
 393:Drivers/CMSIS/Include/cmsis_gcc.h **** }
 1549              		.loc 4 393 3 view .LVU450
 393:Drivers/CMSIS/Include/cmsis_gcc.h **** }
 1550              		.loc 4 393 3 is_stmt 0 view .LVU451
 1551              		.thumb
 1552              		.syntax unified
 1553              	.LBE1006:
 1554              	.LBE1005:
 1555              	.LBB1007:
 1556              	.LBI1007:
 403:Drivers/CMSIS/Include/cmsis_gcc.h **** {
 1557              		.loc 4 403 30 is_stmt 1 view .LVU452
 1558              	.LBB1008:
 414:Drivers/CMSIS/Include/cmsis_gcc.h ****   {
 1559              		.loc 4 414 3 view .LVU453
 414:Drivers/CMSIS/Include/cmsis_gcc.h ****   {
 1560              		.loc 4 414 6 is_stmt 0 view .LVU454
 1561 0344 002B     		cmp	r3, #0
 1562 0346 00F0D280 		beq	.L65
 1563              		.loc 4 418 3 is_stmt 1 view .LVU455
 1564              		.loc 4 418 10 is_stmt 0 view .LVU456
 1565 034a B3FA83F3 		clz	r3, r3
 1566              	.LVL125:
 1567              	.L33:
 1568              		.loc 4 418 10 view .LVU457
 1569              	.LBE1008:
 1570              	.LBE1007:
 415:Drivers/STM32F4xx_HAL_Driver/Inc/stm32f4xx_ll_gpio.h ****              (Speed << (POSITION_VAL(Pin) * 2U)));
 1571              		.loc 3 415 3 view .LVU458
 1572 034e 5B00     		lsls	r3, r3, #1
 1573 0350 0321     		movs	r1, #3
ARM GAS  C:\Users\HP-Admin\AppData\Local\Temp\ccssVuiz.s 			page 59


 1574 0352 01FA03F3 		lsl	r3, r1, r3
 1575 0356 22EA0303 		bic	r3, r2, r3
 1576              	.LVL126:
 1577              	.LBB1010:
 1578              	.LBI1010:
 373:Drivers/CMSIS/Include/cmsis_gcc.h **** {
 1579              		.loc 4 373 31 is_stmt 1 view .LVU459
 1580              	.LBB1011:
 375:Drivers/CMSIS/Include/cmsis_gcc.h **** 
 1581              		.loc 4 375 3 view .LVU460
 380:Drivers/CMSIS/Include/cmsis_gcc.h **** #else
 1582              		.loc 4 380 4 view .LVU461
 393:Drivers/CMSIS/Include/cmsis_gcc.h **** }
 1583              		.loc 4 393 3 view .LVU462
 393:Drivers/CMSIS/Include/cmsis_gcc.h **** }
 1584              		.loc 4 393 3 is_stmt 0 view .LVU463
 1585              	.LBE1011:
 1586              	.LBE1010:
 1587              	.LBE1004:
 1588              	.LBE1003:
 414:Drivers/CMSIS/Include/cmsis_gcc.h ****   {
 1589              		.loc 4 414 3 is_stmt 1 view .LVU464
 1590              	.LBB1015:
 1591              	.LBB1013:
 415:Drivers/STM32F4xx_HAL_Driver/Inc/stm32f4xx_ll_gpio.h ****              (Speed << (POSITION_VAL(Pin) * 2U)));
 1592              		.loc 3 415 3 is_stmt 0 view .LVU465
 1593 035a 6F4A     		ldr	r2, .L79
 1594 035c 9360     		str	r3, [r2, #8]
 1595              	.LVL127:
 415:Drivers/STM32F4xx_HAL_Driver/Inc/stm32f4xx_ll_gpio.h ****              (Speed << (POSITION_VAL(Pin) * 2U)));
 1596              		.loc 3 415 3 view .LVU466
 1597              	.LBE1013:
 1598              	.LBE1015:
 119:Core/Src/Darin3Cart_Driver.c ****     LL_GPIO_SetPinPull(GPIOE, M_D5, LL_GPIO_PULL_NO);
 1599              		.loc 1 119 5 is_stmt 1 view .LVU467
 1600 035e 6F4B     		ldr	r3, .L79+4
 1601 0360 1B88     		ldrh	r3, [r3]
 1602              	.LVL128:
 1603              	.LBB1016:
 1604              	.LBI1016:
 484:Drivers/STM32F4xx_HAL_Driver/Inc/stm32f4xx_ll_gpio.h **** {
 1605              		.loc 3 484 22 view .LVU468
 1606              	.LBB1017:
 1607              		.loc 3 486 3 view .LVU469
 1608 0362 D268     		ldr	r2, [r2, #12]
 1609              	.LVL129:
 1610              	.LBB1018:
 1611              	.LBI1018:
 373:Drivers/CMSIS/Include/cmsis_gcc.h **** {
 1612              		.loc 4 373 31 view .LVU470
 1613              	.LBB1019:
 375:Drivers/CMSIS/Include/cmsis_gcc.h **** 
 1614              		.loc 4 375 3 view .LVU471
 380:Drivers/CMSIS/Include/cmsis_gcc.h **** #else
 1615              		.loc 4 380 4 view .LVU472
 1616              		.syntax unified
 1617              	@ 380 "Drivers/CMSIS/Include/cmsis_gcc.h" 1
ARM GAS  C:\Users\HP-Admin\AppData\Local\Temp\ccssVuiz.s 			page 60


 1618 0364 93FAA3F3 		rbit r3, r3
 1619              	@ 0 "" 2
 1620              	.LVL130:
 393:Drivers/CMSIS/Include/cmsis_gcc.h **** }
 1621              		.loc 4 393 3 view .LVU473
 393:Drivers/CMSIS/Include/cmsis_gcc.h **** }
 1622              		.loc 4 393 3 is_stmt 0 view .LVU474
 1623              		.thumb
 1624              		.syntax unified
 1625              	.LBE1019:
 1626              	.LBE1018:
 1627              	.LBB1020:
 1628              	.LBI1020:
 403:Drivers/CMSIS/Include/cmsis_gcc.h **** {
 1629              		.loc 4 403 30 is_stmt 1 view .LVU475
 1630              	.LBB1021:
 414:Drivers/CMSIS/Include/cmsis_gcc.h ****   {
 1631              		.loc 4 414 3 view .LVU476
 414:Drivers/CMSIS/Include/cmsis_gcc.h ****   {
 1632              		.loc 4 414 6 is_stmt 0 view .LVU477
 1633 0368 002B     		cmp	r3, #0
 1634 036a 00F0C280 		beq	.L66
 1635              		.loc 4 418 3 is_stmt 1 view .LVU478
 1636              		.loc 4 418 10 is_stmt 0 view .LVU479
 1637 036e B3FA83F3 		clz	r3, r3
 1638              	.LVL131:
 1639              	.L34:
 1640              		.loc 4 418 10 view .LVU480
 1641              	.LBE1021:
 1642              	.LBE1020:
 1643              		.loc 3 486 3 view .LVU481
 1644 0372 5B00     		lsls	r3, r3, #1
 1645 0374 0321     		movs	r1, #3
 1646 0376 01FA03F3 		lsl	r3, r1, r3
 1647 037a 22EA0303 		bic	r3, r2, r3
 1648              	.LVL132:
 1649              	.LBB1023:
 1650              	.LBI1023:
 373:Drivers/CMSIS/Include/cmsis_gcc.h **** {
 1651              		.loc 4 373 31 is_stmt 1 view .LVU482
 1652              	.LBB1024:
 375:Drivers/CMSIS/Include/cmsis_gcc.h **** 
 1653              		.loc 4 375 3 view .LVU483
 380:Drivers/CMSIS/Include/cmsis_gcc.h **** #else
 1654              		.loc 4 380 4 view .LVU484
 393:Drivers/CMSIS/Include/cmsis_gcc.h **** }
 1655              		.loc 4 393 3 view .LVU485
 393:Drivers/CMSIS/Include/cmsis_gcc.h **** }
 1656              		.loc 4 393 3 is_stmt 0 view .LVU486
 1657              	.LBE1024:
 1658              	.LBE1023:
 1659              	.LBE1017:
 1660              	.LBE1016:
 414:Drivers/CMSIS/Include/cmsis_gcc.h ****   {
 1661              		.loc 4 414 3 is_stmt 1 view .LVU487
 1662              	.LBB1028:
 1663              	.LBB1026:
ARM GAS  C:\Users\HP-Admin\AppData\Local\Temp\ccssVuiz.s 			page 61


 1664              		.loc 3 486 3 is_stmt 0 view .LVU488
 1665 037e 664A     		ldr	r2, .L79
 1666 0380 D360     		str	r3, [r2, #12]
 1667              	.LVL133:
 1668              		.loc 3 486 3 view .LVU489
 1669              	.LBE1026:
 1670              	.LBE1028:
 120:Core/Src/Darin3Cart_Driver.c **** 
 121:Core/Src/Darin3Cart_Driver.c ****     LL_GPIO_SetPinMode(GPIOE, M_D6, LL_GPIO_MODE_OUTPUT);
 1671              		.loc 1 121 5 is_stmt 1 view .LVU490
 1672 0382 674B     		ldr	r3, .L79+8
 1673 0384 1B88     		ldrh	r3, [r3]
 1674              	.LVL134:
 1675              	.LBB1029:
 1676              	.LBI1029:
 273:Drivers/STM32F4xx_HAL_Driver/Inc/stm32f4xx_ll_gpio.h **** {
 1677              		.loc 3 273 22 view .LVU491
 1678              	.LBB1030:
 275:Drivers/STM32F4xx_HAL_Driver/Inc/stm32f4xx_ll_gpio.h **** }
 1679              		.loc 3 275 3 view .LVU492
 1680 0386 1168     		ldr	r1, [r2]
 1681              	.LVL135:
 1682              	.LBB1031:
 1683              	.LBI1031:
 373:Drivers/CMSIS/Include/cmsis_gcc.h **** {
 1684              		.loc 4 373 31 view .LVU493
 1685              	.LBB1032:
 375:Drivers/CMSIS/Include/cmsis_gcc.h **** 
 1686              		.loc 4 375 3 view .LVU494
 380:Drivers/CMSIS/Include/cmsis_gcc.h **** #else
 1687              		.loc 4 380 4 view .LVU495
 1688              		.syntax unified
 1689              	@ 380 "Drivers/CMSIS/Include/cmsis_gcc.h" 1
 1690 0388 93FAA3F2 		rbit r2, r3
 1691              	@ 0 "" 2
 1692              	.LVL136:
 393:Drivers/CMSIS/Include/cmsis_gcc.h **** }
 1693              		.loc 4 393 3 view .LVU496
 393:Drivers/CMSIS/Include/cmsis_gcc.h **** }
 1694              		.loc 4 393 3 is_stmt 0 view .LVU497
 1695              		.thumb
 1696              		.syntax unified
 1697              	.LBE1032:
 1698              	.LBE1031:
 1699              	.LBB1033:
 1700              	.LBI1033:
 403:Drivers/CMSIS/Include/cmsis_gcc.h **** {
 1701              		.loc 4 403 30 is_stmt 1 view .LVU498
 1702              	.LBB1034:
 414:Drivers/CMSIS/Include/cmsis_gcc.h ****   {
 1703              		.loc 4 414 3 view .LVU499
 414:Drivers/CMSIS/Include/cmsis_gcc.h ****   {
 1704              		.loc 4 414 6 is_stmt 0 view .LVU500
 1705 038c 002A     		cmp	r2, #0
 1706 038e 00F0B280 		beq	.L67
 1707              		.loc 4 418 3 is_stmt 1 view .LVU501
 1708              		.loc 4 418 10 is_stmt 0 view .LVU502
ARM GAS  C:\Users\HP-Admin\AppData\Local\Temp\ccssVuiz.s 			page 62


 1709 0392 B2FA82F2 		clz	r2, r2
 1710              	.LVL137:
 1711              	.L35:
 1712              		.loc 4 418 10 view .LVU503
 1713              	.LBE1034:
 1714              	.LBE1033:
 275:Drivers/STM32F4xx_HAL_Driver/Inc/stm32f4xx_ll_gpio.h **** }
 1715              		.loc 3 275 3 view .LVU504
 1716 0396 5200     		lsls	r2, r2, #1
 1717 0398 0320     		movs	r0, #3
 1718 039a 00FA02F2 		lsl	r2, r0, r2
 1719 039e 21EA0202 		bic	r2, r1, r2
 1720              	.LVL138:
 1721              	.LBB1036:
 1722              	.LBI1036:
 373:Drivers/CMSIS/Include/cmsis_gcc.h **** {
 1723              		.loc 4 373 31 is_stmt 1 view .LVU505
 1724              	.LBB1037:
 375:Drivers/CMSIS/Include/cmsis_gcc.h **** 
 1725              		.loc 4 375 3 view .LVU506
 380:Drivers/CMSIS/Include/cmsis_gcc.h **** #else
 1726              		.loc 4 380 4 view .LVU507
 1727              		.syntax unified
 1728              	@ 380 "Drivers/CMSIS/Include/cmsis_gcc.h" 1
 1729 03a2 93FAA3F3 		rbit r3, r3
 1730              	@ 0 "" 2
 1731              	.LVL139:
 393:Drivers/CMSIS/Include/cmsis_gcc.h **** }
 1732              		.loc 4 393 3 view .LVU508
 393:Drivers/CMSIS/Include/cmsis_gcc.h **** }
 1733              		.loc 4 393 3 is_stmt 0 view .LVU509
 1734              		.thumb
 1735              		.syntax unified
 1736              	.LBE1037:
 1737              	.LBE1036:
 1738              	.LBB1038:
 1739              	.LBI1038:
 403:Drivers/CMSIS/Include/cmsis_gcc.h **** {
 1740              		.loc 4 403 30 is_stmt 1 view .LVU510
 1741              	.LBB1039:
 414:Drivers/CMSIS/Include/cmsis_gcc.h ****   {
 1742              		.loc 4 414 3 view .LVU511
 414:Drivers/CMSIS/Include/cmsis_gcc.h ****   {
 1743              		.loc 4 414 6 is_stmt 0 view .LVU512
 1744 03a6 002B     		cmp	r3, #0
 1745 03a8 00F0A780 		beq	.L68
 1746              		.loc 4 418 3 is_stmt 1 view .LVU513
 1747              		.loc 4 418 10 is_stmt 0 view .LVU514
 1748 03ac B3FA83F3 		clz	r3, r3
 1749              	.LVL140:
 1750              	.L36:
 1751              		.loc 4 418 10 view .LVU515
 1752              	.LBE1039:
 1753              	.LBE1038:
 275:Drivers/STM32F4xx_HAL_Driver/Inc/stm32f4xx_ll_gpio.h **** }
 1754              		.loc 3 275 3 view .LVU516
 1755 03b0 5B00     		lsls	r3, r3, #1
ARM GAS  C:\Users\HP-Admin\AppData\Local\Temp\ccssVuiz.s 			page 63


 1756 03b2 0121     		movs	r1, #1
 1757 03b4 01FA03F3 		lsl	r3, r1, r3
 1758 03b8 1343     		orrs	r3, r3, r2
 1759 03ba 574A     		ldr	r2, .L79
 1760 03bc 1360     		str	r3, [r2]
 1761              	.LVL141:
 275:Drivers/STM32F4xx_HAL_Driver/Inc/stm32f4xx_ll_gpio.h **** }
 1762              		.loc 3 275 3 view .LVU517
 1763              	.LBE1030:
 1764              	.LBE1029:
 122:Core/Src/Darin3Cart_Driver.c ****     LL_GPIO_SetPinOutputType(GPIOE, M_D6, LL_GPIO_OUTPUT_PUSHPULL);
 1765              		.loc 1 122 5 is_stmt 1 view .LVU518
 1766 03be 584B     		ldr	r3, .L79+8
 1767 03c0 1B88     		ldrh	r3, [r3]
 1768              	.LVL142:
 1769              	.LBB1044:
 1770              	.LBI1044:
 342:Drivers/STM32F4xx_HAL_Driver/Inc/stm32f4xx_ll_gpio.h **** {
 1771              		.loc 3 342 22 view .LVU519
 1772              	.LBB1045:
 344:Drivers/STM32F4xx_HAL_Driver/Inc/stm32f4xx_ll_gpio.h **** }
 1773              		.loc 3 344 3 view .LVU520
 1774 03c2 5168     		ldr	r1, [r2, #4]
 1775 03c4 21EA0301 		bic	r1, r1, r3
 1776 03c8 5160     		str	r1, [r2, #4]
 1777              	.LVL143:
 344:Drivers/STM32F4xx_HAL_Driver/Inc/stm32f4xx_ll_gpio.h **** }
 1778              		.loc 3 344 3 is_stmt 0 view .LVU521
 1779              	.LBE1045:
 1780              	.LBE1044:
 123:Core/Src/Darin3Cart_Driver.c ****     LL_GPIO_SetPinSpeed(GPIOE, M_D6, LL_GPIO_SPEED_FREQ_LOW);
 1781              		.loc 1 123 5 is_stmt 1 view .LVU522
 1782              	.LBB1046:
 1783              	.LBI1046:
 413:Drivers/STM32F4xx_HAL_Driver/Inc/stm32f4xx_ll_gpio.h **** {
 1784              		.loc 3 413 22 view .LVU523
 1785              	.LBB1047:
 415:Drivers/STM32F4xx_HAL_Driver/Inc/stm32f4xx_ll_gpio.h ****              (Speed << (POSITION_VAL(Pin) * 2U)));
 1786              		.loc 3 415 3 view .LVU524
 1787 03ca 9268     		ldr	r2, [r2, #8]
 1788              	.LVL144:
 1789              	.LBB1048:
 1790              	.LBI1048:
 373:Drivers/CMSIS/Include/cmsis_gcc.h **** {
 1791              		.loc 4 373 31 view .LVU525
 1792              	.LBB1049:
 375:Drivers/CMSIS/Include/cmsis_gcc.h **** 
 1793              		.loc 4 375 3 view .LVU526
 380:Drivers/CMSIS/Include/cmsis_gcc.h **** #else
 1794              		.loc 4 380 4 view .LVU527
 1795              		.syntax unified
 1796              	@ 380 "Drivers/CMSIS/Include/cmsis_gcc.h" 1
 1797 03cc 93FAA3F3 		rbit r3, r3
 1798              	@ 0 "" 2
 1799              	.LVL145:
 393:Drivers/CMSIS/Include/cmsis_gcc.h **** }
 1800              		.loc 4 393 3 view .LVU528
ARM GAS  C:\Users\HP-Admin\AppData\Local\Temp\ccssVuiz.s 			page 64


 393:Drivers/CMSIS/Include/cmsis_gcc.h **** }
 1801              		.loc 4 393 3 is_stmt 0 view .LVU529
 1802              		.thumb
 1803              		.syntax unified
 1804              	.LBE1049:
 1805              	.LBE1048:
 1806              	.LBB1050:
 1807              	.LBI1050:
 403:Drivers/CMSIS/Include/cmsis_gcc.h **** {
 1808              		.loc 4 403 30 is_stmt 1 view .LVU530
 1809              	.LBB1051:
 414:Drivers/CMSIS/Include/cmsis_gcc.h ****   {
 1810              		.loc 4 414 3 view .LVU531
 414:Drivers/CMSIS/Include/cmsis_gcc.h ****   {
 1811              		.loc 4 414 6 is_stmt 0 view .LVU532
 1812 03d0 002B     		cmp	r3, #0
 1813 03d2 00F09480 		beq	.L69
 1814              		.loc 4 418 3 is_stmt 1 view .LVU533
 1815              		.loc 4 418 10 is_stmt 0 view .LVU534
 1816 03d6 B3FA83F3 		clz	r3, r3
 1817              	.LVL146:
 1818              	.L37:
 1819              		.loc 4 418 10 view .LVU535
 1820              	.LBE1051:
 1821              	.LBE1050:
 415:Drivers/STM32F4xx_HAL_Driver/Inc/stm32f4xx_ll_gpio.h ****              (Speed << (POSITION_VAL(Pin) * 2U)));
 1822              		.loc 3 415 3 view .LVU536
 1823 03da 5B00     		lsls	r3, r3, #1
 1824 03dc 0321     		movs	r1, #3
 1825 03de 01FA03F3 		lsl	r3, r1, r3
 1826 03e2 22EA0303 		bic	r3, r2, r3
 1827              	.LVL147:
 1828              	.LBB1053:
 1829              	.LBI1053:
 373:Drivers/CMSIS/Include/cmsis_gcc.h **** {
 1830              		.loc 4 373 31 is_stmt 1 view .LVU537
 1831              	.LBB1054:
 375:Drivers/CMSIS/Include/cmsis_gcc.h **** 
 1832              		.loc 4 375 3 view .LVU538
 380:Drivers/CMSIS/Include/cmsis_gcc.h **** #else
 1833              		.loc 4 380 4 view .LVU539
 393:Drivers/CMSIS/Include/cmsis_gcc.h **** }
 1834              		.loc 4 393 3 view .LVU540
 393:Drivers/CMSIS/Include/cmsis_gcc.h **** }
 1835              		.loc 4 393 3 is_stmt 0 view .LVU541
 1836              	.LBE1054:
 1837              	.LBE1053:
 1838              	.LBE1047:
 1839              	.LBE1046:
 414:Drivers/CMSIS/Include/cmsis_gcc.h ****   {
 1840              		.loc 4 414 3 is_stmt 1 view .LVU542
 1841              	.LBB1058:
 1842              	.LBB1056:
 415:Drivers/STM32F4xx_HAL_Driver/Inc/stm32f4xx_ll_gpio.h ****              (Speed << (POSITION_VAL(Pin) * 2U)));
 1843              		.loc 3 415 3 is_stmt 0 view .LVU543
 1844 03e6 4C4A     		ldr	r2, .L79
 1845 03e8 9360     		str	r3, [r2, #8]
ARM GAS  C:\Users\HP-Admin\AppData\Local\Temp\ccssVuiz.s 			page 65


 1846              	.LVL148:
 415:Drivers/STM32F4xx_HAL_Driver/Inc/stm32f4xx_ll_gpio.h ****              (Speed << (POSITION_VAL(Pin) * 2U)));
 1847              		.loc 3 415 3 view .LVU544
 1848              	.LBE1056:
 1849              	.LBE1058:
 124:Core/Src/Darin3Cart_Driver.c ****     LL_GPIO_SetPinPull(GPIOE, M_D6, LL_GPIO_PULL_NO);
 1850              		.loc 1 124 5 is_stmt 1 view .LVU545
 1851 03ea 4D4B     		ldr	r3, .L79+8
 1852 03ec 1B88     		ldrh	r3, [r3]
 1853              	.LVL149:
 1854              	.LBB1059:
 1855              	.LBI1059:
 484:Drivers/STM32F4xx_HAL_Driver/Inc/stm32f4xx_ll_gpio.h **** {
 1856              		.loc 3 484 22 view .LVU546
 1857              	.LBB1060:
 1858              		.loc 3 486 3 view .LVU547
 1859 03ee D268     		ldr	r2, [r2, #12]
 1860              	.LVL150:
 1861              	.LBB1061:
 1862              	.LBI1061:
 373:Drivers/CMSIS/Include/cmsis_gcc.h **** {
 1863              		.loc 4 373 31 view .LVU548
 1864              	.LBB1062:
 375:Drivers/CMSIS/Include/cmsis_gcc.h **** 
 1865              		.loc 4 375 3 view .LVU549
 380:Drivers/CMSIS/Include/cmsis_gcc.h **** #else
 1866              		.loc 4 380 4 view .LVU550
 1867              		.syntax unified
 1868              	@ 380 "Drivers/CMSIS/Include/cmsis_gcc.h" 1
 1869 03f0 93FAA3F3 		rbit r3, r3
 1870              	@ 0 "" 2
 1871              	.LVL151:
 393:Drivers/CMSIS/Include/cmsis_gcc.h **** }
 1872              		.loc 4 393 3 view .LVU551
 393:Drivers/CMSIS/Include/cmsis_gcc.h **** }
 1873              		.loc 4 393 3 is_stmt 0 view .LVU552
 1874              		.thumb
 1875              		.syntax unified
 1876              	.LBE1062:
 1877              	.LBE1061:
 1878              	.LBB1063:
 1879              	.LBI1063:
 403:Drivers/CMSIS/Include/cmsis_gcc.h **** {
 1880              		.loc 4 403 30 is_stmt 1 view .LVU553
 1881              	.LBB1064:
 414:Drivers/CMSIS/Include/cmsis_gcc.h ****   {
 1882              		.loc 4 414 3 view .LVU554
 414:Drivers/CMSIS/Include/cmsis_gcc.h ****   {
 1883              		.loc 4 414 6 is_stmt 0 view .LVU555
 1884 03f4 002B     		cmp	r3, #0
 1885 03f6 00F08480 		beq	.L70
 1886              		.loc 4 418 3 is_stmt 1 view .LVU556
 1887              		.loc 4 418 10 is_stmt 0 view .LVU557
 1888 03fa B3FA83F3 		clz	r3, r3
 1889              	.LVL152:
 1890              	.L38:
 1891              		.loc 4 418 10 view .LVU558
ARM GAS  C:\Users\HP-Admin\AppData\Local\Temp\ccssVuiz.s 			page 66


 1892              	.LBE1064:
 1893              	.LBE1063:
 1894              		.loc 3 486 3 view .LVU559
 1895 03fe 5B00     		lsls	r3, r3, #1
 1896 0400 0321     		movs	r1, #3
 1897 0402 01FA03F3 		lsl	r3, r1, r3
 1898 0406 22EA0303 		bic	r3, r2, r3
 1899              	.LVL153:
 1900              	.LBB1066:
 1901              	.LBI1066:
 373:Drivers/CMSIS/Include/cmsis_gcc.h **** {
 1902              		.loc 4 373 31 is_stmt 1 view .LVU560
 1903              	.LBB1067:
 375:Drivers/CMSIS/Include/cmsis_gcc.h **** 
 1904              		.loc 4 375 3 view .LVU561
 380:Drivers/CMSIS/Include/cmsis_gcc.h **** #else
 1905              		.loc 4 380 4 view .LVU562
 393:Drivers/CMSIS/Include/cmsis_gcc.h **** }
 1906              		.loc 4 393 3 view .LVU563
 393:Drivers/CMSIS/Include/cmsis_gcc.h **** }
 1907              		.loc 4 393 3 is_stmt 0 view .LVU564
 1908              	.LBE1067:
 1909              	.LBE1066:
 1910              	.LBE1060:
 1911              	.LBE1059:
 414:Drivers/CMSIS/Include/cmsis_gcc.h ****   {
 1912              		.loc 4 414 3 is_stmt 1 view .LVU565
 1913              	.LBB1071:
 1914              	.LBB1069:
 1915              		.loc 3 486 3 is_stmt 0 view .LVU566
 1916 040a 434A     		ldr	r2, .L79
 1917 040c D360     		str	r3, [r2, #12]
 1918              	.LVL154:
 1919              		.loc 3 486 3 view .LVU567
 1920              	.LBE1069:
 1921              	.LBE1071:
 125:Core/Src/Darin3Cart_Driver.c **** 
 126:Core/Src/Darin3Cart_Driver.c ****     LL_GPIO_SetPinMode(GPIOE, M_D7, LL_GPIO_MODE_OUTPUT);
 1922              		.loc 1 126 5 is_stmt 1 view .LVU568
 1923 040e 454B     		ldr	r3, .L79+12
 1924 0410 1B88     		ldrh	r3, [r3]
 1925              	.LVL155:
 1926              	.LBB1072:
 1927              	.LBI1072:
 273:Drivers/STM32F4xx_HAL_Driver/Inc/stm32f4xx_ll_gpio.h **** {
 1928              		.loc 3 273 22 view .LVU569
 1929              	.LBB1073:
 275:Drivers/STM32F4xx_HAL_Driver/Inc/stm32f4xx_ll_gpio.h **** }
 1930              		.loc 3 275 3 view .LVU570
 1931 0412 1168     		ldr	r1, [r2]
 1932              	.LVL156:
 1933              	.LBB1074:
 1934              	.LBI1074:
 373:Drivers/CMSIS/Include/cmsis_gcc.h **** {
 1935              		.loc 4 373 31 view .LVU571
 1936              	.LBB1075:
 375:Drivers/CMSIS/Include/cmsis_gcc.h **** 
ARM GAS  C:\Users\HP-Admin\AppData\Local\Temp\ccssVuiz.s 			page 67


 1937              		.loc 4 375 3 view .LVU572
 380:Drivers/CMSIS/Include/cmsis_gcc.h **** #else
 1938              		.loc 4 380 4 view .LVU573
 1939              		.syntax unified
 1940              	@ 380 "Drivers/CMSIS/Include/cmsis_gcc.h" 1
 1941 0414 93FAA3F2 		rbit r2, r3
 1942              	@ 0 "" 2
 1943              	.LVL157:
 393:Drivers/CMSIS/Include/cmsis_gcc.h **** }
 1944              		.loc 4 393 3 view .LVU574
 393:Drivers/CMSIS/Include/cmsis_gcc.h **** }
 1945              		.loc 4 393 3 is_stmt 0 view .LVU575
 1946              		.thumb
 1947              		.syntax unified
 1948              	.LBE1075:
 1949              	.LBE1074:
 1950              	.LBB1076:
 1951              	.LBI1076:
 403:Drivers/CMSIS/Include/cmsis_gcc.h **** {
 1952              		.loc 4 403 30 is_stmt 1 view .LVU576
 1953              	.LBB1077:
 414:Drivers/CMSIS/Include/cmsis_gcc.h ****   {
 1954              		.loc 4 414 3 view .LVU577
 414:Drivers/CMSIS/Include/cmsis_gcc.h ****   {
 1955              		.loc 4 414 6 is_stmt 0 view .LVU578
 1956 0418 002A     		cmp	r2, #0
 1957 041a 74D0     		beq	.L71
 1958              		.loc 4 418 3 is_stmt 1 view .LVU579
 1959              		.loc 4 418 10 is_stmt 0 view .LVU580
 1960 041c B2FA82F2 		clz	r2, r2
 1961              	.LVL158:
 1962              	.L39:
 1963              		.loc 4 418 10 view .LVU581
 1964              	.LBE1077:
 1965              	.LBE1076:
 275:Drivers/STM32F4xx_HAL_Driver/Inc/stm32f4xx_ll_gpio.h **** }
 1966              		.loc 3 275 3 view .LVU582
 1967 0420 5200     		lsls	r2, r2, #1
 1968 0422 0320     		movs	r0, #3
 1969 0424 00FA02F2 		lsl	r2, r0, r2
 1970 0428 21EA0202 		bic	r2, r1, r2
 1971              	.LVL159:
 1972              	.LBB1079:
 1973              	.LBI1079:
 373:Drivers/CMSIS/Include/cmsis_gcc.h **** {
 1974              		.loc 4 373 31 is_stmt 1 view .LVU583
 1975              	.LBB1080:
 375:Drivers/CMSIS/Include/cmsis_gcc.h **** 
 1976              		.loc 4 375 3 view .LVU584
 380:Drivers/CMSIS/Include/cmsis_gcc.h **** #else
 1977              		.loc 4 380 4 view .LVU585
 1978              		.syntax unified
 1979              	@ 380 "Drivers/CMSIS/Include/cmsis_gcc.h" 1
 1980 042c 93FAA3F3 		rbit r3, r3
 1981              	@ 0 "" 2
 1982              	.LVL160:
 393:Drivers/CMSIS/Include/cmsis_gcc.h **** }
ARM GAS  C:\Users\HP-Admin\AppData\Local\Temp\ccssVuiz.s 			page 68


 1983              		.loc 4 393 3 view .LVU586
 393:Drivers/CMSIS/Include/cmsis_gcc.h **** }
 1984              		.loc 4 393 3 is_stmt 0 view .LVU587
 1985              		.thumb
 1986              		.syntax unified
 1987              	.LBE1080:
 1988              	.LBE1079:
 1989              	.LBB1081:
 1990              	.LBI1081:
 403:Drivers/CMSIS/Include/cmsis_gcc.h **** {
 1991              		.loc 4 403 30 is_stmt 1 view .LVU588
 1992              	.LBB1082:
 414:Drivers/CMSIS/Include/cmsis_gcc.h ****   {
 1993              		.loc 4 414 3 view .LVU589
 414:Drivers/CMSIS/Include/cmsis_gcc.h ****   {
 1994              		.loc 4 414 6 is_stmt 0 view .LVU590
 1995 0430 002B     		cmp	r3, #0
 1996 0432 6AD0     		beq	.L72
 1997              		.loc 4 418 3 is_stmt 1 view .LVU591
 1998              		.loc 4 418 10 is_stmt 0 view .LVU592
 1999 0434 B3FA83F3 		clz	r3, r3
 2000              	.LVL161:
 2001              	.L40:
 2002              		.loc 4 418 10 view .LVU593
 2003              	.LBE1082:
 2004              	.LBE1081:
 275:Drivers/STM32F4xx_HAL_Driver/Inc/stm32f4xx_ll_gpio.h **** }
 2005              		.loc 3 275 3 view .LVU594
 2006 0438 5B00     		lsls	r3, r3, #1
 2007 043a 0121     		movs	r1, #1
 2008 043c 01FA03F3 		lsl	r3, r1, r3
 2009 0440 1343     		orrs	r3, r3, r2
 2010 0442 354A     		ldr	r2, .L79
 2011 0444 1360     		str	r3, [r2]
 2012              	.LVL162:
 275:Drivers/STM32F4xx_HAL_Driver/Inc/stm32f4xx_ll_gpio.h **** }
 2013              		.loc 3 275 3 view .LVU595
 2014              	.LBE1073:
 2015              	.LBE1072:
 127:Core/Src/Darin3Cart_Driver.c ****     LL_GPIO_SetPinOutputType(GPIOE, M_D7, LL_GPIO_OUTPUT_PUSHPULL);
 2016              		.loc 1 127 5 is_stmt 1 view .LVU596
 2017 0446 374B     		ldr	r3, .L79+12
 2018 0448 1B88     		ldrh	r3, [r3]
 2019              	.LVL163:
 2020              	.LBB1087:
 2021              	.LBI1087:
 342:Drivers/STM32F4xx_HAL_Driver/Inc/stm32f4xx_ll_gpio.h **** {
 2022              		.loc 3 342 22 view .LVU597
 2023              	.LBB1088:
 344:Drivers/STM32F4xx_HAL_Driver/Inc/stm32f4xx_ll_gpio.h **** }
 2024              		.loc 3 344 3 view .LVU598
 2025 044a 5168     		ldr	r1, [r2, #4]
 2026 044c 21EA0301 		bic	r1, r1, r3
 2027 0450 5160     		str	r1, [r2, #4]
 2028              	.LVL164:
 344:Drivers/STM32F4xx_HAL_Driver/Inc/stm32f4xx_ll_gpio.h **** }
 2029              		.loc 3 344 3 is_stmt 0 view .LVU599
ARM GAS  C:\Users\HP-Admin\AppData\Local\Temp\ccssVuiz.s 			page 69


 2030              	.LBE1088:
 2031              	.LBE1087:
 128:Core/Src/Darin3Cart_Driver.c ****     LL_GPIO_SetPinSpeed(GPIOE, M_D7, LL_GPIO_SPEED_FREQ_LOW);
 2032              		.loc 1 128 5 is_stmt 1 view .LVU600
 2033              	.LBB1089:
 2034              	.LBI1089:
 413:Drivers/STM32F4xx_HAL_Driver/Inc/stm32f4xx_ll_gpio.h **** {
 2035              		.loc 3 413 22 view .LVU601
 2036              	.LBB1090:
 415:Drivers/STM32F4xx_HAL_Driver/Inc/stm32f4xx_ll_gpio.h ****              (Speed << (POSITION_VAL(Pin) * 2U)));
 2037              		.loc 3 415 3 view .LVU602
 2038 0452 9268     		ldr	r2, [r2, #8]
 2039              	.LVL165:
 2040              	.LBB1091:
 2041              	.LBI1091:
 373:Drivers/CMSIS/Include/cmsis_gcc.h **** {
 2042              		.loc 4 373 31 view .LVU603
 2043              	.LBB1092:
 375:Drivers/CMSIS/Include/cmsis_gcc.h **** 
 2044              		.loc 4 375 3 view .LVU604
 380:Drivers/CMSIS/Include/cmsis_gcc.h **** #else
 2045              		.loc 4 380 4 view .LVU605
 2046              		.syntax unified
 2047              	@ 380 "Drivers/CMSIS/Include/cmsis_gcc.h" 1
 2048 0454 93FAA3F3 		rbit r3, r3
 2049              	@ 0 "" 2
 2050              	.LVL166:
 393:Drivers/CMSIS/Include/cmsis_gcc.h **** }
 2051              		.loc 4 393 3 view .LVU606
 393:Drivers/CMSIS/Include/cmsis_gcc.h **** }
 2052              		.loc 4 393 3 is_stmt 0 view .LVU607
 2053              		.thumb
 2054              		.syntax unified
 2055              	.LBE1092:
 2056              	.LBE1091:
 2057              	.LBB1093:
 2058              	.LBI1093:
 403:Drivers/CMSIS/Include/cmsis_gcc.h **** {
 2059              		.loc 4 403 30 is_stmt 1 view .LVU608
 2060              	.LBB1094:
 414:Drivers/CMSIS/Include/cmsis_gcc.h ****   {
 2061              		.loc 4 414 3 view .LVU609
 414:Drivers/CMSIS/Include/cmsis_gcc.h ****   {
 2062              		.loc 4 414 6 is_stmt 0 view .LVU610
 2063 0458 002B     		cmp	r3, #0
 2064 045a 58D0     		beq	.L73
 2065              		.loc 4 418 3 is_stmt 1 view .LVU611
 2066              		.loc 4 418 10 is_stmt 0 view .LVU612
 2067 045c B3FA83F3 		clz	r3, r3
 2068              	.LVL167:
 2069              	.L41:
 2070              		.loc 4 418 10 view .LVU613
 2071              	.LBE1094:
 2072              	.LBE1093:
 415:Drivers/STM32F4xx_HAL_Driver/Inc/stm32f4xx_ll_gpio.h ****              (Speed << (POSITION_VAL(Pin) * 2U)));
 2073              		.loc 3 415 3 view .LVU614
 2074 0460 5B00     		lsls	r3, r3, #1
ARM GAS  C:\Users\HP-Admin\AppData\Local\Temp\ccssVuiz.s 			page 70


 2075 0462 0321     		movs	r1, #3
 2076 0464 01FA03F3 		lsl	r3, r1, r3
 2077 0468 22EA0303 		bic	r3, r2, r3
 2078              	.LVL168:
 2079              	.LBB1096:
 2080              	.LBI1096:
 373:Drivers/CMSIS/Include/cmsis_gcc.h **** {
 2081              		.loc 4 373 31 is_stmt 1 view .LVU615
 2082              	.LBB1097:
 375:Drivers/CMSIS/Include/cmsis_gcc.h **** 
 2083              		.loc 4 375 3 view .LVU616
 380:Drivers/CMSIS/Include/cmsis_gcc.h **** #else
 2084              		.loc 4 380 4 view .LVU617
 393:Drivers/CMSIS/Include/cmsis_gcc.h **** }
 2085              		.loc 4 393 3 view .LVU618
 393:Drivers/CMSIS/Include/cmsis_gcc.h **** }
 2086              		.loc 4 393 3 is_stmt 0 view .LVU619
 2087              	.LBE1097:
 2088              	.LBE1096:
 2089              	.LBE1090:
 2090              	.LBE1089:
 414:Drivers/CMSIS/Include/cmsis_gcc.h ****   {
 2091              		.loc 4 414 3 is_stmt 1 view .LVU620
 2092              	.LBB1101:
 2093              	.LBB1099:
 415:Drivers/STM32F4xx_HAL_Driver/Inc/stm32f4xx_ll_gpio.h ****              (Speed << (POSITION_VAL(Pin) * 2U)));
 2094              		.loc 3 415 3 is_stmt 0 view .LVU621
 2095 046c 2A4A     		ldr	r2, .L79
 2096 046e 9360     		str	r3, [r2, #8]
 2097              	.LVL169:
 415:Drivers/STM32F4xx_HAL_Driver/Inc/stm32f4xx_ll_gpio.h ****              (Speed << (POSITION_VAL(Pin) * 2U)));
 2098              		.loc 3 415 3 view .LVU622
 2099              	.LBE1099:
 2100              	.LBE1101:
 129:Core/Src/Darin3Cart_Driver.c ****     LL_GPIO_SetPinPull(GPIOE, M_D7, LL_GPIO_PULL_NO);
 2101              		.loc 1 129 5 is_stmt 1 view .LVU623
 2102 0470 2C4B     		ldr	r3, .L79+12
 2103 0472 1B88     		ldrh	r3, [r3]
 2104              	.LVL170:
 2105              	.LBB1102:
 2106              	.LBI1102:
 484:Drivers/STM32F4xx_HAL_Driver/Inc/stm32f4xx_ll_gpio.h **** {
 2107              		.loc 3 484 22 view .LVU624
 2108              	.LBB1103:
 2109              		.loc 3 486 3 view .LVU625
 2110 0474 D268     		ldr	r2, [r2, #12]
 2111              	.LVL171:
 2112              	.LBB1104:
 2113              	.LBI1104:
 373:Drivers/CMSIS/Include/cmsis_gcc.h **** {
 2114              		.loc 4 373 31 view .LVU626
 2115              	.LBB1105:
 375:Drivers/CMSIS/Include/cmsis_gcc.h **** 
 2116              		.loc 4 375 3 view .LVU627
 380:Drivers/CMSIS/Include/cmsis_gcc.h **** #else
 2117              		.loc 4 380 4 view .LVU628
 2118              		.syntax unified
ARM GAS  C:\Users\HP-Admin\AppData\Local\Temp\ccssVuiz.s 			page 71


 2119              	@ 380 "Drivers/CMSIS/Include/cmsis_gcc.h" 1
 2120 0476 93FAA3F3 		rbit r3, r3
 2121              	@ 0 "" 2
 2122              	.LVL172:
 393:Drivers/CMSIS/Include/cmsis_gcc.h **** }
 2123              		.loc 4 393 3 view .LVU629
 393:Drivers/CMSIS/Include/cmsis_gcc.h **** }
 2124              		.loc 4 393 3 is_stmt 0 view .LVU630
 2125              		.thumb
 2126              		.syntax unified
 2127              	.LBE1105:
 2128              	.LBE1104:
 2129              	.LBB1106:
 2130              	.LBI1106:
 403:Drivers/CMSIS/Include/cmsis_gcc.h **** {
 2131              		.loc 4 403 30 is_stmt 1 view .LVU631
 2132              	.LBB1107:
 414:Drivers/CMSIS/Include/cmsis_gcc.h ****   {
 2133              		.loc 4 414 3 view .LVU632
 414:Drivers/CMSIS/Include/cmsis_gcc.h ****   {
 2134              		.loc 4 414 6 is_stmt 0 view .LVU633
 2135 047a 002B     		cmp	r3, #0
 2136 047c 49D0     		beq	.L74
 2137              		.loc 4 418 3 is_stmt 1 view .LVU634
 2138              		.loc 4 418 10 is_stmt 0 view .LVU635
 2139 047e B3FA83F3 		clz	r3, r3
 2140              	.LVL173:
 2141              	.L42:
 2142              		.loc 4 418 10 view .LVU636
 2143              	.LBE1107:
 2144              	.LBE1106:
 2145              		.loc 3 486 3 view .LVU637
 2146 0482 5B00     		lsls	r3, r3, #1
 2147 0484 0321     		movs	r1, #3
 2148 0486 01FA03F3 		lsl	r3, r1, r3
 2149 048a 22EA0303 		bic	r3, r2, r3
 2150              	.LVL174:
 2151              	.LBB1109:
 2152              	.LBI1109:
 373:Drivers/CMSIS/Include/cmsis_gcc.h **** {
 2153              		.loc 4 373 31 is_stmt 1 view .LVU638
 2154              	.LBB1110:
 375:Drivers/CMSIS/Include/cmsis_gcc.h **** 
 2155              		.loc 4 375 3 view .LVU639
 380:Drivers/CMSIS/Include/cmsis_gcc.h **** #else
 2156              		.loc 4 380 4 view .LVU640
 393:Drivers/CMSIS/Include/cmsis_gcc.h **** }
 2157              		.loc 4 393 3 view .LVU641
 393:Drivers/CMSIS/Include/cmsis_gcc.h **** }
 2158              		.loc 4 393 3 is_stmt 0 view .LVU642
 2159              	.LBE1110:
 2160              	.LBE1109:
 2161              	.LBE1103:
 2162              	.LBE1102:
 414:Drivers/CMSIS/Include/cmsis_gcc.h ****   {
 2163              		.loc 4 414 3 is_stmt 1 view .LVU643
 2164              	.LBB1114:
ARM GAS  C:\Users\HP-Admin\AppData\Local\Temp\ccssVuiz.s 			page 72


 2165              	.LBB1112:
 2166              		.loc 3 486 3 is_stmt 0 view .LVU644
 2167 048e 224A     		ldr	r2, .L79
 2168 0490 D360     		str	r3, [r2, #12]
 2169              	.LVL175:
 2170              		.loc 3 486 3 view .LVU645
 2171              	.LBE1112:
 2172              	.LBE1114:
 130:Core/Src/Darin3Cart_Driver.c **** }
 2173              		.loc 1 130 1 view .LVU646
 2174 0492 02B0     		add	sp, sp, #8
 2175              	.LCFI1:
 2176              		.cfi_remember_state
 2177              		.cfi_def_cfa_offset 0
 2178              		@ sp needed
 2179 0494 7047     		bx	lr
 2180              	.LVL176:
 2181              	.L43:
 2182              	.LCFI2:
 2183              		.cfi_restore_state
 2184              	.LBB1115:
 2185              	.LBB785:
 2186              	.LBB783:
 2187              	.LBB777:
 416:Drivers/CMSIS/Include/cmsis_gcc.h ****   }
 2188              		.loc 4 416 12 view .LVU647
 2189 0496 2022     		movs	r2, #32
 2190              	.LVL177:
 416:Drivers/CMSIS/Include/cmsis_gcc.h ****   }
 2191              		.loc 4 416 12 view .LVU648
 2192 0498 C8E5     		b	.L11
 2193              	.LVL178:
 2194              	.L44:
 416:Drivers/CMSIS/Include/cmsis_gcc.h ****   }
 2195              		.loc 4 416 12 view .LVU649
 2196              	.LBE777:
 2197              	.LBE783:
 2198              	.LBB784:
 2199              	.LBB782:
 2200 049a 2023     		movs	r3, #32
 2201              	.LVL179:
 416:Drivers/CMSIS/Include/cmsis_gcc.h ****   }
 2202              		.loc 4 416 12 view .LVU650
 2203 049c D3E5     		b	.L12
 2204              	.LVL180:
 2205              	.L45:
 416:Drivers/CMSIS/Include/cmsis_gcc.h ****   }
 2206              		.loc 4 416 12 view .LVU651
 2207              	.LBE782:
 2208              	.LBE784:
 2209              	.LBE785:
 2210              	.LBE1115:
 2211              	.LBB1116:
 2212              	.LBB799:
 2213              	.LBB797:
 2214              	.LBB794:
 2215 049e 2023     		movs	r3, #32
ARM GAS  C:\Users\HP-Admin\AppData\Local\Temp\ccssVuiz.s 			page 73


 2216              	.LVL181:
 416:Drivers/CMSIS/Include/cmsis_gcc.h ****   }
 2217              		.loc 4 416 12 view .LVU652
 2218 04a0 E6E5     		b	.L13
 2219              	.LVL182:
 2220              	.L46:
 416:Drivers/CMSIS/Include/cmsis_gcc.h ****   }
 2221              		.loc 4 416 12 view .LVU653
 2222              	.LBE794:
 2223              	.LBE797:
 2224              	.LBE799:
 2225              	.LBE1116:
 2226              	.LBB1117:
 2227              	.LBB812:
 2228              	.LBB810:
 2229              	.LBB807:
 2230 04a2 2023     		movs	r3, #32
 2231              	.LVL183:
 416:Drivers/CMSIS/Include/cmsis_gcc.h ****   }
 2232              		.loc 4 416 12 view .LVU654
 2233 04a4 F6E5     		b	.L14
 2234              	.LVL184:
 2235              	.L47:
 416:Drivers/CMSIS/Include/cmsis_gcc.h ****   }
 2236              		.loc 4 416 12 view .LVU655
 2237              	.LBE807:
 2238              	.LBE810:
 2239              	.LBE812:
 2240              	.LBE1117:
 2241              	.LBB1118:
 2242              	.LBB828:
 2243              	.LBB826:
 2244              	.LBB820:
 2245 04a6 2022     		movs	r2, #32
 2246              	.LVL185:
 416:Drivers/CMSIS/Include/cmsis_gcc.h ****   }
 2247              		.loc 4 416 12 view .LVU656
 2248 04a8 06E6     		b	.L15
 2249              	.LVL186:
 2250              	.L48:
 416:Drivers/CMSIS/Include/cmsis_gcc.h ****   }
 2251              		.loc 4 416 12 view .LVU657
 2252              	.LBE820:
 2253              	.LBE826:
 2254              	.LBB827:
 2255              	.LBB825:
 2256 04aa 2023     		movs	r3, #32
 2257              	.LVL187:
 416:Drivers/CMSIS/Include/cmsis_gcc.h ****   }
 2258              		.loc 4 416 12 view .LVU658
 2259 04ac 11E6     		b	.L16
 2260              	.LVL188:
 2261              	.L49:
 416:Drivers/CMSIS/Include/cmsis_gcc.h ****   }
 2262              		.loc 4 416 12 view .LVU659
 2263              	.LBE825:
 2264              	.LBE827:
ARM GAS  C:\Users\HP-Admin\AppData\Local\Temp\ccssVuiz.s 			page 74


 2265              	.LBE828:
 2266              	.LBE1118:
 2267              	.LBB1119:
 2268              	.LBB842:
 2269              	.LBB840:
 2270              	.LBB837:
 2271 04ae 2023     		movs	r3, #32
 2272              	.LVL189:
 416:Drivers/CMSIS/Include/cmsis_gcc.h ****   }
 2273              		.loc 4 416 12 view .LVU660
 2274 04b0 24E6     		b	.L17
 2275              	.LVL190:
 2276              	.L50:
 416:Drivers/CMSIS/Include/cmsis_gcc.h ****   }
 2277              		.loc 4 416 12 view .LVU661
 2278              	.LBE837:
 2279              	.LBE840:
 2280              	.LBE842:
 2281              	.LBE1119:
 2282              	.LBB1120:
 2283              	.LBB855:
 2284              	.LBB853:
 2285              	.LBB850:
 2286 04b2 2023     		movs	r3, #32
 2287              	.LVL191:
 416:Drivers/CMSIS/Include/cmsis_gcc.h ****   }
 2288              		.loc 4 416 12 view .LVU662
 2289 04b4 34E6     		b	.L18
 2290              	.LVL192:
 2291              	.L51:
 416:Drivers/CMSIS/Include/cmsis_gcc.h ****   }
 2292              		.loc 4 416 12 view .LVU663
 2293              	.LBE850:
 2294              	.LBE853:
 2295              	.LBE855:
 2296              	.LBE1120:
 2297              	.LBB1121:
 2298              	.LBB871:
 2299              	.LBB869:
 2300              	.LBB863:
 2301 04b6 2022     		movs	r2, #32
 2302              	.LVL193:
 416:Drivers/CMSIS/Include/cmsis_gcc.h ****   }
 2303              		.loc 4 416 12 view .LVU664
 2304 04b8 44E6     		b	.L19
 2305              	.LVL194:
 2306              	.L52:
 416:Drivers/CMSIS/Include/cmsis_gcc.h ****   }
 2307              		.loc 4 416 12 view .LVU665
 2308              	.LBE863:
 2309              	.LBE869:
 2310              	.LBB870:
 2311              	.LBB868:
 2312 04ba 2023     		movs	r3, #32
 2313              	.LVL195:
 416:Drivers/CMSIS/Include/cmsis_gcc.h ****   }
 2314              		.loc 4 416 12 view .LVU666
ARM GAS  C:\Users\HP-Admin\AppData\Local\Temp\ccssVuiz.s 			page 75


 2315 04bc 4FE6     		b	.L20
 2316              	.LVL196:
 2317              	.L53:
 416:Drivers/CMSIS/Include/cmsis_gcc.h ****   }
 2318              		.loc 4 416 12 view .LVU667
 2319              	.LBE868:
 2320              	.LBE870:
 2321              	.LBE871:
 2322              	.LBE1121:
 2323              	.LBB1122:
 2324              	.LBB885:
 2325              	.LBB883:
 2326              	.LBB880:
 2327 04be 2023     		movs	r3, #32
 2328              	.LVL197:
 416:Drivers/CMSIS/Include/cmsis_gcc.h ****   }
 2329              		.loc 4 416 12 view .LVU668
 2330 04c0 62E6     		b	.L21
 2331              	.LVL198:
 2332              	.L54:
 416:Drivers/CMSIS/Include/cmsis_gcc.h ****   }
 2333              		.loc 4 416 12 view .LVU669
 2334              	.LBE880:
 2335              	.LBE883:
 2336              	.LBE885:
 2337              	.LBE1122:
 2338              	.LBB1123:
 2339              	.LBB898:
 2340              	.LBB896:
 2341              	.LBB893:
 2342 04c2 2023     		movs	r3, #32
 2343              	.LVL199:
 416:Drivers/CMSIS/Include/cmsis_gcc.h ****   }
