ARM GAS  C:\Users\HP-Admin\AppData\Local\Temp\ccY0w7x3.s 			page 1


   1              		.cpu cortex-m4
   2              		.arch armv7e-m
   3              		.fpu fpv4-sp-d16
   4              		.eabi_attribute 27, 1
   5              		.eabi_attribute 28, 1
   6              		.eabi_attribute 20, 1
   7              		.eabi_attribute 21, 1
   8              		.eabi_attribute 23, 3
   9              		.eabi_attribute 24, 1
  10              		.eabi_attribute 25, 1
  11              		.eabi_attribute 26, 1
  12              		.eabi_attribute 30, 1
  13              		.eabi_attribute 34, 1
  14              		.eabi_attribute 18, 4
  15              		.file	"ff.c"
  16              		.text
  17              	.Ltext0:
  18              		.cfi_sections	.debug_frame
  19              		.section	.text.ld_word,"ax",%progbits
  20              		.align	1
  21              		.syntax unified
  22              		.thumb
  23              		.thumb_func
  25              	ld_word:
  26              	.LVL0:
  27              	.LFB0:
  28              		.file 1 "Core/Src/FAT/ff.c"
   1:Core/Src/FAT/ff.c **** /*----------------------------------------------------------------------------/
   2:Core/Src/FAT/ff.c **** /  FatFs - Generic FAT Filesystem Module  R0.15 w/patch1                      /
   3:Core/Src/FAT/ff.c **** /-----------------------------------------------------------------------------/
   4:Core/Src/FAT/ff.c **** /
   5:Core/Src/FAT/ff.c **** / Copyright (C) 2022, ChaN, all right reserved.
   6:Core/Src/FAT/ff.c **** /
   7:Core/Src/FAT/ff.c **** / FatFs module is an open source software. Redistribution and use of FatFs in
   8:Core/Src/FAT/ff.c **** / source and binary forms, with or without modification, are permitted provided
   9:Core/Src/FAT/ff.c **** / that the following condition is met:
  10:Core/Src/FAT/ff.c **** /
  11:Core/Src/FAT/ff.c **** / 1. Redistributions of source code must retain the above copyright notice,
  12:Core/Src/FAT/ff.c **** /    this condition and the following disclaimer.
  13:Core/Src/FAT/ff.c **** /
  14:Core/Src/FAT/ff.c **** / This software is provided by the copyright holder and contributors "AS IS"
  15:Core/Src/FAT/ff.c **** / and any warranties related to this software are DISCLAIMED.
  16:Core/Src/FAT/ff.c **** / The copyright owner or contributors be NOT LIABLE for any damages caused
  17:Core/Src/FAT/ff.c **** / by use of this software.
  18:Core/Src/FAT/ff.c **** /
  19:Core/Src/FAT/ff.c **** /----------------------------------------------------------------------------*/
  20:Core/Src/FAT/ff.c **** 
  21:Core/Src/FAT/ff.c **** 
  22:Core/Src/FAT/ff.c **** #include <string.h>
  23:Core/Src/FAT/ff.c **** #include "ff.h"			/* Declarations of FatFs API */
  24:Core/Src/FAT/ff.c **** #include "diskio.h"		/* Declarations of device I/O functions */
  25:Core/Src/FAT/ff.c **** 
  26:Core/Src/FAT/ff.c **** 
  27:Core/Src/FAT/ff.c **** /*--------------------------------------------------------------------------
  28:Core/Src/FAT/ff.c **** 
  29:Core/Src/FAT/ff.c ****    Module Private Definitions
  30:Core/Src/FAT/ff.c **** 
ARM GAS  C:\Users\HP-Admin\AppData\Local\Temp\ccY0w7x3.s 			page 2


  31:Core/Src/FAT/ff.c **** ---------------------------------------------------------------------------*/
  32:Core/Src/FAT/ff.c **** 
  33:Core/Src/FAT/ff.c **** #if FF_DEFINED != 80286	/* Revision ID */
  34:Core/Src/FAT/ff.c **** #error Wrong include file (ff.h).
  35:Core/Src/FAT/ff.c **** #endif
  36:Core/Src/FAT/ff.c **** 
  37:Core/Src/FAT/ff.c **** 
  38:Core/Src/FAT/ff.c **** /* Limits and boundaries */
  39:Core/Src/FAT/ff.c **** #define MAX_DIR		0x200000		/* Max size of FAT directory */
  40:Core/Src/FAT/ff.c **** #define MAX_DIR_EX	0x10000000		/* Max size of exFAT directory */
  41:Core/Src/FAT/ff.c **** #define MAX_FAT12	0xFF5			/* Max FAT12 clusters (differs from specs, but right for real DOS/Windows
  42:Core/Src/FAT/ff.c **** #define MAX_FAT16	0xFFF5			/* Max FAT16 clusters (differs from specs, but right for real DOS/Window
  43:Core/Src/FAT/ff.c **** #define MAX_FAT32	0x0FFFFFF5		/* Max FAT32 clusters (not specified, practical limit) */
  44:Core/Src/FAT/ff.c **** #define MAX_EXFAT	0x7FFFFFFD		/* Max exFAT clusters (differs from specs, implementation limit) */
  45:Core/Src/FAT/ff.c **** 
  46:Core/Src/FAT/ff.c **** 
  47:Core/Src/FAT/ff.c **** /* Character code support macros */
  48:Core/Src/FAT/ff.c **** #define IsUpper(c)		((c) >= 'A' && (c) <= 'Z')
  49:Core/Src/FAT/ff.c **** #define IsLower(c)		((c) >= 'a' && (c) <= 'z')
  50:Core/Src/FAT/ff.c **** #define IsDigit(c)		((c) >= '0' && (c) <= '9')
  51:Core/Src/FAT/ff.c **** #define IsSeparator(c)	((c) == '/' || (c) == '\\')
  52:Core/Src/FAT/ff.c **** #define IsTerminator(c)	((UINT)(c) < (FF_USE_LFN ? ' ' : '!'))
  53:Core/Src/FAT/ff.c **** #define IsSurrogate(c)	((c) >= 0xD800 && (c) <= 0xDFFF)
  54:Core/Src/FAT/ff.c **** #define IsSurrogateH(c)	((c) >= 0xD800 && (c) <= 0xDBFF)
  55:Core/Src/FAT/ff.c **** #define IsSurrogateL(c)	((c) >= 0xDC00 && (c) <= 0xDFFF)
  56:Core/Src/FAT/ff.c **** 
  57:Core/Src/FAT/ff.c **** 
  58:Core/Src/FAT/ff.c **** /* Additional file access control and file status flags for internal use */
  59:Core/Src/FAT/ff.c **** #define FA_SEEKEND	0x20	/* Seek to end of the file on file open */
  60:Core/Src/FAT/ff.c **** #define FA_MODIFIED	0x40	/* File has been modified */
  61:Core/Src/FAT/ff.c **** #define FA_DIRTY	0x80	/* FIL.buf[] needs to be written-back */
  62:Core/Src/FAT/ff.c **** 
  63:Core/Src/FAT/ff.c **** 
  64:Core/Src/FAT/ff.c **** /* Additional file attribute bits for internal use */
  65:Core/Src/FAT/ff.c **** #define AM_VOL		0x08	/* Volume label */
  66:Core/Src/FAT/ff.c **** #define AM_LFN		0x0F	/* LFN entry */
  67:Core/Src/FAT/ff.c **** #define AM_MASK		0x3F	/* Mask of defined bits in FAT */
  68:Core/Src/FAT/ff.c **** #define AM_MASKX	0x37	/* Mask of defined bits in exFAT */
  69:Core/Src/FAT/ff.c **** 
  70:Core/Src/FAT/ff.c **** 
  71:Core/Src/FAT/ff.c **** /* Name status flags in fn[11] */
  72:Core/Src/FAT/ff.c **** #define NSFLAG		11		/* Index of the name status byte */
  73:Core/Src/FAT/ff.c **** #define NS_LOSS		0x01	/* Out of 8.3 format */
  74:Core/Src/FAT/ff.c **** #define NS_LFN		0x02	/* Force to create LFN entry */
  75:Core/Src/FAT/ff.c **** #define NS_LAST		0x04	/* Last segment */
  76:Core/Src/FAT/ff.c **** #define NS_BODY		0x08	/* Lower case flag (body) */
  77:Core/Src/FAT/ff.c **** #define NS_EXT		0x10	/* Lower case flag (ext) */
  78:Core/Src/FAT/ff.c **** #define NS_DOT		0x20	/* Dot entry */
  79:Core/Src/FAT/ff.c **** #define NS_NOLFN	0x40	/* Do not find LFN */
  80:Core/Src/FAT/ff.c **** #define NS_NONAME	0x80	/* Not followed */
  81:Core/Src/FAT/ff.c **** 
  82:Core/Src/FAT/ff.c **** 
  83:Core/Src/FAT/ff.c **** /* exFAT directory entry types */
  84:Core/Src/FAT/ff.c **** #define	ET_BITMAP	0x81	/* Allocation bitmap */
  85:Core/Src/FAT/ff.c **** #define	ET_UPCASE	0x82	/* Up-case table */
  86:Core/Src/FAT/ff.c **** #define	ET_VLABEL	0x83	/* Volume label */
  87:Core/Src/FAT/ff.c **** #define	ET_FILEDIR	0x85	/* File and directory */
ARM GAS  C:\Users\HP-Admin\AppData\Local\Temp\ccY0w7x3.s 			page 3


  88:Core/Src/FAT/ff.c **** #define	ET_STREAM	0xC0	/* Stream extension */
  89:Core/Src/FAT/ff.c **** #define	ET_FILENAME	0xC1	/* Name extension */
  90:Core/Src/FAT/ff.c **** 
  91:Core/Src/FAT/ff.c **** 
  92:Core/Src/FAT/ff.c **** /* FatFs refers the FAT structure as simple byte array instead of structure member
  93:Core/Src/FAT/ff.c **** / because the C structure is not binary compatible between different platforms */
  94:Core/Src/FAT/ff.c **** 
  95:Core/Src/FAT/ff.c **** #define BS_JmpBoot			0		/* x86 jump instruction (3-byte) */
  96:Core/Src/FAT/ff.c **** #define BS_OEMName			3		/* OEM name (8-byte) */
  97:Core/Src/FAT/ff.c **** #define BPB_BytsPerSec		11		/* Sector size [byte] (WORD) */
  98:Core/Src/FAT/ff.c **** #define BPB_SecPerClus		13		/* Cluster size [sector] (BYTE) */
  99:Core/Src/FAT/ff.c **** #define BPB_RsvdSecCnt		14		/* Size of reserved area [sector] (WORD) */
 100:Core/Src/FAT/ff.c **** #define BPB_NumFATs			16		/* Number of FATs (BYTE) */
 101:Core/Src/FAT/ff.c **** #define BPB_RootEntCnt		17		/* Size of root directory area for FAT [entry] (WORD) */
 102:Core/Src/FAT/ff.c **** #define BPB_TotSec16		19		/* Volume size (16-bit) [sector] (WORD) */
 103:Core/Src/FAT/ff.c **** #define BPB_Media			21		/* Media descriptor byte (BYTE) */
 104:Core/Src/FAT/ff.c **** #define BPB_FATSz16			22		/* FAT size (16-bit) [sector] (WORD) */
 105:Core/Src/FAT/ff.c **** #define BPB_SecPerTrk		24		/* Number of sectors per track for int13h [sector] (WORD) */
 106:Core/Src/FAT/ff.c **** #define BPB_NumHeads		26		/* Number of heads for int13h (WORD) */
 107:Core/Src/FAT/ff.c **** #define BPB_HiddSec			28		/* Volume offset from top of the drive (DWORD) */
 108:Core/Src/FAT/ff.c **** #define BPB_TotSec32		32		/* Volume size (32-bit) [sector] (DWORD) */
 109:Core/Src/FAT/ff.c **** #define BS_DrvNum			36		/* Physical drive number for int13h (BYTE) */
 110:Core/Src/FAT/ff.c **** #define BS_NTres			37		/* WindowsNT error flag (BYTE) */
 111:Core/Src/FAT/ff.c **** #define BS_BootSig			38		/* Extended boot signature (BYTE) */
 112:Core/Src/FAT/ff.c **** #define BS_VolID			39		/* Volume serial number (DWORD) */
 113:Core/Src/FAT/ff.c **** #define BS_VolLab			43		/* Volume label string (8-byte) */
 114:Core/Src/FAT/ff.c **** #define BS_FilSysType		54		/* Filesystem type string (8-byte) */
 115:Core/Src/FAT/ff.c **** #define BS_BootCode			62		/* Boot code (448-byte) */
 116:Core/Src/FAT/ff.c **** #define BS_55AA				510		/* Signature word (WORD) */
 117:Core/Src/FAT/ff.c **** 
 118:Core/Src/FAT/ff.c **** #define BPB_FATSz32			36		/* FAT32: FAT size [sector] (DWORD) */
 119:Core/Src/FAT/ff.c **** #define BPB_ExtFlags32		40		/* FAT32: Extended flags (WORD) */
 120:Core/Src/FAT/ff.c **** #define BPB_FSVer32			42		/* FAT32: Filesystem version (WORD) */
 121:Core/Src/FAT/ff.c **** #define BPB_RootClus32		44		/* FAT32: Root directory cluster (DWORD) */
 122:Core/Src/FAT/ff.c **** #define BPB_FSInfo32		48		/* FAT32: Offset of FSINFO sector (WORD) */
 123:Core/Src/FAT/ff.c **** #define BPB_BkBootSec32		50		/* FAT32: Offset of backup boot sector (WORD) */
 124:Core/Src/FAT/ff.c **** #define BS_DrvNum32			64		/* FAT32: Physical drive number for int13h (BYTE) */
 125:Core/Src/FAT/ff.c **** #define BS_NTres32			65		/* FAT32: Error flag (BYTE) */
 126:Core/Src/FAT/ff.c **** #define BS_BootSig32		66		/* FAT32: Extended boot signature (BYTE) */
 127:Core/Src/FAT/ff.c **** #define BS_VolID32			67		/* FAT32: Volume serial number (DWORD) */
 128:Core/Src/FAT/ff.c **** #define BS_VolLab32			71		/* FAT32: Volume label string (8-byte) */
 129:Core/Src/FAT/ff.c **** #define BS_FilSysType32		82		/* FAT32: Filesystem type string (8-byte) */
 130:Core/Src/FAT/ff.c **** #define BS_BootCode32		90		/* FAT32: Boot code (420-byte) */
 131:Core/Src/FAT/ff.c **** 
 132:Core/Src/FAT/ff.c **** #define BPB_ZeroedEx		11		/* exFAT: MBZ field (53-byte) */
 133:Core/Src/FAT/ff.c **** #define BPB_VolOfsEx		64		/* exFAT: Volume offset from top of the drive [sector] (QWORD) */
 134:Core/Src/FAT/ff.c **** #define BPB_TotSecEx		72		/* exFAT: Volume size [sector] (QWORD) */
 135:Core/Src/FAT/ff.c **** #define BPB_FatOfsEx		80		/* exFAT: FAT offset from top of the volume [sector] (DWORD) */
 136:Core/Src/FAT/ff.c **** #define BPB_FatSzEx			84		/* exFAT: FAT size [sector] (DWORD) */
 137:Core/Src/FAT/ff.c **** #define BPB_DataOfsEx		88		/* exFAT: Data offset from top of the volume [sector] (DWORD) */
 138:Core/Src/FAT/ff.c **** #define BPB_NumClusEx		92		/* exFAT: Number of clusters (DWORD) */
 139:Core/Src/FAT/ff.c **** #define BPB_RootClusEx		96		/* exFAT: Root directory start cluster (DWORD) */
 140:Core/Src/FAT/ff.c **** #define BPB_VolIDEx			100		/* exFAT: Volume serial number (DWORD) */
 141:Core/Src/FAT/ff.c **** #define BPB_FSVerEx			104		/* exFAT: Filesystem version (WORD) */
 142:Core/Src/FAT/ff.c **** #define BPB_VolFlagEx		106		/* exFAT: Volume flags (WORD) */
 143:Core/Src/FAT/ff.c **** #define BPB_BytsPerSecEx	108		/* exFAT: Log2 of sector size in unit of byte (BYTE) */
 144:Core/Src/FAT/ff.c **** #define BPB_SecPerClusEx	109		/* exFAT: Log2 of cluster size in unit of sector (BYTE) */
ARM GAS  C:\Users\HP-Admin\AppData\Local\Temp\ccY0w7x3.s 			page 4


 145:Core/Src/FAT/ff.c **** #define BPB_NumFATsEx		110		/* exFAT: Number of FATs (BYTE) */
 146:Core/Src/FAT/ff.c **** #define BPB_DrvNumEx		111		/* exFAT: Physical drive number for int13h (BYTE) */
 147:Core/Src/FAT/ff.c **** #define BPB_PercInUseEx		112		/* exFAT: Percent in use (BYTE) */
 148:Core/Src/FAT/ff.c **** #define BPB_RsvdEx			113		/* exFAT: Reserved (7-byte) */
 149:Core/Src/FAT/ff.c **** #define BS_BootCodeEx		120		/* exFAT: Boot code (390-byte) */
 150:Core/Src/FAT/ff.c **** 
 151:Core/Src/FAT/ff.c **** #define DIR_Name			0		/* Short file name (11-byte) */
 152:Core/Src/FAT/ff.c **** #define DIR_Attr			11		/* Attribute (BYTE) */
 153:Core/Src/FAT/ff.c **** #define DIR_NTres			12		/* Lower case flag (BYTE) */
 154:Core/Src/FAT/ff.c **** #define DIR_CrtTime10		13		/* Created time sub-second (BYTE) */
 155:Core/Src/FAT/ff.c **** #define DIR_CrtTime			14		/* Created time (DWORD) */
 156:Core/Src/FAT/ff.c **** #define DIR_LstAccDate		18		/* Last accessed date (WORD) */
 157:Core/Src/FAT/ff.c **** #define DIR_FstClusHI		20		/* Higher 16-bit of first cluster (WORD) */
 158:Core/Src/FAT/ff.c **** #define DIR_ModTime			22		/* Modified time (DWORD) */
 159:Core/Src/FAT/ff.c **** #define DIR_FstClusLO		26		/* Lower 16-bit of first cluster (WORD) */
 160:Core/Src/FAT/ff.c **** #define DIR_FileSize		28		/* File size (DWORD) */
 161:Core/Src/FAT/ff.c **** #define LDIR_Ord			0		/* LFN: LFN order and LLE flag (BYTE) */
 162:Core/Src/FAT/ff.c **** #define LDIR_Attr			11		/* LFN: LFN attribute (BYTE) */
 163:Core/Src/FAT/ff.c **** #define LDIR_Type			12		/* LFN: Entry type (BYTE) */
 164:Core/Src/FAT/ff.c **** #define LDIR_Chksum			13		/* LFN: Checksum of the SFN (BYTE) */
 165:Core/Src/FAT/ff.c **** #define LDIR_FstClusLO		26		/* LFN: MBZ field (WORD) */
 166:Core/Src/FAT/ff.c **** #define XDIR_Type			0		/* exFAT: Type of exFAT directory entry (BYTE) */
 167:Core/Src/FAT/ff.c **** #define XDIR_NumLabel		1		/* exFAT: Number of volume label characters (BYTE) */
 168:Core/Src/FAT/ff.c **** #define XDIR_Label			2		/* exFAT: Volume label (11-WORD) */
 169:Core/Src/FAT/ff.c **** #define XDIR_CaseSum		4		/* exFAT: Sum of case conversion table (DWORD) */
 170:Core/Src/FAT/ff.c **** #define XDIR_NumSec			1		/* exFAT: Number of secondary entries (BYTE) */
 171:Core/Src/FAT/ff.c **** #define XDIR_SetSum			2		/* exFAT: Sum of the set of directory entries (WORD) */
 172:Core/Src/FAT/ff.c **** #define XDIR_Attr			4		/* exFAT: File attribute (WORD) */
 173:Core/Src/FAT/ff.c **** #define XDIR_CrtTime		8		/* exFAT: Created time (DWORD) */
 174:Core/Src/FAT/ff.c **** #define XDIR_ModTime		12		/* exFAT: Modified time (DWORD) */
 175:Core/Src/FAT/ff.c **** #define XDIR_AccTime		16		/* exFAT: Last accessed time (DWORD) */
 176:Core/Src/FAT/ff.c **** #define XDIR_CrtTime10		20		/* exFAT: Created time subsecond (BYTE) */
 177:Core/Src/FAT/ff.c **** #define XDIR_ModTime10		21		/* exFAT: Modified time subsecond (BYTE) */
 178:Core/Src/FAT/ff.c **** #define XDIR_CrtTZ			22		/* exFAT: Created timezone (BYTE) */
 179:Core/Src/FAT/ff.c **** #define XDIR_ModTZ			23		/* exFAT: Modified timezone (BYTE) */
 180:Core/Src/FAT/ff.c **** #define XDIR_AccTZ			24		/* exFAT: Last accessed timezone (BYTE) */
 181:Core/Src/FAT/ff.c **** #define XDIR_GenFlags		33		/* exFAT: General secondary flags (BYTE) */
 182:Core/Src/FAT/ff.c **** #define XDIR_NumName		35		/* exFAT: Number of file name characters (BYTE) */
 183:Core/Src/FAT/ff.c **** #define XDIR_NameHash		36		/* exFAT: Hash of file name (WORD) */
 184:Core/Src/FAT/ff.c **** #define XDIR_ValidFileSize	40		/* exFAT: Valid file size (QWORD) */
 185:Core/Src/FAT/ff.c **** #define XDIR_FstClus		52		/* exFAT: First cluster of the file data (DWORD) */
 186:Core/Src/FAT/ff.c **** #define XDIR_FileSize		56		/* exFAT: File/Directory size (QWORD) */
 187:Core/Src/FAT/ff.c **** 
 188:Core/Src/FAT/ff.c **** #define SZDIRE				32		/* Size of a directory entry */
 189:Core/Src/FAT/ff.c **** #define DDEM				0xE5	/* Deleted directory entry mark set to DIR_Name[0] */
 190:Core/Src/FAT/ff.c **** #define RDDEM				0x05	/* Replacement of the character collides with DDEM */
 191:Core/Src/FAT/ff.c **** #define LLEF				0x40	/* Last long entry flag in LDIR_Ord */
 192:Core/Src/FAT/ff.c **** 
 193:Core/Src/FAT/ff.c **** #define FSI_LeadSig			0		/* FAT32 FSI: Leading signature (DWORD) */
 194:Core/Src/FAT/ff.c **** #define FSI_StrucSig		484		/* FAT32 FSI: Structure signature (DWORD) */
 195:Core/Src/FAT/ff.c **** #define FSI_Free_Count		488		/* FAT32 FSI: Number of free clusters (DWORD) */
 196:Core/Src/FAT/ff.c **** #define FSI_Nxt_Free		492		/* FAT32 FSI: Last allocated cluster (DWORD) */
 197:Core/Src/FAT/ff.c **** 
 198:Core/Src/FAT/ff.c **** #define MBR_Table			446		/* MBR: Offset of partition table in the MBR */
 199:Core/Src/FAT/ff.c **** #define SZ_PTE				16		/* MBR: Size of a partition table entry */
 200:Core/Src/FAT/ff.c **** #define PTE_Boot			0		/* MBR PTE: Boot indicator */
 201:Core/Src/FAT/ff.c **** #define PTE_StHead			1		/* MBR PTE: Start head */
ARM GAS  C:\Users\HP-Admin\AppData\Local\Temp\ccY0w7x3.s 			page 5


 202:Core/Src/FAT/ff.c **** #define PTE_StSec			2		/* MBR PTE: Start sector */
 203:Core/Src/FAT/ff.c **** #define PTE_StCyl			3		/* MBR PTE: Start cylinder */
 204:Core/Src/FAT/ff.c **** #define PTE_System			4		/* MBR PTE: System ID */
 205:Core/Src/FAT/ff.c **** #define PTE_EdHead			5		/* MBR PTE: End head */
 206:Core/Src/FAT/ff.c **** #define PTE_EdSec			6		/* MBR PTE: End sector */
 207:Core/Src/FAT/ff.c **** #define PTE_EdCyl			7		/* MBR PTE: End cylinder */
 208:Core/Src/FAT/ff.c **** #define PTE_StLba			8		/* MBR PTE: Start in LBA */
 209:Core/Src/FAT/ff.c **** #define PTE_SizLba			12		/* MBR PTE: Size in LBA */
 210:Core/Src/FAT/ff.c **** 
 211:Core/Src/FAT/ff.c **** #define GPTH_Sign			0		/* GPT HDR: Signature (8-byte) */
 212:Core/Src/FAT/ff.c **** #define GPTH_Rev			8		/* GPT HDR: Revision (DWORD) */
 213:Core/Src/FAT/ff.c **** #define GPTH_Size			12		/* GPT HDR: Header size (DWORD) */
 214:Core/Src/FAT/ff.c **** #define GPTH_Bcc			16		/* GPT HDR: Header BCC (DWORD) */
 215:Core/Src/FAT/ff.c **** #define GPTH_CurLba			24		/* GPT HDR: This header LBA (QWORD) */
 216:Core/Src/FAT/ff.c **** #define GPTH_BakLba			32		/* GPT HDR: Another header LBA (QWORD) */
 217:Core/Src/FAT/ff.c **** #define GPTH_FstLba			40		/* GPT HDR: First LBA for partition data (QWORD) */
 218:Core/Src/FAT/ff.c **** #define GPTH_LstLba			48		/* GPT HDR: Last LBA for partition data (QWORD) */
 219:Core/Src/FAT/ff.c **** #define GPTH_DskGuid		56		/* GPT HDR: Disk GUID (16-byte) */
 220:Core/Src/FAT/ff.c **** #define GPTH_PtOfs			72		/* GPT HDR: Partition table LBA (QWORD) */
 221:Core/Src/FAT/ff.c **** #define GPTH_PtNum			80		/* GPT HDR: Number of table entries (DWORD) */
 222:Core/Src/FAT/ff.c **** #define GPTH_PteSize		84		/* GPT HDR: Size of table entry (DWORD) */
 223:Core/Src/FAT/ff.c **** #define GPTH_PtBcc			88		/* GPT HDR: Partition table BCC (DWORD) */
 224:Core/Src/FAT/ff.c **** #define SZ_GPTE				128		/* GPT PTE: Size of partition table entry */
 225:Core/Src/FAT/ff.c **** #define GPTE_PtGuid			0		/* GPT PTE: Partition type GUID (16-byte) */
 226:Core/Src/FAT/ff.c **** #define GPTE_UpGuid			16		/* GPT PTE: Partition unique GUID (16-byte) */
 227:Core/Src/FAT/ff.c **** #define GPTE_FstLba			32		/* GPT PTE: First LBA of partition (QWORD) */
 228:Core/Src/FAT/ff.c **** #define GPTE_LstLba			40		/* GPT PTE: Last LBA of partition (QWORD) */
 229:Core/Src/FAT/ff.c **** #define GPTE_Flags			48		/* GPT PTE: Partition flags (QWORD) */
 230:Core/Src/FAT/ff.c **** #define GPTE_Name			56		/* GPT PTE: Partition name */
 231:Core/Src/FAT/ff.c **** 
 232:Core/Src/FAT/ff.c **** 
 233:Core/Src/FAT/ff.c **** /* Post process on fatal error in the file operations */
 234:Core/Src/FAT/ff.c **** #define ABORT(fs, res)		{ fp->err = (BYTE)(res); LEAVE_FF(fs, res); }
 235:Core/Src/FAT/ff.c **** 
 236:Core/Src/FAT/ff.c **** 
 237:Core/Src/FAT/ff.c **** /* Re-entrancy related */
 238:Core/Src/FAT/ff.c **** #if FF_FS_REENTRANT
 239:Core/Src/FAT/ff.c **** #if FF_USE_LFN == 1
 240:Core/Src/FAT/ff.c **** #error Static LFN work area cannot be used in thread-safe configuration
 241:Core/Src/FAT/ff.c **** #endif
 242:Core/Src/FAT/ff.c **** #define LEAVE_FF(fs, res)	{ unlock_volume(fs, res); return res; }
 243:Core/Src/FAT/ff.c **** #else
 244:Core/Src/FAT/ff.c **** #define LEAVE_FF(fs, res)	return res
 245:Core/Src/FAT/ff.c **** #endif
 246:Core/Src/FAT/ff.c **** 
 247:Core/Src/FAT/ff.c **** 
 248:Core/Src/FAT/ff.c **** /* Definitions of logical drive - physical location conversion */
 249:Core/Src/FAT/ff.c **** #if FF_MULTI_PARTITION
 250:Core/Src/FAT/ff.c **** #define LD2PD(vol) VolToPart[vol].pd	/* Get physical drive number */
 251:Core/Src/FAT/ff.c **** #define LD2PT(vol) VolToPart[vol].pt	/* Get partition number (0:auto search, 1..:forced partition n
 252:Core/Src/FAT/ff.c **** #else
 253:Core/Src/FAT/ff.c **** #define LD2PD(vol) (BYTE)(vol)	/* Each logical drive is associated with the same physical drive num
 254:Core/Src/FAT/ff.c **** #define LD2PT(vol) 0			/* Auto partition search */
 255:Core/Src/FAT/ff.c **** #endif
 256:Core/Src/FAT/ff.c **** 
 257:Core/Src/FAT/ff.c **** 
 258:Core/Src/FAT/ff.c **** /* Definitions of sector size */
ARM GAS  C:\Users\HP-Admin\AppData\Local\Temp\ccY0w7x3.s 			page 6


 259:Core/Src/FAT/ff.c **** #if (FF_MAX_SS < FF_MIN_SS) || (FF_MAX_SS != 512 && FF_MAX_SS != 1024 && FF_MAX_SS != 2048 && FF_MA
 260:Core/Src/FAT/ff.c **** #error Wrong sector size configuration
 261:Core/Src/FAT/ff.c **** #endif
 262:Core/Src/FAT/ff.c **** #if FF_MAX_SS == FF_MIN_SS
 263:Core/Src/FAT/ff.c **** #define SS(fs)	((UINT)FF_MAX_SS)	/* Fixed sector size */
 264:Core/Src/FAT/ff.c **** #else
 265:Core/Src/FAT/ff.c **** #define SS(fs)	((fs)->ssize)	/* Variable sector size */
 266:Core/Src/FAT/ff.c **** #endif
 267:Core/Src/FAT/ff.c **** 
 268:Core/Src/FAT/ff.c **** 
 269:Core/Src/FAT/ff.c **** /* Timestamp */
 270:Core/Src/FAT/ff.c **** #if FF_FS_NORTC == 1
 271:Core/Src/FAT/ff.c **** #if FF_NORTC_YEAR < 1980 || FF_NORTC_YEAR > 2107 || FF_NORTC_MON < 1 || FF_NORTC_MON > 12 || FF_NOR
 272:Core/Src/FAT/ff.c **** #error Invalid FF_FS_NORTC settings
 273:Core/Src/FAT/ff.c **** #endif
 274:Core/Src/FAT/ff.c **** #define GET_FATTIME()	((DWORD)(FF_NORTC_YEAR - 1980) << 25 | (DWORD)FF_NORTC_MON << 21 | (DWORD)FF_
 275:Core/Src/FAT/ff.c **** #else
 276:Core/Src/FAT/ff.c **** #define GET_FATTIME()	get_fattime()
 277:Core/Src/FAT/ff.c **** #endif
 278:Core/Src/FAT/ff.c **** 
 279:Core/Src/FAT/ff.c **** 
 280:Core/Src/FAT/ff.c **** /* File lock controls */
 281:Core/Src/FAT/ff.c **** #if FF_FS_LOCK
 282:Core/Src/FAT/ff.c **** #if FF_FS_READONLY
 283:Core/Src/FAT/ff.c **** #error FF_FS_LOCK must be 0 at read-only configuration
 284:Core/Src/FAT/ff.c **** #endif
 285:Core/Src/FAT/ff.c **** typedef struct {
 286:Core/Src/FAT/ff.c **** 	FATFS* fs;		/* Object ID 1, volume (NULL:blank entry) */
 287:Core/Src/FAT/ff.c **** 	DWORD clu;		/* Object ID 2, containing directory (0:root) */
 288:Core/Src/FAT/ff.c **** 	DWORD ofs;		/* Object ID 3, offset in the directory */
 289:Core/Src/FAT/ff.c **** 	UINT ctr;		/* Object open counter, 0:none, 0x01..0xFF:read mode open count, 0x100:write mode */
 290:Core/Src/FAT/ff.c **** } FILESEM;
 291:Core/Src/FAT/ff.c **** #endif
 292:Core/Src/FAT/ff.c **** 
 293:Core/Src/FAT/ff.c **** 
 294:Core/Src/FAT/ff.c **** /* SBCS up-case tables (\x80-\xFF) */
 295:Core/Src/FAT/ff.c **** #define TBL_CT437  {0x80,0x9A,0x45,0x41,0x8E,0x41,0x8F,0x80,0x45,0x45,0x45,0x49,0x49,0x49,0x8E,0x8F
 296:Core/Src/FAT/ff.c **** 					0x90,0x92,0x92,0x4F,0x99,0x4F,0x55,0x55,0x59,0x99,0x9A,0x9B,0x9C,0x9D,0x9E,0x9F, \
 297:Core/Src/FAT/ff.c **** 					0x41,0x49,0x4F,0x55,0xA5,0xA5,0xA6,0xA7,0xA8,0xA9,0xAA,0xAB,0xAC,0xAD,0xAE,0xAF, \
 298:Core/Src/FAT/ff.c **** 					0xB0,0xB1,0xB2,0xB3,0xB4,0xB5,0xB6,0xB7,0xB8,0xB9,0xBA,0xBB,0xBC,0xBD,0xBE,0xBF, \
 299:Core/Src/FAT/ff.c **** 					0xC0,0xC1,0xC2,0xC3,0xC4,0xC5,0xC6,0xC7,0xC8,0xC9,0xCA,0xCB,0xCC,0xCD,0xCE,0xCF, \
 300:Core/Src/FAT/ff.c **** 					0xD0,0xD1,0xD2,0xD3,0xD4,0xD5,0xD6,0xD7,0xD8,0xD9,0xDA,0xDB,0xDC,0xDD,0xDE,0xDF, \
 301:Core/Src/FAT/ff.c **** 					0xE0,0xE1,0xE2,0xE3,0xE4,0xE5,0xE6,0xE7,0xE8,0xE9,0xEA,0xEB,0xEC,0xED,0xEE,0xEF, \
 302:Core/Src/FAT/ff.c **** 					0xF0,0xF1,0xF2,0xF3,0xF4,0xF5,0xF6,0xF7,0xF8,0xF9,0xFA,0xFB,0xFC,0xFD,0xFE,0xFF}
 303:Core/Src/FAT/ff.c **** #define TBL_CT720  {0x80,0x81,0x82,0x83,0x84,0x85,0x86,0x87,0x88,0x89,0x8A,0x8B,0x8C,0x8D,0x8E,0x8F
 304:Core/Src/FAT/ff.c **** 					0x90,0x91,0x92,0x93,0x94,0x95,0x96,0x97,0x98,0x99,0x9A,0x9B,0x9C,0x9D,0x9E,0x9F, \
 305:Core/Src/FAT/ff.c **** 					0xA0,0xA1,0xA2,0xA3,0xA4,0xA5,0xA6,0xA7,0xA8,0xA9,0xAA,0xAB,0xAC,0xAD,0xAE,0xAF, \
 306:Core/Src/FAT/ff.c **** 					0xB0,0xB1,0xB2,0xB3,0xB4,0xB5,0xB6,0xB7,0xB8,0xB9,0xBA,0xBB,0xBC,0xBD,0xBE,0xBF, \
 307:Core/Src/FAT/ff.c **** 					0xC0,0xC1,0xC2,0xC3,0xC4,0xC5,0xC6,0xC7,0xC8,0xC9,0xCA,0xCB,0xCC,0xCD,0xCE,0xCF, \
 308:Core/Src/FAT/ff.c **** 					0xD0,0xD1,0xD2,0xD3,0xD4,0xD5,0xD6,0xD7,0xD8,0xD9,0xDA,0xDB,0xDC,0xDD,0xDE,0xDF, \
 309:Core/Src/FAT/ff.c **** 					0xE0,0xE1,0xE2,0xE3,0xE4,0xE5,0xE6,0xE7,0xE8,0xE9,0xEA,0xEB,0xEC,0xED,0xEE,0xEF, \
 310:Core/Src/FAT/ff.c **** 					0xF0,0xF1,0xF2,0xF3,0xF4,0xF5,0xF6,0xF7,0xF8,0xF9,0xFA,0xFB,0xFC,0xFD,0xFE,0xFF}
 311:Core/Src/FAT/ff.c **** #define TBL_CT737  {0x80,0x81,0x82,0x83,0x84,0x85,0x86,0x87,0x88,0x89,0x8A,0x8B,0x8C,0x8D,0x8E,0x8F
 312:Core/Src/FAT/ff.c **** 					0x90,0x92,0x92,0x93,0x94,0x95,0x96,0x97,0x80,0x81,0x82,0x83,0x84,0x85,0x86,0x87, \
 313:Core/Src/FAT/ff.c **** 					0x88,0x89,0x8A,0x8B,0x8C,0x8D,0x8E,0x8F,0x90,0x91,0xAA,0x92,0x93,0x94,0x95,0x96, \
 314:Core/Src/FAT/ff.c **** 					0xB0,0xB1,0xB2,0xB3,0xB4,0xB5,0xB6,0xB7,0xB8,0xB9,0xBA,0xBB,0xBC,0xBD,0xBE,0xBF, \
 315:Core/Src/FAT/ff.c **** 					0xC0,0xC1,0xC2,0xC3,0xC4,0xC5,0xC6,0xC7,0xC8,0xC9,0xCA,0xCB,0xCC,0xCD,0xCE,0xCF, \
ARM GAS  C:\Users\HP-Admin\AppData\Local\Temp\ccY0w7x3.s 			page 7


 316:Core/Src/FAT/ff.c **** 					0xD0,0xD1,0xD2,0xD3,0xD4,0xD5,0xD6,0xD7,0xD8,0xD9,0xDA,0xDB,0xDC,0xDD,0xDE,0xDF, \
 317:Core/Src/FAT/ff.c **** 					0x97,0xEA,0xEB,0xEC,0xE4,0xED,0xEE,0xEF,0xF5,0xF0,0xEA,0xEB,0xEC,0xED,0xEE,0xEF, \
 318:Core/Src/FAT/ff.c **** 					0xF0,0xF1,0xF2,0xF3,0xF4,0xF5,0xF6,0xF7,0xF8,0xF9,0xFA,0xFB,0xFC,0xFD,0xFE,0xFF}
 319:Core/Src/FAT/ff.c **** #define TBL_CT771  {0x80,0x81,0x82,0x83,0x84,0x85,0x86,0x87,0x88,0x89,0x8A,0x8B,0x8C,0x8D,0x8E,0x8F
 320:Core/Src/FAT/ff.c **** 					0x90,0x91,0x92,0x93,0x94,0x95,0x96,0x97,0x98,0x99,0x9A,0x9B,0x9C,0x9D,0x9E,0x9F, \
 321:Core/Src/FAT/ff.c **** 					0x80,0x81,0x82,0x83,0x84,0x85,0x86,0x87,0x88,0x89,0x8A,0x8B,0x8C,0x8D,0x8E,0x8F, \
 322:Core/Src/FAT/ff.c **** 					0xB0,0xB1,0xB2,0xB3,0xB4,0xB5,0xB6,0xB7,0xB8,0xB9,0xBA,0xBB,0xBC,0xBD,0xBE,0xBF, \
 323:Core/Src/FAT/ff.c **** 					0xC0,0xC1,0xC2,0xC3,0xC4,0xC5,0xC6,0xC7,0xC8,0xC9,0xCA,0xCB,0xCC,0xCD,0xCE,0xCF, \
 324:Core/Src/FAT/ff.c **** 					0xD0,0xD1,0xD2,0xD3,0xD4,0xD5,0xD6,0xD7,0xD8,0xD9,0xDA,0xDB,0xDC,0xDC,0xDE,0xDE, \
 325:Core/Src/FAT/ff.c **** 					0x90,0x91,0x92,0x93,0x94,0x95,0x96,0x97,0x98,0x99,0x9A,0x9B,0x9C,0x9D,0x9E,0x9F, \
 326:Core/Src/FAT/ff.c **** 					0xF0,0xF0,0xF2,0xF2,0xF4,0xF4,0xF6,0xF6,0xF8,0xF8,0xFA,0xFA,0xFC,0xFC,0xFE,0xFF}
 327:Core/Src/FAT/ff.c **** #define TBL_CT775  {0x80,0x9A,0x91,0xA0,0x8E,0x95,0x8F,0x80,0xAD,0xED,0x8A,0x8A,0xA1,0x8D,0x8E,0x8F
 328:Core/Src/FAT/ff.c **** 					0x90,0x92,0x92,0xE2,0x99,0x95,0x96,0x97,0x97,0x99,0x9A,0x9D,0x9C,0x9D,0x9E,0x9F, \
 329:Core/Src/FAT/ff.c **** 					0xA0,0xA1,0xE0,0xA3,0xA3,0xA5,0xA6,0xA7,0xA8,0xA9,0xAA,0xAB,0xAC,0xAD,0xAE,0xAF, \
 330:Core/Src/FAT/ff.c **** 					0xB0,0xB1,0xB2,0xB3,0xB4,0xB5,0xB6,0xB7,0xB8,0xB9,0xBA,0xBB,0xBC,0xBD,0xBE,0xBF, \
 331:Core/Src/FAT/ff.c **** 					0xC0,0xC1,0xC2,0xC3,0xC4,0xC5,0xC6,0xC7,0xC8,0xC9,0xCA,0xCB,0xCC,0xCD,0xCE,0xCF, \
 332:Core/Src/FAT/ff.c **** 					0xB5,0xB6,0xB7,0xB8,0xBD,0xBE,0xC6,0xC7,0xA5,0xD9,0xDA,0xDB,0xDC,0xDD,0xDE,0xDF, \
 333:Core/Src/FAT/ff.c **** 					0xE0,0xE1,0xE2,0xE3,0xE5,0xE5,0xE6,0xE3,0xE8,0xE8,0xEA,0xEA,0xEE,0xED,0xEE,0xEF, \
 334:Core/Src/FAT/ff.c **** 					0xF0,0xF1,0xF2,0xF3,0xF4,0xF5,0xF6,0xF7,0xF8,0xF9,0xFA,0xFB,0xFC,0xFD,0xFE,0xFF}
 335:Core/Src/FAT/ff.c **** #define TBL_CT850  {0x43,0x55,0x45,0x41,0x41,0x41,0x41,0x43,0x45,0x45,0x45,0x49,0x49,0x49,0x41,0x41
 336:Core/Src/FAT/ff.c **** 					0x45,0x92,0x92,0x4F,0x4F,0x4F,0x55,0x55,0x59,0x4F,0x55,0x4F,0x9C,0x4F,0x9E,0x9F, \
 337:Core/Src/FAT/ff.c **** 					0x41,0x49,0x4F,0x55,0xA5,0xA5,0xA6,0xA7,0xA8,0xA9,0xAA,0xAB,0xAC,0xAD,0xAE,0xAF, \
 338:Core/Src/FAT/ff.c **** 					0xB0,0xB1,0xB2,0xB3,0xB4,0x41,0x41,0x41,0xB8,0xB9,0xBA,0xBB,0xBC,0xBD,0xBE,0xBF, \
 339:Core/Src/FAT/ff.c **** 					0xC0,0xC1,0xC2,0xC3,0xC4,0xC5,0x41,0x41,0xC8,0xC9,0xCA,0xCB,0xCC,0xCD,0xCE,0xCF, \
 340:Core/Src/FAT/ff.c **** 					0xD1,0xD1,0x45,0x45,0x45,0x49,0x49,0x49,0x49,0xD9,0xDA,0xDB,0xDC,0xDD,0x49,0xDF, \
 341:Core/Src/FAT/ff.c **** 					0x4F,0xE1,0x4F,0x4F,0x4F,0x4F,0xE6,0xE8,0xE8,0x55,0x55,0x55,0x59,0x59,0xEE,0xEF, \
 342:Core/Src/FAT/ff.c **** 					0xF0,0xF1,0xF2,0xF3,0xF4,0xF5,0xF6,0xF7,0xF8,0xF9,0xFA,0xFB,0xFC,0xFD,0xFE,0xFF}
 343:Core/Src/FAT/ff.c **** #define TBL_CT852  {0x80,0x9A,0x90,0xB6,0x8E,0xDE,0x8F,0x80,0x9D,0xD3,0x8A,0x8A,0xD7,0x8D,0x8E,0x8F
 344:Core/Src/FAT/ff.c **** 					0x90,0x91,0x91,0xE2,0x99,0x95,0x95,0x97,0x97,0x99,0x9A,0x9B,0x9B,0x9D,0x9E,0xAC, \
 345:Core/Src/FAT/ff.c **** 					0xB5,0xD6,0xE0,0xE9,0xA4,0xA4,0xA6,0xA6,0xA8,0xA8,0xAA,0x8D,0xAC,0xB8,0xAE,0xAF, \
 346:Core/Src/FAT/ff.c **** 					0xB0,0xB1,0xB2,0xB3,0xB4,0xB5,0xB6,0xB7,0xB8,0xB9,0xBA,0xBB,0xBC,0xBD,0xBD,0xBF, \
 347:Core/Src/FAT/ff.c **** 					0xC0,0xC1,0xC2,0xC3,0xC4,0xC5,0xC6,0xC6,0xC8,0xC9,0xCA,0xCB,0xCC,0xCD,0xCE,0xCF, \
 348:Core/Src/FAT/ff.c **** 					0xD1,0xD1,0xD2,0xD3,0xD2,0xD5,0xD6,0xD7,0xB7,0xD9,0xDA,0xDB,0xDC,0xDD,0xDE,0xDF, \
 349:Core/Src/FAT/ff.c **** 					0xE0,0xE1,0xE2,0xE3,0xE3,0xD5,0xE6,0xE6,0xE8,0xE9,0xE8,0xEB,0xED,0xED,0xDD,0xEF, \
 350:Core/Src/FAT/ff.c **** 					0xF0,0xF1,0xF2,0xF3,0xF4,0xF5,0xF6,0xF7,0xF8,0xF9,0xFA,0xEB,0xFC,0xFC,0xFE,0xFF}
 351:Core/Src/FAT/ff.c **** #define TBL_CT855  {0x81,0x81,0x83,0x83,0x85,0x85,0x87,0x87,0x89,0x89,0x8B,0x8B,0x8D,0x8D,0x8F,0x8F
 352:Core/Src/FAT/ff.c **** 					0x91,0x91,0x93,0x93,0x95,0x95,0x97,0x97,0x99,0x99,0x9B,0x9B,0x9D,0x9D,0x9F,0x9F, \
 353:Core/Src/FAT/ff.c **** 					0xA1,0xA1,0xA3,0xA3,0xA5,0xA5,0xA7,0xA7,0xA9,0xA9,0xAB,0xAB,0xAD,0xAD,0xAE,0xAF, \
 354:Core/Src/FAT/ff.c **** 					0xB0,0xB1,0xB2,0xB3,0xB4,0xB6,0xB6,0xB8,0xB8,0xB9,0xBA,0xBB,0xBC,0xBE,0xBE,0xBF, \
 355:Core/Src/FAT/ff.c **** 					0xC0,0xC1,0xC2,0xC3,0xC4,0xC5,0xC7,0xC7,0xC8,0xC9,0xCA,0xCB,0xCC,0xCD,0xCE,0xCF, \
 356:Core/Src/FAT/ff.c **** 					0xD1,0xD1,0xD3,0xD3,0xD5,0xD5,0xD7,0xD7,0xDD,0xD9,0xDA,0xDB,0xDC,0xDD,0xE0,0xDF, \
 357:Core/Src/FAT/ff.c **** 					0xE0,0xE2,0xE2,0xE4,0xE4,0xE6,0xE6,0xE8,0xE8,0xEA,0xEA,0xEC,0xEC,0xEE,0xEE,0xEF, \
 358:Core/Src/FAT/ff.c **** 					0xF0,0xF2,0xF2,0xF4,0xF4,0xF6,0xF6,0xF8,0xF8,0xFA,0xFA,0xFC,0xFC,0xFD,0xFE,0xFF}
 359:Core/Src/FAT/ff.c **** #define TBL_CT857  {0x80,0x9A,0x90,0xB6,0x8E,0xB7,0x8F,0x80,0xD2,0xD3,0xD4,0xD8,0xD7,0x49,0x8E,0x8F
 360:Core/Src/FAT/ff.c **** 					0x90,0x92,0x92,0xE2,0x99,0xE3,0xEA,0xEB,0x98,0x99,0x9A,0x9D,0x9C,0x9D,0x9E,0x9E, \
 361:Core/Src/FAT/ff.c **** 					0xB5,0xD6,0xE0,0xE9,0xA5,0xA5,0xA6,0xA6,0xA8,0xA9,0xAA,0xAB,0xAC,0xAD,0xAE,0xAF, \
 362:Core/Src/FAT/ff.c **** 					0xB0,0xB1,0xB2,0xB3,0xB4,0xB5,0xB6,0xB7,0xB8,0xB9,0xBA,0xBB,0xBC,0xBD,0xBE,0xBF, \
 363:Core/Src/FAT/ff.c **** 					0xC0,0xC1,0xC2,0xC3,0xC4,0xC5,0xC7,0xC7,0xC8,0xC9,0xCA,0xCB,0xCC,0xCD,0xCE,0xCF, \
 364:Core/Src/FAT/ff.c **** 					0xD0,0xD1,0xD2,0xD3,0xD4,0x49,0xD6,0xD7,0xD8,0xD9,0xDA,0xDB,0xDC,0xDD,0xDE,0xDF, \
 365:Core/Src/FAT/ff.c **** 					0xE0,0xE1,0xE2,0xE3,0xE5,0xE5,0xE6,0xE7,0xE8,0xE9,0xEA,0xEB,0xDE,0xED,0xEE,0xEF, \
 366:Core/Src/FAT/ff.c **** 					0xF0,0xF1,0xF2,0xF3,0xF4,0xF5,0xF6,0xF7,0xF8,0xF9,0xFA,0xFB,0xFC,0xFD,0xFE,0xFF}
 367:Core/Src/FAT/ff.c **** #define TBL_CT860  {0x80,0x9A,0x90,0x8F,0x8E,0x91,0x86,0x80,0x89,0x89,0x92,0x8B,0x8C,0x98,0x8E,0x8F
 368:Core/Src/FAT/ff.c **** 					0x90,0x91,0x92,0x8C,0x99,0xA9,0x96,0x9D,0x98,0x99,0x9A,0x9B,0x9C,0x9D,0x9E,0x9F, \
 369:Core/Src/FAT/ff.c **** 					0x86,0x8B,0x9F,0x96,0xA5,0xA5,0xA6,0xA7,0xA8,0xA9,0xAA,0xAB,0xAC,0xAD,0xAE,0xAF, \
 370:Core/Src/FAT/ff.c **** 					0xB0,0xB1,0xB2,0xB3,0xB4,0xB5,0xB6,0xB7,0xB8,0xB9,0xBA,0xBB,0xBC,0xBD,0xBE,0xBF, \
 371:Core/Src/FAT/ff.c **** 					0xC0,0xC1,0xC2,0xC3,0xC4,0xC5,0xC6,0xC7,0xC8,0xC9,0xCA,0xCB,0xCC,0xCD,0xCE,0xCF, \
 372:Core/Src/FAT/ff.c **** 					0xD0,0xD1,0xD2,0xD3,0xD4,0xD5,0xD6,0xD7,0xD8,0xD9,0xDA,0xDB,0xDC,0xDD,0xDE,0xDF, \
ARM GAS  C:\Users\HP-Admin\AppData\Local\Temp\ccY0w7x3.s 			page 8


 373:Core/Src/FAT/ff.c **** 					0xE0,0xE1,0xE2,0xE3,0xE4,0xE5,0xE6,0xE7,0xE8,0xE9,0xEA,0xEB,0xEC,0xED,0xEE,0xEF, \
 374:Core/Src/FAT/ff.c **** 					0xF0,0xF1,0xF2,0xF3,0xF4,0xF5,0xF6,0xF7,0xF8,0xF9,0xFA,0xFB,0xFC,0xFD,0xFE,0xFF}
 375:Core/Src/FAT/ff.c **** #define TBL_CT861  {0x80,0x9A,0x90,0x41,0x8E,0x41,0x8F,0x80,0x45,0x45,0x45,0x8B,0x8B,0x8D,0x8E,0x8F
 376:Core/Src/FAT/ff.c **** 					0x90,0x92,0x92,0x4F,0x99,0x8D,0x55,0x97,0x97,0x99,0x9A,0x9D,0x9C,0x9D,0x9E,0x9F, \
 377:Core/Src/FAT/ff.c **** 					0xA4,0xA5,0xA6,0xA7,0xA4,0xA5,0xA6,0xA7,0xA8,0xA9,0xAA,0xAB,0xAC,0xAD,0xAE,0xAF, \
 378:Core/Src/FAT/ff.c **** 					0xB0,0xB1,0xB2,0xB3,0xB4,0xB5,0xB6,0xB7,0xB8,0xB9,0xBA,0xBB,0xBC,0xBD,0xBE,0xBF, \
 379:Core/Src/FAT/ff.c **** 					0xC0,0xC1,0xC2,0xC3,0xC4,0xC5,0xC6,0xC7,0xC8,0xC9,0xCA,0xCB,0xCC,0xCD,0xCE,0xCF, \
 380:Core/Src/FAT/ff.c **** 					0xD0,0xD1,0xD2,0xD3,0xD4,0xD5,0xD6,0xD7,0xD8,0xD9,0xDA,0xDB,0xDC,0xDD,0xDE,0xDF, \
 381:Core/Src/FAT/ff.c **** 					0xE0,0xE1,0xE2,0xE3,0xE4,0xE5,0xE6,0xE7,0xE8,0xE9,0xEA,0xEB,0xEC,0xED,0xEE,0xEF, \
 382:Core/Src/FAT/ff.c **** 					0xF0,0xF1,0xF2,0xF3,0xF4,0xF5,0xF6,0xF7,0xF8,0xF9,0xFA,0xFB,0xFC,0xFD,0xFE,0xFF}
 383:Core/Src/FAT/ff.c **** #define TBL_CT862  {0x80,0x81,0x82,0x83,0x84,0x85,0x86,0x87,0x88,0x89,0x8A,0x8B,0x8C,0x8D,0x8E,0x8F
 384:Core/Src/FAT/ff.c **** 					0x90,0x91,0x92,0x93,0x94,0x95,0x96,0x97,0x98,0x99,0x9A,0x9B,0x9C,0x9D,0x9E,0x9F, \
 385:Core/Src/FAT/ff.c **** 					0x41,0x49,0x4F,0x55,0xA5,0xA5,0xA6,0xA7,0xA8,0xA9,0xAA,0xAB,0xAC,0xAD,0xAE,0xAF, \
 386:Core/Src/FAT/ff.c **** 					0xB0,0xB1,0xB2,0xB3,0xB4,0xB5,0xB6,0xB7,0xB8,0xB9,0xBA,0xBB,0xBC,0xBD,0xBE,0xBF, \
 387:Core/Src/FAT/ff.c **** 					0xC0,0xC1,0xC2,0xC3,0xC4,0xC5,0xC6,0xC7,0xC8,0xC9,0xCA,0xCB,0xCC,0xCD,0xCE,0xCF, \
 388:Core/Src/FAT/ff.c **** 					0xD0,0xD1,0xD2,0xD3,0xD4,0xD5,0xD6,0xD7,0xD8,0xD9,0xDA,0xDB,0xDC,0xDD,0xDE,0xDF, \
 389:Core/Src/FAT/ff.c **** 					0xE0,0xE1,0xE2,0xE3,0xE4,0xE5,0xE6,0xE7,0xE8,0xE9,0xEA,0xEB,0xEC,0xED,0xEE,0xEF, \
 390:Core/Src/FAT/ff.c **** 					0xF0,0xF1,0xF2,0xF3,0xF4,0xF5,0xF6,0xF7,0xF8,0xF9,0xFA,0xFB,0xFC,0xFD,0xFE,0xFF}
 391:Core/Src/FAT/ff.c **** #define TBL_CT863  {0x43,0x55,0x45,0x41,0x41,0x41,0x86,0x43,0x45,0x45,0x45,0x49,0x49,0x8D,0x41,0x8F
 392:Core/Src/FAT/ff.c **** 					0x45,0x45,0x45,0x4F,0x45,0x49,0x55,0x55,0x98,0x4F,0x55,0x9B,0x9C,0x55,0x55,0x9F, \
 393:Core/Src/FAT/ff.c **** 					0xA0,0xA1,0x4F,0x55,0xA4,0xA5,0xA6,0xA7,0x49,0xA9,0xAA,0xAB,0xAC,0xAD,0xAE,0xAF, \
 394:Core/Src/FAT/ff.c **** 					0xB0,0xB1,0xB2,0xB3,0xB4,0xB5,0xB6,0xB7,0xB8,0xB9,0xBA,0xBB,0xBC,0xBD,0xBE,0xBF, \
 395:Core/Src/FAT/ff.c **** 					0xC0,0xC1,0xC2,0xC3,0xC4,0xC5,0xC6,0xC7,0xC8,0xC9,0xCA,0xCB,0xCC,0xCD,0xCE,0xCF, \
 396:Core/Src/FAT/ff.c **** 					0xD0,0xD1,0xD2,0xD3,0xD4,0xD5,0xD6,0xD7,0xD8,0xD9,0xDA,0xDB,0xDC,0xDD,0xDE,0xDF, \
 397:Core/Src/FAT/ff.c **** 					0xE0,0xE1,0xE2,0xE3,0xE4,0xE5,0xE6,0xE7,0xE8,0xE9,0xEA,0xEB,0xEC,0xED,0xEE,0xEF, \
 398:Core/Src/FAT/ff.c **** 					0xF0,0xF1,0xF2,0xF3,0xF4,0xF5,0xF6,0xF7,0xF8,0xF9,0xFA,0xFB,0xFC,0xFD,0xFE,0xFF}
 399:Core/Src/FAT/ff.c **** #define TBL_CT864  {0x80,0x9A,0x45,0x41,0x8E,0x41,0x8F,0x80,0x45,0x45,0x45,0x49,0x49,0x49,0x8E,0x8F
 400:Core/Src/FAT/ff.c **** 					0x90,0x92,0x92,0x4F,0x99,0x4F,0x55,0x55,0x59,0x99,0x9A,0x9B,0x9C,0x9D,0x9E,0x9F, \
 401:Core/Src/FAT/ff.c **** 					0x41,0x49,0x4F,0x55,0xA5,0xA5,0xA6,0xA7,0xA8,0xA9,0xAA,0xAB,0xAC,0xAD,0xAE,0xAF, \
 402:Core/Src/FAT/ff.c **** 					0xB0,0xB1,0xB2,0xB3,0xB4,0xB5,0xB6,0xB7,0xB8,0xB9,0xBA,0xBB,0xBC,0xBD,0xBE,0xBF, \
 403:Core/Src/FAT/ff.c **** 					0xC0,0xC1,0xC2,0xC3,0xC4,0xC5,0xC6,0xC7,0xC8,0xC9,0xCA,0xCB,0xCC,0xCD,0xCE,0xCF, \
 404:Core/Src/FAT/ff.c **** 					0xD0,0xD1,0xD2,0xD3,0xD4,0xD5,0xD6,0xD7,0xD8,0xD9,0xDA,0xDB,0xDC,0xDD,0xDE,0xDF, \
 405:Core/Src/FAT/ff.c **** 					0xE0,0xE1,0xE2,0xE3,0xE4,0xE5,0xE6,0xE7,0xE8,0xE9,0xEA,0xEB,0xEC,0xED,0xEE,0xEF, \
 406:Core/Src/FAT/ff.c **** 					0xF0,0xF1,0xF2,0xF3,0xF4,0xF5,0xF6,0xF7,0xF8,0xF9,0xFA,0xFB,0xFC,0xFD,0xFE,0xFF}
 407:Core/Src/FAT/ff.c **** #define TBL_CT865  {0x80,0x9A,0x90,0x41,0x8E,0x41,0x8F,0x80,0x45,0x45,0x45,0x49,0x49,0x49,0x8E,0x8F
 408:Core/Src/FAT/ff.c **** 					0x90,0x92,0x92,0x4F,0x99,0x4F,0x55,0x55,0x59,0x99,0x9A,0x9B,0x9C,0x9D,0x9E,0x9F, \
 409:Core/Src/FAT/ff.c **** 					0x41,0x49,0x4F,0x55,0xA5,0xA5,0xA6,0xA7,0xA8,0xA9,0xAA,0xAB,0xAC,0xAD,0xAE,0xAF, \
 410:Core/Src/FAT/ff.c **** 					0xB0,0xB1,0xB2,0xB3,0xB4,0xB5,0xB6,0xB7,0xB8,0xB9,0xBA,0xBB,0xBC,0xBD,0xBE,0xBF, \
 411:Core/Src/FAT/ff.c **** 					0xC0,0xC1,0xC2,0xC3,0xC4,0xC5,0xC6,0xC7,0xC8,0xC9,0xCA,0xCB,0xCC,0xCD,0xCE,0xCF, \
 412:Core/Src/FAT/ff.c **** 					0xD0,0xD1,0xD2,0xD3,0xD4,0xD5,0xD6,0xD7,0xD8,0xD9,0xDA,0xDB,0xDC,0xDD,0xDE,0xDF, \
 413:Core/Src/FAT/ff.c **** 					0xE0,0xE1,0xE2,0xE3,0xE4,0xE5,0xE6,0xE7,0xE8,0xE9,0xEA,0xEB,0xEC,0xED,0xEE,0xEF, \
 414:Core/Src/FAT/ff.c **** 					0xF0,0xF1,0xF2,0xF3,0xF4,0xF5,0xF6,0xF7,0xF8,0xF9,0xFA,0xFB,0xFC,0xFD,0xFE,0xFF}
 415:Core/Src/FAT/ff.c **** #define TBL_CT866  {0x80,0x81,0x82,0x83,0x84,0x85,0x86,0x87,0x88,0x89,0x8A,0x8B,0x8C,0x8D,0x8E,0x8F
 416:Core/Src/FAT/ff.c **** 					0x90,0x91,0x92,0x93,0x94,0x95,0x96,0x97,0x98,0x99,0x9A,0x9B,0x9C,0x9D,0x9E,0x9F, \
 417:Core/Src/FAT/ff.c **** 					0x80,0x81,0x82,0x83,0x84,0x85,0x86,0x87,0x88,0x89,0x8A,0x8B,0x8C,0x8D,0x8E,0x8F, \
 418:Core/Src/FAT/ff.c **** 					0xB0,0xB1,0xB2,0xB3,0xB4,0xB5,0xB6,0xB7,0xB8,0xB9,0xBA,0xBB,0xBC,0xBD,0xBE,0xBF, \
 419:Core/Src/FAT/ff.c **** 					0xC0,0xC1,0xC2,0xC3,0xC4,0xC5,0xC6,0xC7,0xC8,0xC9,0xCA,0xCB,0xCC,0xCD,0xCE,0xCF, \
 420:Core/Src/FAT/ff.c **** 					0xD0,0xD1,0xD2,0xD3,0xD4,0xD5,0xD6,0xD7,0xD8,0xD9,0xDA,0xDB,0xDC,0xDD,0xDE,0xDF, \
 421:Core/Src/FAT/ff.c **** 					0x90,0x91,0x92,0x93,0x94,0x95,0x96,0x97,0x98,0x99,0x9A,0x9B,0x9C,0x9D,0x9E,0x9F, \
 422:Core/Src/FAT/ff.c **** 					0xF0,0xF0,0xF2,0xF2,0xF4,0xF4,0xF6,0xF6,0xF8,0xF9,0xFA,0xFB,0xFC,0xFD,0xFE,0xFF}
 423:Core/Src/FAT/ff.c **** #define TBL_CT869  {0x80,0x81,0x82,0x83,0x84,0x85,0x86,0x87,0x88,0x89,0x8A,0x8B,0x8C,0x8D,0x8E,0x8F
 424:Core/Src/FAT/ff.c **** 					0x90,0x91,0x92,0x93,0x94,0x95,0x96,0x97,0x98,0x99,0x9A,0x86,0x9C,0x8D,0x8F,0x90, \
 425:Core/Src/FAT/ff.c **** 					0x91,0x90,0x92,0x95,0xA4,0xA5,0xA6,0xA7,0xA8,0xA9,0xAA,0xAB,0xAC,0xAD,0xAE,0xAF, \
 426:Core/Src/FAT/ff.c **** 					0xB0,0xB1,0xB2,0xB3,0xB4,0xB5,0xB6,0xB7,0xB8,0xB9,0xBA,0xBB,0xBC,0xBD,0xBE,0xBF, \
 427:Core/Src/FAT/ff.c **** 					0xC0,0xC1,0xC2,0xC3,0xC4,0xC5,0xC6,0xC7,0xC8,0xC9,0xCA,0xCB,0xCC,0xCD,0xCE,0xCF, \
 428:Core/Src/FAT/ff.c **** 					0xD0,0xD1,0xD2,0xD3,0xD4,0xD5,0xA4,0xA5,0xA6,0xD9,0xDA,0xDB,0xDC,0xA7,0xA8,0xDF, \
 429:Core/Src/FAT/ff.c **** 					0xA9,0xAA,0xAC,0xAD,0xB5,0xB6,0xB7,0xB8,0xBD,0xBE,0xC6,0xC7,0xCF,0xCF,0xD0,0xEF, \
ARM GAS  C:\Users\HP-Admin\AppData\Local\Temp\ccY0w7x3.s 			page 9


 430:Core/Src/FAT/ff.c **** 					0xF0,0xF1,0xD1,0xD2,0xD3,0xF5,0xD4,0xF7,0xF8,0xF9,0xD5,0x96,0x95,0x98,0xFE,0xFF}
 431:Core/Src/FAT/ff.c **** 
 432:Core/Src/FAT/ff.c **** 
 433:Core/Src/FAT/ff.c **** /* DBCS code range |----- 1st byte -----|  |----------- 2nd byte -----------| */
 434:Core/Src/FAT/ff.c **** /*                  <------>    <------>    <------>    <------>    <------>  */
 435:Core/Src/FAT/ff.c **** #define TBL_DC932 {0x81, 0x9F, 0xE0, 0xFC, 0x40, 0x7E, 0x80, 0xFC, 0x00, 0x00}
 436:Core/Src/FAT/ff.c **** #define TBL_DC936 {0x81, 0xFE, 0x00, 0x00, 0x40, 0x7E, 0x80, 0xFE, 0x00, 0x00}
 437:Core/Src/FAT/ff.c **** #define TBL_DC949 {0x81, 0xFE, 0x00, 0x00, 0x41, 0x5A, 0x61, 0x7A, 0x81, 0xFE}
 438:Core/Src/FAT/ff.c **** #define TBL_DC950 {0x81, 0xFE, 0x00, 0x00, 0x40, 0x7E, 0xA1, 0xFE, 0x00, 0x00}
 439:Core/Src/FAT/ff.c **** 
 440:Core/Src/FAT/ff.c **** 
 441:Core/Src/FAT/ff.c **** /* Macros for table definitions */
 442:Core/Src/FAT/ff.c **** #define MERGE_2STR(a, b) a ## b
 443:Core/Src/FAT/ff.c **** #define MKCVTBL(hd, cp) MERGE_2STR(hd, cp)
 444:Core/Src/FAT/ff.c **** 
 445:Core/Src/FAT/ff.c **** 
 446:Core/Src/FAT/ff.c **** 
 447:Core/Src/FAT/ff.c **** 
 448:Core/Src/FAT/ff.c **** /*--------------------------------------------------------------------------
 449:Core/Src/FAT/ff.c **** 
 450:Core/Src/FAT/ff.c ****    Module Private Work Area
 451:Core/Src/FAT/ff.c **** 
 452:Core/Src/FAT/ff.c **** ---------------------------------------------------------------------------*/
 453:Core/Src/FAT/ff.c **** /* Remark: Variables defined here without initial value shall be guaranteed
 454:Core/Src/FAT/ff.c **** /  zero/null at start-up. If not, the linker option or start-up routine is
 455:Core/Src/FAT/ff.c **** /  not compliance with C standard. */
 456:Core/Src/FAT/ff.c **** 
 457:Core/Src/FAT/ff.c **** /*--------------------------------*/
 458:Core/Src/FAT/ff.c **** /* File/Volume controls           */
 459:Core/Src/FAT/ff.c **** /*--------------------------------*/
 460:Core/Src/FAT/ff.c **** 
 461:Core/Src/FAT/ff.c **** #if FF_VOLUMES < 1 || FF_VOLUMES > 10
 462:Core/Src/FAT/ff.c **** #error Wrong FF_VOLUMES setting
 463:Core/Src/FAT/ff.c **** #endif
 464:Core/Src/FAT/ff.c **** static FATFS *FatFs[FF_VOLUMES];	/* Pointer to the filesystem objects (logical drives) */
 465:Core/Src/FAT/ff.c **** static WORD Fsid;					/* Filesystem mount ID */
 466:Core/Src/FAT/ff.c **** 
 467:Core/Src/FAT/ff.c **** #if FF_FS_RPATH != 0
 468:Core/Src/FAT/ff.c **** static BYTE CurrVol;				/* Current drive set by f_chdrive() */
 469:Core/Src/FAT/ff.c **** #endif
 470:Core/Src/FAT/ff.c **** 
 471:Core/Src/FAT/ff.c **** #if FF_FS_LOCK != 0
 472:Core/Src/FAT/ff.c **** static FILESEM Files[FF_FS_LOCK];	/* Open object lock semaphores */
 473:Core/Src/FAT/ff.c **** #if FF_FS_REENTRANT
 474:Core/Src/FAT/ff.c **** static BYTE SysLock;				/* System lock flag (0:no mutex, 1:unlocked, 2:locked) */
 475:Core/Src/FAT/ff.c **** #endif
 476:Core/Src/FAT/ff.c **** #endif
 477:Core/Src/FAT/ff.c **** 
 478:Core/Src/FAT/ff.c **** #if FF_STR_VOLUME_ID
 479:Core/Src/FAT/ff.c **** #ifdef FF_VOLUME_STRS
 480:Core/Src/FAT/ff.c **** static const char *const VolumeStr[FF_VOLUMES] = {FF_VOLUME_STRS};	/* Pre-defined volume ID */
 481:Core/Src/FAT/ff.c **** #endif
 482:Core/Src/FAT/ff.c **** #endif
 483:Core/Src/FAT/ff.c **** 
 484:Core/Src/FAT/ff.c **** #if FF_LBA64
 485:Core/Src/FAT/ff.c **** #if FF_MIN_GPT > 0x100000000
 486:Core/Src/FAT/ff.c **** #error Wrong FF_MIN_GPT setting
ARM GAS  C:\Users\HP-Admin\AppData\Local\Temp\ccY0w7x3.s 			page 10


 487:Core/Src/FAT/ff.c **** #endif
 488:Core/Src/FAT/ff.c **** static const BYTE GUID_MS_Basic[16] = {0xA2,0xA0,0xD0,0xEB,0xE5,0xB9,0x33,0x44,0x87,0xC0,0x68,0xB6,
 489:Core/Src/FAT/ff.c **** #endif
 490:Core/Src/FAT/ff.c **** 
 491:Core/Src/FAT/ff.c **** 
 492:Core/Src/FAT/ff.c **** 
 493:Core/Src/FAT/ff.c **** /*--------------------------------*/
 494:Core/Src/FAT/ff.c **** /* LFN/Directory working buffer   */
 495:Core/Src/FAT/ff.c **** /*--------------------------------*/
 496:Core/Src/FAT/ff.c **** 
 497:Core/Src/FAT/ff.c **** #if FF_USE_LFN == 0		/* Non-LFN configuration */
 498:Core/Src/FAT/ff.c **** #if FF_FS_EXFAT
 499:Core/Src/FAT/ff.c **** #error LFN must be enabled when enable exFAT
 500:Core/Src/FAT/ff.c **** #endif
 501:Core/Src/FAT/ff.c **** #define DEF_NAMBUF
 502:Core/Src/FAT/ff.c **** #define INIT_NAMBUF(fs)
 503:Core/Src/FAT/ff.c **** #define FREE_NAMBUF()
 504:Core/Src/FAT/ff.c **** #define LEAVE_MKFS(res)	return res
 505:Core/Src/FAT/ff.c **** 
 506:Core/Src/FAT/ff.c **** #else					/* LFN configurations */
 507:Core/Src/FAT/ff.c **** #if FF_MAX_LFN < 12 || FF_MAX_LFN > 255
 508:Core/Src/FAT/ff.c **** #error Wrong setting of FF_MAX_LFN
 509:Core/Src/FAT/ff.c **** #endif
 510:Core/Src/FAT/ff.c **** #if FF_LFN_BUF < FF_SFN_BUF || FF_SFN_BUF < 12
 511:Core/Src/FAT/ff.c **** #error Wrong setting of FF_LFN_BUF or FF_SFN_BUF
 512:Core/Src/FAT/ff.c **** #endif
 513:Core/Src/FAT/ff.c **** #if FF_LFN_UNICODE < 0 || FF_LFN_UNICODE > 3
 514:Core/Src/FAT/ff.c **** #error Wrong setting of FF_LFN_UNICODE
 515:Core/Src/FAT/ff.c **** #endif
 516:Core/Src/FAT/ff.c **** static const BYTE LfnOfs[] = {1,3,5,7,9,14,16,18,20,22,24,28,30};	/* FAT: Offset of LFN characters 
 517:Core/Src/FAT/ff.c **** #define MAXDIRB(nc)	((nc + 44U) / 15 * SZDIRE)	/* exFAT: Size of directory entry block scratchpad b
 518:Core/Src/FAT/ff.c **** 
 519:Core/Src/FAT/ff.c **** #if FF_USE_LFN == 1		/* LFN enabled with static working buffer */
 520:Core/Src/FAT/ff.c **** #if FF_FS_EXFAT
 521:Core/Src/FAT/ff.c **** static BYTE	DirBuf[MAXDIRB(FF_MAX_LFN)];	/* Directory entry block scratchpad buffer */
 522:Core/Src/FAT/ff.c **** #endif
 523:Core/Src/FAT/ff.c **** static WCHAR LfnBuf[FF_MAX_LFN + 1];		/* LFN working buffer */
 524:Core/Src/FAT/ff.c **** #define DEF_NAMBUF
 525:Core/Src/FAT/ff.c **** #define INIT_NAMBUF(fs)
 526:Core/Src/FAT/ff.c **** #define FREE_NAMBUF()
 527:Core/Src/FAT/ff.c **** #define LEAVE_MKFS(res)	return res
 528:Core/Src/FAT/ff.c **** 
 529:Core/Src/FAT/ff.c **** #elif FF_USE_LFN == 2 	/* LFN enabled with dynamic working buffer on the stack */
 530:Core/Src/FAT/ff.c **** #if FF_FS_EXFAT
 531:Core/Src/FAT/ff.c **** #define DEF_NAMBUF		WCHAR lbuf[FF_MAX_LFN+1]; BYTE dbuf[MAXDIRB(FF_MAX_LFN)];	/* LFN working buffer
 532:Core/Src/FAT/ff.c **** #define INIT_NAMBUF(fs)	{ (fs)->lfnbuf = lbuf; (fs)->dirbuf = dbuf; }
 533:Core/Src/FAT/ff.c **** #define FREE_NAMBUF()
 534:Core/Src/FAT/ff.c **** #else
 535:Core/Src/FAT/ff.c **** #define DEF_NAMBUF		WCHAR lbuf[FF_MAX_LFN+1];	/* LFN working buffer */
 536:Core/Src/FAT/ff.c **** #define INIT_NAMBUF(fs)	{ (fs)->lfnbuf = lbuf; }
 537:Core/Src/FAT/ff.c **** #define FREE_NAMBUF()
 538:Core/Src/FAT/ff.c **** #endif
 539:Core/Src/FAT/ff.c **** #define LEAVE_MKFS(res)	return res
 540:Core/Src/FAT/ff.c **** 
 541:Core/Src/FAT/ff.c **** #elif FF_USE_LFN == 3 	/* LFN enabled with dynamic working buffer on the heap */
 542:Core/Src/FAT/ff.c **** #if FF_FS_EXFAT
 543:Core/Src/FAT/ff.c **** #define DEF_NAMBUF		WCHAR *lfn;	/* Pointer to LFN working buffer and directory entry block scratchp
ARM GAS  C:\Users\HP-Admin\AppData\Local\Temp\ccY0w7x3.s 			page 11


 544:Core/Src/FAT/ff.c **** #define INIT_NAMBUF(fs)	{ lfn = ff_memalloc((FF_MAX_LFN+1)*2 + MAXDIRB(FF_MAX_LFN)); if (!lfn) LEAV
 545:Core/Src/FAT/ff.c **** #define FREE_NAMBUF()	ff_memfree(lfn)
 546:Core/Src/FAT/ff.c **** #else
 547:Core/Src/FAT/ff.c **** #define DEF_NAMBUF		WCHAR *lfn;	/* Pointer to LFN working buffer */
 548:Core/Src/FAT/ff.c **** #define INIT_NAMBUF(fs)	{ lfn = ff_memalloc((FF_MAX_LFN+1)*2); if (!lfn) LEAVE_FF(fs, FR_NOT_ENOUGH
 549:Core/Src/FAT/ff.c **** #define FREE_NAMBUF()	ff_memfree(lfn)
 550:Core/Src/FAT/ff.c **** #endif
 551:Core/Src/FAT/ff.c **** #define LEAVE_MKFS(res)	{ if (!work) ff_memfree(buf); return res; }
 552:Core/Src/FAT/ff.c **** #define MAX_MALLOC	0x8000	/* Must be >=FF_MAX_SS */
 553:Core/Src/FAT/ff.c **** 
 554:Core/Src/FAT/ff.c **** #else
 555:Core/Src/FAT/ff.c **** #error Wrong setting of FF_USE_LFN
 556:Core/Src/FAT/ff.c **** 
 557:Core/Src/FAT/ff.c **** #endif	/* FF_USE_LFN == 1 */
 558:Core/Src/FAT/ff.c **** #endif	/* FF_USE_LFN == 0 */
 559:Core/Src/FAT/ff.c **** 
 560:Core/Src/FAT/ff.c **** 
 561:Core/Src/FAT/ff.c **** 
 562:Core/Src/FAT/ff.c **** /*--------------------------------*/
 563:Core/Src/FAT/ff.c **** /* Code conversion tables         */
 564:Core/Src/FAT/ff.c **** /*--------------------------------*/
 565:Core/Src/FAT/ff.c **** 
 566:Core/Src/FAT/ff.c **** #if FF_CODE_PAGE == 0	/* Run-time code page configuration */
 567:Core/Src/FAT/ff.c **** #define CODEPAGE CodePage
 568:Core/Src/FAT/ff.c **** static WORD CodePage;	/* Current code page */
 569:Core/Src/FAT/ff.c **** static const BYTE* ExCvt;	/* Ptr to SBCS up-case table Ct???[] (null:not used) */
 570:Core/Src/FAT/ff.c **** static const BYTE* DbcTbl;	/* Ptr to DBCS code range table Dc???[] (null:not used) */
 571:Core/Src/FAT/ff.c **** 
 572:Core/Src/FAT/ff.c **** static const BYTE Ct437[] = TBL_CT437;
 573:Core/Src/FAT/ff.c **** static const BYTE Ct720[] = TBL_CT720;
 574:Core/Src/FAT/ff.c **** static const BYTE Ct737[] = TBL_CT737;
 575:Core/Src/FAT/ff.c **** static const BYTE Ct771[] = TBL_CT771;
 576:Core/Src/FAT/ff.c **** static const BYTE Ct775[] = TBL_CT775;
 577:Core/Src/FAT/ff.c **** static const BYTE Ct850[] = TBL_CT850;
 578:Core/Src/FAT/ff.c **** static const BYTE Ct852[] = TBL_CT852;
 579:Core/Src/FAT/ff.c **** static const BYTE Ct855[] = TBL_CT855;
 580:Core/Src/FAT/ff.c **** static const BYTE Ct857[] = TBL_CT857;
 581:Core/Src/FAT/ff.c **** static const BYTE Ct860[] = TBL_CT860;
 582:Core/Src/FAT/ff.c **** static const BYTE Ct861[] = TBL_CT861;
 583:Core/Src/FAT/ff.c **** static const BYTE Ct862[] = TBL_CT862;
 584:Core/Src/FAT/ff.c **** static const BYTE Ct863[] = TBL_CT863;
 585:Core/Src/FAT/ff.c **** static const BYTE Ct864[] = TBL_CT864;
 586:Core/Src/FAT/ff.c **** static const BYTE Ct865[] = TBL_CT865;
 587:Core/Src/FAT/ff.c **** static const BYTE Ct866[] = TBL_CT866;
 588:Core/Src/FAT/ff.c **** static const BYTE Ct869[] = TBL_CT869;
 589:Core/Src/FAT/ff.c **** static const BYTE Dc932[] = TBL_DC932;
 590:Core/Src/FAT/ff.c **** static const BYTE Dc936[] = TBL_DC936;
 591:Core/Src/FAT/ff.c **** static const BYTE Dc949[] = TBL_DC949;
 592:Core/Src/FAT/ff.c **** static const BYTE Dc950[] = TBL_DC950;
 593:Core/Src/FAT/ff.c **** 
 594:Core/Src/FAT/ff.c **** #elif FF_CODE_PAGE < 900	/* Static code page configuration (SBCS) */
 595:Core/Src/FAT/ff.c **** #define CODEPAGE FF_CODE_PAGE
 596:Core/Src/FAT/ff.c **** static const BYTE ExCvt[] = MKCVTBL(TBL_CT, FF_CODE_PAGE);
 597:Core/Src/FAT/ff.c **** 
 598:Core/Src/FAT/ff.c **** #else					/* Static code page configuration (DBCS) */
 599:Core/Src/FAT/ff.c **** #define CODEPAGE FF_CODE_PAGE
 600:Core/Src/FAT/ff.c **** static const BYTE DbcTbl[] = MKCVTBL(TBL_DC, FF_CODE_PAGE);
ARM GAS  C:\Users\HP-Admin\AppData\Local\Temp\ccY0w7x3.s 			page 12


 601:Core/Src/FAT/ff.c **** 
 602:Core/Src/FAT/ff.c **** #endif
 603:Core/Src/FAT/ff.c **** 
 604:Core/Src/FAT/ff.c **** 
 605:Core/Src/FAT/ff.c **** 
 606:Core/Src/FAT/ff.c **** 
 607:Core/Src/FAT/ff.c **** /*--------------------------------------------------------------------------
 608:Core/Src/FAT/ff.c **** 
 609:Core/Src/FAT/ff.c ****    Module Private Functions
 610:Core/Src/FAT/ff.c **** 
 611:Core/Src/FAT/ff.c **** ---------------------------------------------------------------------------*/
 612:Core/Src/FAT/ff.c **** 
 613:Core/Src/FAT/ff.c **** 
 614:Core/Src/FAT/ff.c **** /*-----------------------------------------------------------------------*/
 615:Core/Src/FAT/ff.c **** /* Load/Store multi-byte word in the FAT structure                       */
 616:Core/Src/FAT/ff.c **** /*-----------------------------------------------------------------------*/
 617:Core/Src/FAT/ff.c **** 
 618:Core/Src/FAT/ff.c **** static WORD ld_word (const BYTE* ptr)	/*	 Load a 2-byte little-endian word */
 619:Core/Src/FAT/ff.c **** {
  29              		.loc 1 619 1 view -0
  30              		.cfi_startproc
  31              		@ args = 0, pretend = 0, frame = 0
  32              		@ frame_needed = 0, uses_anonymous_args = 0
  33              		@ link register save eliminated.
 620:Core/Src/FAT/ff.c **** 	WORD rv;
  34              		.loc 1 620 2 view .LVU1
 621:Core/Src/FAT/ff.c **** 
 622:Core/Src/FAT/ff.c **** 	rv = ptr[1];
  35              		.loc 1 622 2 view .LVU2
  36              		.loc 1 622 10 is_stmt 0 view .LVU3
  37 0000 4278     		ldrb	r2, [r0, #1]	@ zero_extendqisi2
  38              	.LVL1:
 623:Core/Src/FAT/ff.c **** 	rv = rv << 8 | ptr[0];
  39              		.loc 1 623 2 is_stmt 1 view .LVU4
  40              		.loc 1 623 20 is_stmt 0 view .LVU5
  41 0002 0078     		ldrb	r0, [r0]	@ zero_extendqisi2
  42              	.LVL2:
 624:Core/Src/FAT/ff.c **** 	return rv;
  43              		.loc 1 624 2 is_stmt 1 view .LVU6
 625:Core/Src/FAT/ff.c **** }
  44              		.loc 1 625 1 is_stmt 0 view .LVU7
  45 0004 40EA0220 		orr	r0, r0, r2, lsl #8
  46              	.LVL3:
  47              		.loc 1 625 1 view .LVU8
  48 0008 7047     		bx	lr
  49              		.cfi_endproc
  50              	.LFE0:
  52              		.section	.text.ld_dword,"ax",%progbits
  53              		.align	1
  54              		.syntax unified
  55              		.thumb
  56              		.thumb_func
  58              	ld_dword:
  59              	.LVL4:
  60              	.LFB1:
 626:Core/Src/FAT/ff.c **** 
 627:Core/Src/FAT/ff.c **** static DWORD ld_dword (const BYTE* ptr)	/* Load a 4-byte little-endian word */
ARM GAS  C:\Users\HP-Admin\AppData\Local\Temp\ccY0w7x3.s 			page 13


 628:Core/Src/FAT/ff.c **** {
  61              		.loc 1 628 1 is_stmt 1 view -0
  62              		.cfi_startproc
  63              		@ args = 0, pretend = 0, frame = 0
  64              		@ frame_needed = 0, uses_anonymous_args = 0
  65              		@ link register save eliminated.
 629:Core/Src/FAT/ff.c **** 	DWORD rv;
  66              		.loc 1 629 2 view .LVU10
 630:Core/Src/FAT/ff.c **** 
 631:Core/Src/FAT/ff.c **** 	rv = ptr[3];
  67              		.loc 1 631 2 view .LVU11
  68              		.loc 1 631 10 is_stmt 0 view .LVU12
  69 0000 C278     		ldrb	r2, [r0, #3]	@ zero_extendqisi2
  70              	.LVL5:
 632:Core/Src/FAT/ff.c **** 	rv = rv << 8 | ptr[2];
  71              		.loc 1 632 2 is_stmt 1 view .LVU13
  72              		.loc 1 632 20 is_stmt 0 view .LVU14
  73 0002 8378     		ldrb	r3, [r0, #2]	@ zero_extendqisi2
  74              		.loc 1 632 5 view .LVU15
  75 0004 43EA0222 		orr	r2, r3, r2, lsl #8
  76              	.LVL6:
 633:Core/Src/FAT/ff.c **** 	rv = rv << 8 | ptr[1];
  77              		.loc 1 633 2 is_stmt 1 view .LVU16
  78              		.loc 1 633 20 is_stmt 0 view .LVU17
  79 0008 4378     		ldrb	r3, [r0, #1]	@ zero_extendqisi2
  80              		.loc 1 633 5 view .LVU18
  81 000a 43EA0223 		orr	r3, r3, r2, lsl #8
  82              	.LVL7:
 634:Core/Src/FAT/ff.c **** 	rv = rv << 8 | ptr[0];
  83              		.loc 1 634 2 is_stmt 1 view .LVU19
  84              		.loc 1 634 20 is_stmt 0 view .LVU20
  85 000e 0078     		ldrb	r0, [r0]	@ zero_extendqisi2
  86              	.LVL8:
 635:Core/Src/FAT/ff.c **** 	return rv;
  87              		.loc 1 635 2 is_stmt 1 view .LVU21
 636:Core/Src/FAT/ff.c **** }
  88              		.loc 1 636 1 is_stmt 0 view .LVU22
  89 0010 40EA0320 		orr	r0, r0, r3, lsl #8
  90              	.LVL9:
  91              		.loc 1 636 1 view .LVU23
  92 0014 7047     		bx	lr
  93              		.cfi_endproc
  94              	.LFE1:
  96              		.section	.text.st_word,"ax",%progbits
  97              		.align	1
  98              		.syntax unified
  99              		.thumb
 100              		.thumb_func
 102              	st_word:
 103              	.LVL10:
 104              	.LFB2:
 637:Core/Src/FAT/ff.c **** 
 638:Core/Src/FAT/ff.c **** #if FF_FS_EXFAT
 639:Core/Src/FAT/ff.c **** static QWORD ld_qword (const BYTE* ptr)	/* Load an 8-byte little-endian word */
 640:Core/Src/FAT/ff.c **** {
 641:Core/Src/FAT/ff.c **** 	QWORD rv;
 642:Core/Src/FAT/ff.c **** 
ARM GAS  C:\Users\HP-Admin\AppData\Local\Temp\ccY0w7x3.s 			page 14


 643:Core/Src/FAT/ff.c **** 	rv = ptr[7];
 644:Core/Src/FAT/ff.c **** 	rv = rv << 8 | ptr[6];
 645:Core/Src/FAT/ff.c **** 	rv = rv << 8 | ptr[5];
 646:Core/Src/FAT/ff.c **** 	rv = rv << 8 | ptr[4];
 647:Core/Src/FAT/ff.c **** 	rv = rv << 8 | ptr[3];
 648:Core/Src/FAT/ff.c **** 	rv = rv << 8 | ptr[2];
 649:Core/Src/FAT/ff.c **** 	rv = rv << 8 | ptr[1];
 650:Core/Src/FAT/ff.c **** 	rv = rv << 8 | ptr[0];
 651:Core/Src/FAT/ff.c **** 	return rv;
 652:Core/Src/FAT/ff.c **** }
 653:Core/Src/FAT/ff.c **** #endif
 654:Core/Src/FAT/ff.c **** 
 655:Core/Src/FAT/ff.c **** #if !FF_FS_READONLY
 656:Core/Src/FAT/ff.c **** static void st_word (BYTE* ptr, WORD val)	/* Store a 2-byte word in little-endian */
 657:Core/Src/FAT/ff.c **** {
 105              		.loc 1 657 1 is_stmt 1 view -0
 106              		.cfi_startproc
 107              		@ args = 0, pretend = 0, frame = 0
 108              		@ frame_needed = 0, uses_anonymous_args = 0
 109              		@ link register save eliminated.
 658:Core/Src/FAT/ff.c **** 	*ptr++ = (BYTE)val; val >>= 8;
 110              		.loc 1 658 2 view .LVU25
 111              		.loc 1 658 9 is_stmt 0 view .LVU26
 112 0000 0170     		strb	r1, [r0]
 113              		.loc 1 658 22 is_stmt 1 view .LVU27
 114              	.LVL11:
 659:Core/Src/FAT/ff.c **** 	*ptr++ = (BYTE)val;
 115              		.loc 1 659 2 view .LVU28
 116              		.loc 1 659 11 is_stmt 0 view .LVU29
 117 0002 090A     		lsrs	r1, r1, #8
 118              	.LVL12:
 119              		.loc 1 659 9 view .LVU30
 120 0004 4170     		strb	r1, [r0, #1]
 660:Core/Src/FAT/ff.c **** }
 121              		.loc 1 660 1 view .LVU31
 122 0006 7047     		bx	lr
 123              		.cfi_endproc
 124              	.LFE2:
 126              		.section	.text.st_dword,"ax",%progbits
 127              		.align	1
 128              		.syntax unified
 129              		.thumb
 130              		.thumb_func
 132              	st_dword:
 133              	.LVL13:
 134              	.LFB3:
 661:Core/Src/FAT/ff.c **** 
 662:Core/Src/FAT/ff.c **** static void st_dword (BYTE* ptr, DWORD val)	/* Store a 4-byte word in little-endian */
 663:Core/Src/FAT/ff.c **** {
 135              		.loc 1 663 1 is_stmt 1 view -0
 136              		.cfi_startproc
 137              		@ args = 0, pretend = 0, frame = 0
 138              		@ frame_needed = 0, uses_anonymous_args = 0
 139              		@ link register save eliminated.
 664:Core/Src/FAT/ff.c **** 	*ptr++ = (BYTE)val; val >>= 8;
 140              		.loc 1 664 2 view .LVU33
 141              		.loc 1 664 9 is_stmt 0 view .LVU34
ARM GAS  C:\Users\HP-Admin\AppData\Local\Temp\ccY0w7x3.s 			page 15


 142 0000 0170     		strb	r1, [r0]
 143              		.loc 1 664 22 is_stmt 1 view .LVU35
 144              	.LVL14:
 665:Core/Src/FAT/ff.c **** 	*ptr++ = (BYTE)val; val >>= 8;
 145              		.loc 1 665 2 view .LVU36
 146              		.loc 1 665 11 is_stmt 0 view .LVU37
 147 0002 C1F30723 		ubfx	r3, r1, #8, #8
 148              		.loc 1 665 9 view .LVU38
 149 0006 4370     		strb	r3, [r0, #1]
 150              		.loc 1 665 22 is_stmt 1 view .LVU39
 151              	.LVL15:
 666:Core/Src/FAT/ff.c **** 	*ptr++ = (BYTE)val; val >>= 8;
 152              		.loc 1 666 2 view .LVU40
 153              		.loc 1 666 11 is_stmt 0 view .LVU41
 154 0008 C1F30743 		ubfx	r3, r1, #16, #8
 155              		.loc 1 666 9 view .LVU42
 156 000c 8370     		strb	r3, [r0, #2]
 157              		.loc 1 666 22 is_stmt 1 view .LVU43
 158              	.LVL16:
 667:Core/Src/FAT/ff.c **** 	*ptr++ = (BYTE)val;
 159              		.loc 1 667 2 view .LVU44
 160              		.loc 1 667 11 is_stmt 0 view .LVU45
 161 000e 090E     		lsrs	r1, r1, #24
 162              	.LVL17:
 163              		.loc 1 667 9 view .LVU46
 164 0010 C170     		strb	r1, [r0, #3]
 668:Core/Src/FAT/ff.c **** }
 165              		.loc 1 668 1 view .LVU47
 166 0012 7047     		bx	lr
 167              		.cfi_endproc
 168              	.LFE3:
 170              		.section	.text.dbc_1st,"ax",%progbits
 171              		.align	1
 172              		.syntax unified
 173              		.thumb
 174              		.thumb_func
 176              	dbc_1st:
 177              	.LVL18:
 178              	.LFB4:
 669:Core/Src/FAT/ff.c **** 
 670:Core/Src/FAT/ff.c **** #if FF_FS_EXFAT
 671:Core/Src/FAT/ff.c **** static void st_qword (BYTE* ptr, QWORD val)	/* Store an 8-byte word in little-endian */
 672:Core/Src/FAT/ff.c **** {
 673:Core/Src/FAT/ff.c **** 	*ptr++ = (BYTE)val; val >>= 8;
 674:Core/Src/FAT/ff.c **** 	*ptr++ = (BYTE)val; val >>= 8;
 675:Core/Src/FAT/ff.c **** 	*ptr++ = (BYTE)val; val >>= 8;
 676:Core/Src/FAT/ff.c **** 	*ptr++ = (BYTE)val; val >>= 8;
 677:Core/Src/FAT/ff.c **** 	*ptr++ = (BYTE)val; val >>= 8;
 678:Core/Src/FAT/ff.c **** 	*ptr++ = (BYTE)val; val >>= 8;
 679:Core/Src/FAT/ff.c **** 	*ptr++ = (BYTE)val; val >>= 8;
 680:Core/Src/FAT/ff.c **** 	*ptr++ = (BYTE)val;
 681:Core/Src/FAT/ff.c **** }
 682:Core/Src/FAT/ff.c **** #endif
 683:Core/Src/FAT/ff.c **** #endif	/* !FF_FS_READONLY */
 684:Core/Src/FAT/ff.c **** 
 685:Core/Src/FAT/ff.c **** 
 686:Core/Src/FAT/ff.c **** 
ARM GAS  C:\Users\HP-Admin\AppData\Local\Temp\ccY0w7x3.s 			page 16


 687:Core/Src/FAT/ff.c **** /*-----------------------------------------------------------------------*/
 688:Core/Src/FAT/ff.c **** /* String functions                                                      */
 689:Core/Src/FAT/ff.c **** /*-----------------------------------------------------------------------*/
 690:Core/Src/FAT/ff.c **** 
 691:Core/Src/FAT/ff.c **** /* Test if the byte is DBC 1st byte */
 692:Core/Src/FAT/ff.c **** static int dbc_1st (BYTE c)
 693:Core/Src/FAT/ff.c **** {
 179              		.loc 1 693 1 is_stmt 1 view -0
 180              		.cfi_startproc
 181              		@ args = 0, pretend = 0, frame = 0
 182              		@ frame_needed = 0, uses_anonymous_args = 0
 183              		@ link register save eliminated.
 694:Core/Src/FAT/ff.c **** #if FF_CODE_PAGE == 0		/* Variable code page */
 695:Core/Src/FAT/ff.c **** 	if (DbcTbl && c >= DbcTbl[0]) {
 696:Core/Src/FAT/ff.c **** 		if (c <= DbcTbl[1]) return 1;					/* 1st byte range 1 */
 697:Core/Src/FAT/ff.c **** 		if (c >= DbcTbl[2] && c <= DbcTbl[3]) return 1;	/* 1st byte range 2 */
 698:Core/Src/FAT/ff.c **** 	}
 699:Core/Src/FAT/ff.c **** #elif FF_CODE_PAGE >= 900	/* DBCS fixed code page */
 700:Core/Src/FAT/ff.c **** 	if (c >= DbcTbl[0]) {
 184              		.loc 1 700 2 view .LVU49
 185              		.loc 1 700 5 is_stmt 0 view .LVU50
 186 0000 8028     		cmp	r0, #128
 187 0002 07D9     		bls	.L7
 701:Core/Src/FAT/ff.c **** 		if (c <= DbcTbl[1]) return 1;
 188              		.loc 1 701 3 is_stmt 1 view .LVU51
 189              		.loc 1 701 6 is_stmt 0 view .LVU52
 190 0004 9F28     		cmp	r0, #159
 191 0006 07D9     		bls	.L8
 702:Core/Src/FAT/ff.c **** 		if (c >= DbcTbl[2] && c <= DbcTbl[3]) return 1;
 192              		.loc 1 702 3 is_stmt 1 view .LVU53
 193              		.loc 1 702 6 is_stmt 0 view .LVU54
 194 0008 DF28     		cmp	r0, #223
 195 000a 07D9     		bls	.L9
 196              		.loc 1 702 22 discriminator 1 view .LVU55
 197 000c FC28     		cmp	r0, #252
 198 000e 07D9     		bls	.L10
 703:Core/Src/FAT/ff.c **** 	}
 704:Core/Src/FAT/ff.c **** #else						/* SBCS fixed code page */
 705:Core/Src/FAT/ff.c **** 	if (c != 0) return 0;	/* Always false */
 706:Core/Src/FAT/ff.c **** #endif
 707:Core/Src/FAT/ff.c **** 	return 0;
 199              		.loc 1 707 9 view .LVU56
 200 0010 0020     		movs	r0, #0
 201              	.LVL19:
 202              		.loc 1 707 9 view .LVU57
 203 0012 7047     		bx	lr
 204              	.LVL20:
 205              	.L7:
 206              		.loc 1 707 9 view .LVU58
 207 0014 0020     		movs	r0, #0
 208              	.LVL21:
 209              		.loc 1 707 9 view .LVU59
 210 0016 7047     		bx	lr
 211              	.LVL22:
 212              	.L8:
 701:Core/Src/FAT/ff.c **** 		if (c >= DbcTbl[2] && c <= DbcTbl[3]) return 1;
 213              		.loc 1 701 30 view .LVU60
ARM GAS  C:\Users\HP-Admin\AppData\Local\Temp\ccY0w7x3.s 			page 17


 214 0018 0120     		movs	r0, #1
 215              	.LVL23:
 701:Core/Src/FAT/ff.c **** 		if (c >= DbcTbl[2] && c <= DbcTbl[3]) return 1;
 216              		.loc 1 701 30 view .LVU61
 217 001a 7047     		bx	lr
 218              	.LVL24:
 219              	.L9:
 220              		.loc 1 707 9 view .LVU62
 221 001c 0020     		movs	r0, #0
 222              	.LVL25:
 223              		.loc 1 707 9 view .LVU63
 224 001e 7047     		bx	lr
 225              	.LVL26:
 226              	.L10:
 702:Core/Src/FAT/ff.c **** 		if (c >= DbcTbl[2] && c <= DbcTbl[3]) return 1;
 227              		.loc 1 702 48 view .LVU64
 228 0020 0120     		movs	r0, #1
 229              	.LVL27:
 708:Core/Src/FAT/ff.c **** }
 230              		.loc 1 708 1 view .LVU65
 231 0022 7047     		bx	lr
 232              		.cfi_endproc
 233              	.LFE4:
 235              		.section	.text.dbc_2nd,"ax",%progbits
 236              		.align	1
 237              		.syntax unified
 238              		.thumb
 239              		.thumb_func
 241              	dbc_2nd:
 242              	.LVL28:
 243              	.LFB5:
 709:Core/Src/FAT/ff.c **** 
 710:Core/Src/FAT/ff.c **** 
 711:Core/Src/FAT/ff.c **** /* Test if the byte is DBC 2nd byte */
 712:Core/Src/FAT/ff.c **** static int dbc_2nd (BYTE c)
 713:Core/Src/FAT/ff.c **** {
 244              		.loc 1 713 1 is_stmt 1 view -0
 245              		.cfi_startproc
 246              		@ args = 0, pretend = 0, frame = 0
 247              		@ frame_needed = 0, uses_anonymous_args = 0
 248              		@ link register save eliminated.
 714:Core/Src/FAT/ff.c **** #if FF_CODE_PAGE == 0		/* Variable code page */
 715:Core/Src/FAT/ff.c **** 	if (DbcTbl && c >= DbcTbl[4]) {
 716:Core/Src/FAT/ff.c **** 		if (c <= DbcTbl[5]) return 1;					/* 2nd byte range 1 */
 717:Core/Src/FAT/ff.c **** 		if (c >= DbcTbl[6] && c <= DbcTbl[7]) return 1;	/* 2nd byte range 2 */
 718:Core/Src/FAT/ff.c **** 		if (c >= DbcTbl[8] && c <= DbcTbl[9]) return 1;	/* 2nd byte range 3 */
 719:Core/Src/FAT/ff.c **** 	}
 720:Core/Src/FAT/ff.c **** #elif FF_CODE_PAGE >= 900	/* DBCS fixed code page */
 721:Core/Src/FAT/ff.c **** 	if (c >= DbcTbl[4]) {
 249              		.loc 1 721 2 view .LVU67
 250              		.loc 1 721 5 is_stmt 0 view .LVU68
 251 0000 3F28     		cmp	r0, #63
 252 0002 0BD9     		bls	.L14
 722:Core/Src/FAT/ff.c **** 		if (c <= DbcTbl[5]) return 1;
 253              		.loc 1 722 3 is_stmt 1 view .LVU69
 254              		.loc 1 722 6 is_stmt 0 view .LVU70
 255 0004 7E28     		cmp	r0, #126
ARM GAS  C:\Users\HP-Admin\AppData\Local\Temp\ccY0w7x3.s 			page 18


 256 0006 0BD9     		bls	.L15
 723:Core/Src/FAT/ff.c **** 		if (c >= DbcTbl[6] && c <= DbcTbl[7]) return 1;
 257              		.loc 1 723 3 is_stmt 1 view .LVU71
 258              		.loc 1 723 6 is_stmt 0 view .LVU72
 259 0008 10F0800F 		tst	r0, #128
 260 000c 02D1     		bne	.L18
 261              	.L13:
 724:Core/Src/FAT/ff.c **** 		if (c >= DbcTbl[8] && c <= DbcTbl[9]) return 1;
 262              		.loc 1 724 3 is_stmt 1 discriminator 1 view .LVU73
 263              		.loc 1 724 22 is_stmt 0 discriminator 1 view .LVU74
 264 000e 48B1     		cbz	r0, .L17
 725:Core/Src/FAT/ff.c **** 	}
 726:Core/Src/FAT/ff.c **** #else						/* SBCS fixed code page */
 727:Core/Src/FAT/ff.c **** 	if (c != 0) return 0;	/* Always false */
 728:Core/Src/FAT/ff.c **** #endif
 729:Core/Src/FAT/ff.c **** 	return 0;
 265              		.loc 1 729 9 view .LVU75
 266 0010 0020     		movs	r0, #0
 267              	.LVL29:
 268              		.loc 1 729 9 view .LVU76
 269 0012 7047     		bx	lr
 270              	.LVL30:
 271              	.L18:
 723:Core/Src/FAT/ff.c **** 		if (c >= DbcTbl[8] && c <= DbcTbl[9]) return 1;
 272              		.loc 1 723 22 discriminator 1 view .LVU77
 273 0014 FC28     		cmp	r0, #252
 274 0016 FAD8     		bhi	.L13
 723:Core/Src/FAT/ff.c **** 		if (c >= DbcTbl[8] && c <= DbcTbl[9]) return 1;
 275              		.loc 1 723 48 view .LVU78
 276 0018 0120     		movs	r0, #1
 277              	.LVL31:
 723:Core/Src/FAT/ff.c **** 		if (c >= DbcTbl[8] && c <= DbcTbl[9]) return 1;
 278              		.loc 1 723 48 view .LVU79
 279 001a 7047     		bx	lr
 280              	.LVL32:
 281              	.L14:
 282              		.loc 1 729 9 view .LVU80
 283 001c 0020     		movs	r0, #0
 284              	.LVL33:
 285              		.loc 1 729 9 view .LVU81
 286 001e 7047     		bx	lr
 287              	.LVL34:
 288              	.L15:
 722:Core/Src/FAT/ff.c **** 		if (c >= DbcTbl[6] && c <= DbcTbl[7]) return 1;
 289              		.loc 1 722 30 view .LVU82
 290 0020 0120     		movs	r0, #1
 291              	.LVL35:
 722:Core/Src/FAT/ff.c **** 		if (c >= DbcTbl[6] && c <= DbcTbl[7]) return 1;
 292              		.loc 1 722 30 view .LVU83
 293 0022 7047     		bx	lr
 294              	.LVL36:
 295              	.L17:
 724:Core/Src/FAT/ff.c **** 	}
 296              		.loc 1 724 48 view .LVU84
 297 0024 0120     		movs	r0, #1
 298              	.LVL37:
 730:Core/Src/FAT/ff.c **** }
ARM GAS  C:\Users\HP-Admin\AppData\Local\Temp\ccY0w7x3.s 			page 19


 299              		.loc 1 730 1 view .LVU85
 300 0026 7047     		bx	lr
 301              		.cfi_endproc
 302              	.LFE5:
 304              		.section	.text.clst2sect,"ax",%progbits
 305              		.align	1
 306              		.syntax unified
 307              		.thumb
 308              		.thumb_func
 310              	clst2sect:
 311              	.LVL38:
 312              	.LFB9:
 731:Core/Src/FAT/ff.c **** 
 732:Core/Src/FAT/ff.c **** 
 733:Core/Src/FAT/ff.c **** #if FF_USE_LFN
 734:Core/Src/FAT/ff.c **** 
 735:Core/Src/FAT/ff.c **** /* Get a Unicode code point from the TCHAR string in defined API encodeing */
 736:Core/Src/FAT/ff.c **** static DWORD tchar2uni (	/* Returns a character in UTF-16 encoding (>=0x10000 on surrogate pair, 0x
 737:Core/Src/FAT/ff.c **** 	const TCHAR** str		/* Pointer to pointer to TCHAR string in configured encoding */
 738:Core/Src/FAT/ff.c **** )
 739:Core/Src/FAT/ff.c **** {
 740:Core/Src/FAT/ff.c **** 	DWORD uc;
 741:Core/Src/FAT/ff.c **** 	const TCHAR *p = *str;
 742:Core/Src/FAT/ff.c **** 
 743:Core/Src/FAT/ff.c **** #if FF_LFN_UNICODE == 1		/* UTF-16 input */
 744:Core/Src/FAT/ff.c **** 	WCHAR wc;
 745:Core/Src/FAT/ff.c **** 
 746:Core/Src/FAT/ff.c **** 	uc = *p++;	/* Get a unit */
 747:Core/Src/FAT/ff.c **** 	if (IsSurrogate(uc)) {	/* Surrogate? */
 748:Core/Src/FAT/ff.c **** 		wc = *p++;		/* Get low surrogate */
 749:Core/Src/FAT/ff.c **** 		if (!IsSurrogateH(uc) || !IsSurrogateL(wc)) return 0xFFFFFFFF;	/* Wrong surrogate? */
 750:Core/Src/FAT/ff.c **** 		uc = uc << 16 | wc;
 751:Core/Src/FAT/ff.c **** 	}
 752:Core/Src/FAT/ff.c **** 
 753:Core/Src/FAT/ff.c **** #elif FF_LFN_UNICODE == 2	/* UTF-8 input */
 754:Core/Src/FAT/ff.c **** 	BYTE b;
 755:Core/Src/FAT/ff.c **** 	int nf;
 756:Core/Src/FAT/ff.c **** 
 757:Core/Src/FAT/ff.c **** 	uc = (BYTE)*p++;	/* Get an encoding unit */
 758:Core/Src/FAT/ff.c **** 	if (uc & 0x80) {	/* Multiple byte code? */
 759:Core/Src/FAT/ff.c **** 		if        ((uc & 0xE0) == 0xC0) {	/* 2-byte sequence? */
 760:Core/Src/FAT/ff.c **** 			uc &= 0x1F; nf = 1;
 761:Core/Src/FAT/ff.c **** 		} else if ((uc & 0xF0) == 0xE0) {	/* 3-byte sequence? */
 762:Core/Src/FAT/ff.c **** 			uc &= 0x0F; nf = 2;
 763:Core/Src/FAT/ff.c **** 		} else if ((uc & 0xF8) == 0xF0) {	/* 4-byte sequence? */
 764:Core/Src/FAT/ff.c **** 			uc &= 0x07; nf = 3;
 765:Core/Src/FAT/ff.c **** 		} else {							/* Wrong sequence */
 766:Core/Src/FAT/ff.c **** 			return 0xFFFFFFFF;
 767:Core/Src/FAT/ff.c **** 		}
 768:Core/Src/FAT/ff.c **** 		do {	/* Get trailing bytes */
 769:Core/Src/FAT/ff.c **** 			b = (BYTE)*p++;
 770:Core/Src/FAT/ff.c **** 			if ((b & 0xC0) != 0x80) return 0xFFFFFFFF;	/* Wrong sequence? */
 771:Core/Src/FAT/ff.c **** 			uc = uc << 6 | (b & 0x3F);
 772:Core/Src/FAT/ff.c **** 		} while (--nf != 0);
 773:Core/Src/FAT/ff.c **** 		if (uc < 0x80 || IsSurrogate(uc) || uc >= 0x110000) return 0xFFFFFFFF;	/* Wrong code? */
 774:Core/Src/FAT/ff.c **** 		if (uc >= 0x010000) uc = 0xD800DC00 | ((uc - 0x10000) << 6 & 0x3FF0000) | (uc & 0x3FF);	/* Make a
 775:Core/Src/FAT/ff.c **** 	}
ARM GAS  C:\Users\HP-Admin\AppData\Local\Temp\ccY0w7x3.s 			page 20


 776:Core/Src/FAT/ff.c **** 
 777:Core/Src/FAT/ff.c **** #elif FF_LFN_UNICODE == 3	/* UTF-32 input */
 778:Core/Src/FAT/ff.c **** 	uc = (TCHAR)*p++;	/* Get a unit */
 779:Core/Src/FAT/ff.c **** 	if (uc >= 0x110000 || IsSurrogate(uc)) return 0xFFFFFFFF;	/* Wrong code? */
 780:Core/Src/FAT/ff.c **** 	if (uc >= 0x010000) uc = 0xD800DC00 | ((uc - 0x10000) << 6 & 0x3FF0000) | (uc & 0x3FF);	/* Make a 
 781:Core/Src/FAT/ff.c **** 
 782:Core/Src/FAT/ff.c **** #else		/* ANSI/OEM input */
 783:Core/Src/FAT/ff.c **** 	BYTE b;
 784:Core/Src/FAT/ff.c **** 	WCHAR wc;
 785:Core/Src/FAT/ff.c **** 
 786:Core/Src/FAT/ff.c **** 	wc = (BYTE)*p++;			/* Get a byte */
 787:Core/Src/FAT/ff.c **** 	if (dbc_1st((BYTE)wc)) {	/* Is it a DBC 1st byte? */
 788:Core/Src/FAT/ff.c **** 		b = (BYTE)*p++;			/* Get 2nd byte */
 789:Core/Src/FAT/ff.c **** 		if (!dbc_2nd(b)) return 0xFFFFFFFF;	/* Invalid code? */
 790:Core/Src/FAT/ff.c **** 		wc = (wc << 8) + b;		/* Make a DBC */
 791:Core/Src/FAT/ff.c **** 	}
 792:Core/Src/FAT/ff.c **** 	if (wc != 0) {
 793:Core/Src/FAT/ff.c **** 		wc = ff_oem2uni(wc, CODEPAGE);	/* ANSI/OEM ==> Unicode */
 794:Core/Src/FAT/ff.c **** 		if (wc == 0) return 0xFFFFFFFF;	/* Invalid code? */
 795:Core/Src/FAT/ff.c **** 	}
 796:Core/Src/FAT/ff.c **** 	uc = wc;
 797:Core/Src/FAT/ff.c **** 
 798:Core/Src/FAT/ff.c **** #endif
 799:Core/Src/FAT/ff.c **** 	*str = p;	/* Next read pointer */
 800:Core/Src/FAT/ff.c **** 	return uc;
 801:Core/Src/FAT/ff.c **** }
 802:Core/Src/FAT/ff.c **** 
 803:Core/Src/FAT/ff.c **** 
 804:Core/Src/FAT/ff.c **** /* Store a Unicode char in defined API encoding */
 805:Core/Src/FAT/ff.c **** static UINT put_utf (	/* Returns number of encoding units written (0:buffer overflow or wrong encod
 806:Core/Src/FAT/ff.c **** 	DWORD chr,	/* UTF-16 encoded character (Surrogate pair if >=0x10000) */
 807:Core/Src/FAT/ff.c **** 	TCHAR* buf,	/* Output buffer */
 808:Core/Src/FAT/ff.c **** 	UINT szb	/* Size of the buffer */
 809:Core/Src/FAT/ff.c **** )
 810:Core/Src/FAT/ff.c **** {
 811:Core/Src/FAT/ff.c **** #if FF_LFN_UNICODE == 1	/* UTF-16 output */
 812:Core/Src/FAT/ff.c **** 	WCHAR hs, wc;
 813:Core/Src/FAT/ff.c **** 
 814:Core/Src/FAT/ff.c **** 	hs = (WCHAR)(chr >> 16);
 815:Core/Src/FAT/ff.c **** 	wc = (WCHAR)chr;
 816:Core/Src/FAT/ff.c **** 	if (hs == 0) {	/* Single encoding unit? */
 817:Core/Src/FAT/ff.c **** 		if (szb < 1 || IsSurrogate(wc)) return 0;	/* Buffer overflow or wrong code? */
 818:Core/Src/FAT/ff.c **** 		*buf = wc;
 819:Core/Src/FAT/ff.c **** 		return 1;
 820:Core/Src/FAT/ff.c **** 	}
 821:Core/Src/FAT/ff.c **** 	if (szb < 2 || !IsSurrogateH(hs) || !IsSurrogateL(wc)) return 0;	/* Buffer overflow or wrong surro
 822:Core/Src/FAT/ff.c **** 	*buf++ = hs;
 823:Core/Src/FAT/ff.c **** 	*buf++ = wc;
 824:Core/Src/FAT/ff.c **** 	return 2;
 825:Core/Src/FAT/ff.c **** 
 826:Core/Src/FAT/ff.c **** #elif FF_LFN_UNICODE == 2	/* UTF-8 output */
 827:Core/Src/FAT/ff.c **** 	DWORD hc;
 828:Core/Src/FAT/ff.c **** 
 829:Core/Src/FAT/ff.c **** 	if (chr < 0x80) {	/* Single byte code? */
 830:Core/Src/FAT/ff.c **** 		if (szb < 1) return 0;	/* Buffer overflow? */
 831:Core/Src/FAT/ff.c **** 		*buf = (TCHAR)chr;
 832:Core/Src/FAT/ff.c **** 		return 1;
ARM GAS  C:\Users\HP-Admin\AppData\Local\Temp\ccY0w7x3.s 			page 21


 833:Core/Src/FAT/ff.c **** 	}
 834:Core/Src/FAT/ff.c **** 	if (chr < 0x800) {	/* 2-byte sequence? */
 835:Core/Src/FAT/ff.c **** 		if (szb < 2) return 0;	/* Buffer overflow? */
 836:Core/Src/FAT/ff.c **** 		*buf++ = (TCHAR)(0xC0 | (chr >> 6 & 0x1F));
 837:Core/Src/FAT/ff.c **** 		*buf++ = (TCHAR)(0x80 | (chr >> 0 & 0x3F));
 838:Core/Src/FAT/ff.c **** 		return 2;
 839:Core/Src/FAT/ff.c **** 	}
 840:Core/Src/FAT/ff.c **** 	if (chr < 0x10000) {	/* 3-byte sequence? */
 841:Core/Src/FAT/ff.c **** 		if (szb < 3 || IsSurrogate(chr)) return 0;	/* Buffer overflow or wrong code? */
 842:Core/Src/FAT/ff.c **** 		*buf++ = (TCHAR)(0xE0 | (chr >> 12 & 0x0F));
 843:Core/Src/FAT/ff.c **** 		*buf++ = (TCHAR)(0x80 | (chr >> 6 & 0x3F));
 844:Core/Src/FAT/ff.c **** 		*buf++ = (TCHAR)(0x80 | (chr >> 0 & 0x3F));
 845:Core/Src/FAT/ff.c **** 		return 3;
 846:Core/Src/FAT/ff.c **** 	}
 847:Core/Src/FAT/ff.c **** 	/* 4-byte sequence */
 848:Core/Src/FAT/ff.c **** 	if (szb < 4) return 0;	/* Buffer overflow? */
 849:Core/Src/FAT/ff.c **** 	hc = ((chr & 0xFFFF0000) - 0xD8000000) >> 6;	/* Get high 10 bits */
 850:Core/Src/FAT/ff.c **** 	chr = (chr & 0xFFFF) - 0xDC00;					/* Get low 10 bits */
 851:Core/Src/FAT/ff.c **** 	if (hc >= 0x100000 || chr >= 0x400) return 0;	/* Wrong surrogate? */
 852:Core/Src/FAT/ff.c **** 	chr = (hc | chr) + 0x10000;
 853:Core/Src/FAT/ff.c **** 	*buf++ = (TCHAR)(0xF0 | (chr >> 18 & 0x07));
 854:Core/Src/FAT/ff.c **** 	*buf++ = (TCHAR)(0x80 | (chr >> 12 & 0x3F));
 855:Core/Src/FAT/ff.c **** 	*buf++ = (TCHAR)(0x80 | (chr >> 6 & 0x3F));
 856:Core/Src/FAT/ff.c **** 	*buf++ = (TCHAR)(0x80 | (chr >> 0 & 0x3F));
 857:Core/Src/FAT/ff.c **** 	return 4;
 858:Core/Src/FAT/ff.c **** 
 859:Core/Src/FAT/ff.c **** #elif FF_LFN_UNICODE == 3	/* UTF-32 output */
 860:Core/Src/FAT/ff.c **** 	DWORD hc;
 861:Core/Src/FAT/ff.c **** 
 862:Core/Src/FAT/ff.c **** 	if (szb < 1) return 0;	/* Buffer overflow? */
 863:Core/Src/FAT/ff.c **** 	if (chr >= 0x10000) {	/* Out of BMP? */
 864:Core/Src/FAT/ff.c **** 		hc = ((chr & 0xFFFF0000) - 0xD8000000) >> 6;	/* Get high 10 bits */
 865:Core/Src/FAT/ff.c **** 		chr = (chr & 0xFFFF) - 0xDC00;					/* Get low 10 bits */
 866:Core/Src/FAT/ff.c **** 		if (hc >= 0x100000 || chr >= 0x400) return 0;	/* Wrong surrogate? */
 867:Core/Src/FAT/ff.c **** 		chr = (hc | chr) + 0x10000;
 868:Core/Src/FAT/ff.c **** 	}
 869:Core/Src/FAT/ff.c **** 	*buf++ = (TCHAR)chr;
 870:Core/Src/FAT/ff.c **** 	return 1;
 871:Core/Src/FAT/ff.c **** 
 872:Core/Src/FAT/ff.c **** #else						/* ANSI/OEM output */
 873:Core/Src/FAT/ff.c **** 	WCHAR wc;
 874:Core/Src/FAT/ff.c **** 
 875:Core/Src/FAT/ff.c **** 	wc = ff_uni2oem(chr, CODEPAGE);
 876:Core/Src/FAT/ff.c **** 	if (wc >= 0x100) {	/* Is this a DBC? */
 877:Core/Src/FAT/ff.c **** 		if (szb < 2) return 0;
 878:Core/Src/FAT/ff.c **** 		*buf++ = (char)(wc >> 8);	/* Store DBC 1st byte */
 879:Core/Src/FAT/ff.c **** 		*buf++ = (TCHAR)wc;			/* Store DBC 2nd byte */
 880:Core/Src/FAT/ff.c **** 		return 2;
 881:Core/Src/FAT/ff.c **** 	}
 882:Core/Src/FAT/ff.c **** 	if (wc == 0 || szb < 1) return 0;	/* Invalid char or buffer overflow? */
 883:Core/Src/FAT/ff.c **** 	*buf++ = (TCHAR)wc;					/* Store the character */
 884:Core/Src/FAT/ff.c **** 	return 1;
 885:Core/Src/FAT/ff.c **** #endif
 886:Core/Src/FAT/ff.c **** }
 887:Core/Src/FAT/ff.c **** #endif	/* FF_USE_LFN */
 888:Core/Src/FAT/ff.c **** 
 889:Core/Src/FAT/ff.c **** 
ARM GAS  C:\Users\HP-Admin\AppData\Local\Temp\ccY0w7x3.s 			page 22


 890:Core/Src/FAT/ff.c **** #if FF_FS_REENTRANT
 891:Core/Src/FAT/ff.c **** /*-----------------------------------------------------------------------*/
 892:Core/Src/FAT/ff.c **** /* Request/Release grant to access the volume                            */
 893:Core/Src/FAT/ff.c **** /*-----------------------------------------------------------------------*/
 894:Core/Src/FAT/ff.c **** 
 895:Core/Src/FAT/ff.c **** static int lock_volume (	/* 1:Ok, 0:timeout */
 896:Core/Src/FAT/ff.c **** 	FATFS* fs,				/* Filesystem object to lock */
 897:Core/Src/FAT/ff.c **** 	int syslock				/* System lock required */
 898:Core/Src/FAT/ff.c **** )
 899:Core/Src/FAT/ff.c **** {
 900:Core/Src/FAT/ff.c **** 	int rv;
 901:Core/Src/FAT/ff.c **** 
 902:Core/Src/FAT/ff.c **** 
 903:Core/Src/FAT/ff.c **** #if FF_FS_LOCK
 904:Core/Src/FAT/ff.c **** 	rv = ff_mutex_take(fs->ldrv);	/* Lock the volume */
 905:Core/Src/FAT/ff.c **** 	if (rv && syslock) {			/* System lock reqiered? */
 906:Core/Src/FAT/ff.c **** 		rv = ff_mutex_take(FF_VOLUMES);	/* Lock the system */
 907:Core/Src/FAT/ff.c **** 		if (rv) {
 908:Core/Src/FAT/ff.c **** 			SysLock = 2;				/* System lock succeeded */
 909:Core/Src/FAT/ff.c **** 		} else {
 910:Core/Src/FAT/ff.c **** 			ff_mutex_give(fs->ldrv);	/* Failed system lock */
 911:Core/Src/FAT/ff.c **** 		}
 912:Core/Src/FAT/ff.c **** 	}
 913:Core/Src/FAT/ff.c **** #else
 914:Core/Src/FAT/ff.c **** 	rv = syslock ? ff_mutex_take(fs->ldrv) : ff_mutex_take(fs->ldrv);	/* Lock the volume (this is to p
 915:Core/Src/FAT/ff.c **** #endif
 916:Core/Src/FAT/ff.c **** 	return rv;
 917:Core/Src/FAT/ff.c **** }
 918:Core/Src/FAT/ff.c **** 
 919:Core/Src/FAT/ff.c **** 
 920:Core/Src/FAT/ff.c **** static void unlock_volume (
 921:Core/Src/FAT/ff.c **** 	FATFS* fs,		/* Filesystem object */
 922:Core/Src/FAT/ff.c **** 	FRESULT res		/* Result code to be returned */
 923:Core/Src/FAT/ff.c **** )
 924:Core/Src/FAT/ff.c **** {
 925:Core/Src/FAT/ff.c **** 	if (fs && res != FR_NOT_ENABLED && res != FR_INVALID_DRIVE && res != FR_TIMEOUT) {
 926:Core/Src/FAT/ff.c **** #if FF_FS_LOCK
 927:Core/Src/FAT/ff.c **** 		if (SysLock == 2) {	/* Is the system locked? */
 928:Core/Src/FAT/ff.c **** 			SysLock = 1;
 929:Core/Src/FAT/ff.c **** 			ff_mutex_give(FF_VOLUMES);
 930:Core/Src/FAT/ff.c **** 		}
 931:Core/Src/FAT/ff.c **** #endif
 932:Core/Src/FAT/ff.c **** 		ff_mutex_give(fs->ldrv);	/* Unlock the volume */
 933:Core/Src/FAT/ff.c **** 	}
 934:Core/Src/FAT/ff.c **** }
 935:Core/Src/FAT/ff.c **** 
 936:Core/Src/FAT/ff.c **** #endif
 937:Core/Src/FAT/ff.c **** 
 938:Core/Src/FAT/ff.c **** 
 939:Core/Src/FAT/ff.c **** 
 940:Core/Src/FAT/ff.c **** #if FF_FS_LOCK
 941:Core/Src/FAT/ff.c **** /*-----------------------------------------------------------------------*/
 942:Core/Src/FAT/ff.c **** /* File shareing control functions                                       */
 943:Core/Src/FAT/ff.c **** /*-----------------------------------------------------------------------*/
 944:Core/Src/FAT/ff.c **** 
 945:Core/Src/FAT/ff.c **** static FRESULT chk_share (	/* Check if the file can be accessed */
 946:Core/Src/FAT/ff.c **** 	DIR* dp,		/* Directory object pointing the file to be checked */
ARM GAS  C:\Users\HP-Admin\AppData\Local\Temp\ccY0w7x3.s 			page 23


 947:Core/Src/FAT/ff.c **** 	int acc			/* Desired access type (0:Read mode open, 1:Write mode open, 2:Delete or rename) */
 948:Core/Src/FAT/ff.c **** )
 949:Core/Src/FAT/ff.c **** {
 950:Core/Src/FAT/ff.c **** 	UINT i, be;
 951:Core/Src/FAT/ff.c **** 
 952:Core/Src/FAT/ff.c **** 	/* Search open object table for the object */
 953:Core/Src/FAT/ff.c **** 	be = 0;
 954:Core/Src/FAT/ff.c **** 	for (i = 0; i < FF_FS_LOCK; i++) {
 955:Core/Src/FAT/ff.c **** 		if (Files[i].fs) {	/* Existing entry */
 956:Core/Src/FAT/ff.c **** 			if (Files[i].fs == dp->obj.fs &&	 	/* Check if the object matches with an open object */
 957:Core/Src/FAT/ff.c **** 				Files[i].clu == dp->obj.sclust &&
 958:Core/Src/FAT/ff.c **** 				Files[i].ofs == dp->dptr) break;
 959:Core/Src/FAT/ff.c **** 		} else {			/* Blank entry */
 960:Core/Src/FAT/ff.c **** 			be = 1;
 961:Core/Src/FAT/ff.c **** 		}
 962:Core/Src/FAT/ff.c **** 	}
 963:Core/Src/FAT/ff.c **** 	if (i == FF_FS_LOCK) {	/* The object has not been opened */
 964:Core/Src/FAT/ff.c **** 		return (!be && acc != 2) ? FR_TOO_MANY_OPEN_FILES : FR_OK;	/* Is there a blank entry for new obje
 965:Core/Src/FAT/ff.c **** 	}
 966:Core/Src/FAT/ff.c **** 
 967:Core/Src/FAT/ff.c **** 	/* The object was opened. Reject any open against writing file and all write mode open */
 968:Core/Src/FAT/ff.c **** 	return (acc != 0 || Files[i].ctr == 0x100) ? FR_LOCKED : FR_OK;
 969:Core/Src/FAT/ff.c **** }
 970:Core/Src/FAT/ff.c **** 
 971:Core/Src/FAT/ff.c **** 
 972:Core/Src/FAT/ff.c **** static int enq_share (void)	/* Check if an entry is available for a new object */
 973:Core/Src/FAT/ff.c **** {
 974:Core/Src/FAT/ff.c **** 	UINT i;
 975:Core/Src/FAT/ff.c **** 
 976:Core/Src/FAT/ff.c **** 	for (i = 0; i < FF_FS_LOCK && Files[i].fs; i++) ;	/* Find a free entry */
 977:Core/Src/FAT/ff.c **** 	return (i == FF_FS_LOCK) ? 0 : 1;
 978:Core/Src/FAT/ff.c **** }
 979:Core/Src/FAT/ff.c **** 
 980:Core/Src/FAT/ff.c **** 
 981:Core/Src/FAT/ff.c **** static UINT inc_share (	/* Increment object open counter and returns its index (0:Internal error) *
 982:Core/Src/FAT/ff.c **** 	DIR* dp,	/* Directory object pointing the file to register or increment */
 983:Core/Src/FAT/ff.c **** 	int acc		/* Desired access (0:Read, 1:Write, 2:Delete/Rename) */
 984:Core/Src/FAT/ff.c **** )
 985:Core/Src/FAT/ff.c **** {
 986:Core/Src/FAT/ff.c **** 	UINT i;
 987:Core/Src/FAT/ff.c **** 
 988:Core/Src/FAT/ff.c **** 
 989:Core/Src/FAT/ff.c **** 	for (i = 0; i < FF_FS_LOCK; i++) {	/* Find the object */
 990:Core/Src/FAT/ff.c **** 		if (Files[i].fs == dp->obj.fs
 991:Core/Src/FAT/ff.c **** 		 && Files[i].clu == dp->obj.sclust
 992:Core/Src/FAT/ff.c **** 		 && Files[i].ofs == dp->dptr) break;
 993:Core/Src/FAT/ff.c **** 	}
 994:Core/Src/FAT/ff.c **** 
 995:Core/Src/FAT/ff.c **** 	if (i == FF_FS_LOCK) {			/* Not opened. Register it as new. */
 996:Core/Src/FAT/ff.c **** 		for (i = 0; i < FF_FS_LOCK && Files[i].fs; i++) ;	/* Find a free entry */
 997:Core/Src/FAT/ff.c **** 		if (i == FF_FS_LOCK) return 0;	/* No free entry to register (int err) */
 998:Core/Src/FAT/ff.c **** 		Files[i].fs = dp->obj.fs;
 999:Core/Src/FAT/ff.c **** 		Files[i].clu = dp->obj.sclust;
1000:Core/Src/FAT/ff.c **** 		Files[i].ofs = dp->dptr;
1001:Core/Src/FAT/ff.c **** 		Files[i].ctr = 0;
1002:Core/Src/FAT/ff.c **** 	}
1003:Core/Src/FAT/ff.c **** 
ARM GAS  C:\Users\HP-Admin\AppData\Local\Temp\ccY0w7x3.s 			page 24


1004:Core/Src/FAT/ff.c **** 	if (acc >= 1 && Files[i].ctr) return 0;	/* Access violation (int err) */
1005:Core/Src/FAT/ff.c **** 
1006:Core/Src/FAT/ff.c **** 	Files[i].ctr = acc ? 0x100 : Files[i].ctr + 1;	/* Set semaphore value */
1007:Core/Src/FAT/ff.c **** 
1008:Core/Src/FAT/ff.c **** 	return i + 1;	/* Index number origin from 1 */
1009:Core/Src/FAT/ff.c **** }
1010:Core/Src/FAT/ff.c **** 
1011:Core/Src/FAT/ff.c **** 
1012:Core/Src/FAT/ff.c **** static FRESULT dec_share (	/* Decrement object open counter */
1013:Core/Src/FAT/ff.c **** 	UINT i			/* Semaphore index (1..) */
1014:Core/Src/FAT/ff.c **** )
1015:Core/Src/FAT/ff.c **** {
1016:Core/Src/FAT/ff.c **** 	UINT n;
1017:Core/Src/FAT/ff.c **** 	FRESULT res;
1018:Core/Src/FAT/ff.c **** 
1019:Core/Src/FAT/ff.c **** 
1020:Core/Src/FAT/ff.c **** 	if (--i < FF_FS_LOCK) {	/* Index number origin from 0 */
1021:Core/Src/FAT/ff.c **** 		n = Files[i].ctr;
1022:Core/Src/FAT/ff.c **** 		if (n == 0x100) n = 0;	/* If write mode open, delete the object semaphore */
1023:Core/Src/FAT/ff.c **** 		if (n > 0) n--;			/* Decrement read mode open count */
1024:Core/Src/FAT/ff.c **** 		Files[i].ctr = n;
1025:Core/Src/FAT/ff.c **** 		if (n == 0) {			/* Delete the object semaphore if open count becomes zero */
1026:Core/Src/FAT/ff.c **** 			Files[i].fs = 0;	/* Free the entry <<<If this memory write operation is not in atomic, FF_FS_REE
1027:Core/Src/FAT/ff.c **** 		}
1028:Core/Src/FAT/ff.c **** 		res = FR_OK;
1029:Core/Src/FAT/ff.c **** 	} else {
1030:Core/Src/FAT/ff.c **** 		res = FR_INT_ERR;		/* Invalid index number */
1031:Core/Src/FAT/ff.c **** 	}
1032:Core/Src/FAT/ff.c **** 	return res;
1033:Core/Src/FAT/ff.c **** }
1034:Core/Src/FAT/ff.c **** 
1035:Core/Src/FAT/ff.c **** 
1036:Core/Src/FAT/ff.c **** static void clear_share (	/* Clear all lock entries of the volume */
1037:Core/Src/FAT/ff.c **** 	FATFS* fs
1038:Core/Src/FAT/ff.c **** )
1039:Core/Src/FAT/ff.c **** {
1040:Core/Src/FAT/ff.c **** 	UINT i;
1041:Core/Src/FAT/ff.c **** 
1042:Core/Src/FAT/ff.c **** 	for (i = 0; i < FF_FS_LOCK; i++) {
1043:Core/Src/FAT/ff.c **** 		if (Files[i].fs == fs) Files[i].fs = 0;
1044:Core/Src/FAT/ff.c **** 	}
1045:Core/Src/FAT/ff.c **** }
1046:Core/Src/FAT/ff.c **** 
1047:Core/Src/FAT/ff.c **** #endif	/* FF_FS_LOCK */
1048:Core/Src/FAT/ff.c **** 
1049:Core/Src/FAT/ff.c **** 
1050:Core/Src/FAT/ff.c **** 
1051:Core/Src/FAT/ff.c **** /*-----------------------------------------------------------------------*/
1052:Core/Src/FAT/ff.c **** /* Move/Flush disk access window in the filesystem object                */
1053:Core/Src/FAT/ff.c **** /*-----------------------------------------------------------------------*/
1054:Core/Src/FAT/ff.c **** #if !FF_FS_READONLY
1055:Core/Src/FAT/ff.c **** static FRESULT sync_window (	/* Returns FR_OK or FR_DISK_ERR */
1056:Core/Src/FAT/ff.c **** 	FATFS* fs			/* Filesystem object */
1057:Core/Src/FAT/ff.c **** )
1058:Core/Src/FAT/ff.c **** {
1059:Core/Src/FAT/ff.c **** 	FRESULT res = FR_OK;
1060:Core/Src/FAT/ff.c **** 
ARM GAS  C:\Users\HP-Admin\AppData\Local\Temp\ccY0w7x3.s 			page 25


1061:Core/Src/FAT/ff.c **** 
1062:Core/Src/FAT/ff.c **** 	if (fs->wflag) {	/* Is the disk access window dirty? */
1063:Core/Src/FAT/ff.c **** 		if (disk_write(fs->pdrv, fs->win, fs->winsect, 1) == RES_OK) {	/* Write it back into the volume *
1064:Core/Src/FAT/ff.c **** 			fs->wflag = 0;	/* Clear window dirty flag */
1065:Core/Src/FAT/ff.c **** 			if (fs->winsect - fs->fatbase < fs->fsize) {	/* Is it in the 1st FAT? */
1066:Core/Src/FAT/ff.c **** 				if (fs->n_fats == 2) disk_write(fs->pdrv, fs->win, fs->winsect + fs->fsize, 1);	/* Reflect it t
1067:Core/Src/FAT/ff.c **** 			}
1068:Core/Src/FAT/ff.c **** 		} else {
1069:Core/Src/FAT/ff.c **** 			res = FR_DISK_ERR;
1070:Core/Src/FAT/ff.c **** 		}
1071:Core/Src/FAT/ff.c **** 	}
1072:Core/Src/FAT/ff.c **** 	return res;
1073:Core/Src/FAT/ff.c **** }
1074:Core/Src/FAT/ff.c **** #endif
1075:Core/Src/FAT/ff.c **** 
1076:Core/Src/FAT/ff.c **** 
1077:Core/Src/FAT/ff.c **** static FRESULT move_window (	/* Returns FR_OK or FR_DISK_ERR */
1078:Core/Src/FAT/ff.c **** 	FATFS* fs,		/* Filesystem object */
1079:Core/Src/FAT/ff.c **** 	LBA_t sect		/* Sector LBA to make appearance in the fs->win[] */
1080:Core/Src/FAT/ff.c **** )
1081:Core/Src/FAT/ff.c **** {
1082:Core/Src/FAT/ff.c **** 	FRESULT res = FR_OK;
1083:Core/Src/FAT/ff.c **** 
1084:Core/Src/FAT/ff.c **** 
1085:Core/Src/FAT/ff.c **** 	if (sect != fs->winsect) {	/* Window offset changed? */
1086:Core/Src/FAT/ff.c **** #if !FF_FS_READONLY
1087:Core/Src/FAT/ff.c **** 		res = sync_window(fs);		/* Flush the window */
1088:Core/Src/FAT/ff.c **** #endif
1089:Core/Src/FAT/ff.c **** 		if (res == FR_OK) {			/* Fill sector window with new data */
1090:Core/Src/FAT/ff.c **** 			if (disk_read(fs->pdrv, fs->win, sect, 1) != RES_OK) {
1091:Core/Src/FAT/ff.c **** 				sect = (LBA_t)0 - 1;	/* Invalidate window if read data is not valid */
1092:Core/Src/FAT/ff.c **** 				res = FR_DISK_ERR;
1093:Core/Src/FAT/ff.c **** 			}
1094:Core/Src/FAT/ff.c **** 			fs->winsect = sect;
1095:Core/Src/FAT/ff.c **** 		}
1096:Core/Src/FAT/ff.c **** 	}
1097:Core/Src/FAT/ff.c **** 	return res;
1098:Core/Src/FAT/ff.c **** }
1099:Core/Src/FAT/ff.c **** 
1100:Core/Src/FAT/ff.c **** 
1101:Core/Src/FAT/ff.c **** 
1102:Core/Src/FAT/ff.c **** 
1103:Core/Src/FAT/ff.c **** #if !FF_FS_READONLY
1104:Core/Src/FAT/ff.c **** /*-----------------------------------------------------------------------*/
1105:Core/Src/FAT/ff.c **** /* Synchronize filesystem and data on the storage                        */
1106:Core/Src/FAT/ff.c **** /*-----------------------------------------------------------------------*/
1107:Core/Src/FAT/ff.c **** 
1108:Core/Src/FAT/ff.c **** static FRESULT sync_fs (	/* Returns FR_OK or FR_DISK_ERR */
1109:Core/Src/FAT/ff.c **** 	FATFS* fs		/* Filesystem object */
1110:Core/Src/FAT/ff.c **** )
1111:Core/Src/FAT/ff.c **** {
1112:Core/Src/FAT/ff.c **** 	FRESULT res;
1113:Core/Src/FAT/ff.c **** 
1114:Core/Src/FAT/ff.c **** 
1115:Core/Src/FAT/ff.c **** 	res = sync_window(fs);
1116:Core/Src/FAT/ff.c **** 	if (res == FR_OK) {
1117:Core/Src/FAT/ff.c **** 		if (fs->fs_type == FS_FAT32 && fs->fsi_flag == 1) {	/* FAT32: Update FSInfo sector if needed */
ARM GAS  C:\Users\HP-Admin\AppData\Local\Temp\ccY0w7x3.s 			page 26


1118:Core/Src/FAT/ff.c **** 			/* Create FSInfo structure */
1119:Core/Src/FAT/ff.c **** 			memset(fs->win, 0, sizeof fs->win);
1120:Core/Src/FAT/ff.c **** 			st_word(fs->win + BS_55AA, 0xAA55);					/* Boot signature */
1121:Core/Src/FAT/ff.c **** 			st_dword(fs->win + FSI_LeadSig, 0x41615252);		/* Leading signature */
1122:Core/Src/FAT/ff.c **** 			st_dword(fs->win + FSI_StrucSig, 0x61417272);		/* Structure signature */
1123:Core/Src/FAT/ff.c **** 			st_dword(fs->win + FSI_Free_Count, fs->free_clst);	/* Number of free clusters */
1124:Core/Src/FAT/ff.c **** 			st_dword(fs->win + FSI_Nxt_Free, fs->last_clst);	/* Last allocated culuster */
1125:Core/Src/FAT/ff.c **** 			fs->winsect = fs->volbase + 1;						/* Write it into the FSInfo sector (Next to VBR) */
1126:Core/Src/FAT/ff.c **** 			disk_write(fs->pdrv, fs->win, fs->winsect, 1);
1127:Core/Src/FAT/ff.c **** 			fs->fsi_flag = 0;
1128:Core/Src/FAT/ff.c **** 		}
1129:Core/Src/FAT/ff.c **** 		/* Make sure that no pending write process in the lower layer */
1130:Core/Src/FAT/ff.c **** 		if (disk_ioctl(fs->pdrv, CTRL_SYNC, 0) != RES_OK) res = FR_DISK_ERR;
1131:Core/Src/FAT/ff.c **** 	}
1132:Core/Src/FAT/ff.c **** 
1133:Core/Src/FAT/ff.c **** 	return res;
1134:Core/Src/FAT/ff.c **** }
1135:Core/Src/FAT/ff.c **** 
1136:Core/Src/FAT/ff.c **** #endif
1137:Core/Src/FAT/ff.c **** 
1138:Core/Src/FAT/ff.c **** 
1139:Core/Src/FAT/ff.c **** 
1140:Core/Src/FAT/ff.c **** /*-----------------------------------------------------------------------*/
1141:Core/Src/FAT/ff.c **** /* Get physical sector number from cluster number                        */
1142:Core/Src/FAT/ff.c **** /*-----------------------------------------------------------------------*/
1143:Core/Src/FAT/ff.c **** 
1144:Core/Src/FAT/ff.c **** static LBA_t clst2sect (	/* !=0:Sector number, 0:Failed (invalid cluster#) */
1145:Core/Src/FAT/ff.c **** 	FATFS* fs,		/* Filesystem object */
1146:Core/Src/FAT/ff.c **** 	DWORD clst		/* Cluster# to be converted */
1147:Core/Src/FAT/ff.c **** )
1148:Core/Src/FAT/ff.c **** {
 313              		.loc 1 1148 1 is_stmt 1 view -0
 314              		.cfi_startproc
 315              		@ args = 0, pretend = 0, frame = 0
 316              		@ frame_needed = 0, uses_anonymous_args = 0
 317              		@ link register save eliminated.
1149:Core/Src/FAT/ff.c **** 	clst -= 2;		/* Cluster number is origin from 2 */
 318              		.loc 1 1149 2 view .LVU87
 319              		.loc 1 1149 7 is_stmt 0 view .LVU88
 320 0000 0239     		subs	r1, r1, #2
 321              	.LVL39:
1150:Core/Src/FAT/ff.c **** 	if (clst >= fs->n_fatent - 2) return 0;		/* Is it invalid cluster number? */
 322              		.loc 1 1150 2 is_stmt 1 view .LVU89
 323              		.loc 1 1150 16 is_stmt 0 view .LVU90
 324 0002 4369     		ldr	r3, [r0, #20]
 325              		.loc 1 1150 27 view .LVU91
 326 0004 023B     		subs	r3, r3, #2
 327              		.loc 1 1150 5 view .LVU92
 328 0006 8B42     		cmp	r3, r1
 329 0008 04D9     		bls	.L21
1151:Core/Src/FAT/ff.c **** 	return fs->database + (LBA_t)fs->csize * clst;	/* Start sector number of the cluster */
 330              		.loc 1 1151 2 is_stmt 1 view .LVU93
 331              		.loc 1 1151 11 is_stmt 0 view .LVU94
 332 000a 836A     		ldr	r3, [r0, #40]
 333              		.loc 1 1151 33 view .LVU95
 334 000c 4089     		ldrh	r0, [r0, #10]
 335              	.LVL40:
ARM GAS  C:\Users\HP-Admin\AppData\Local\Temp\ccY0w7x3.s 			page 27


 336              		.loc 1 1151 22 view .LVU96
 337 000e 01FB0030 		mla	r0, r1, r0, r3
 338 0012 7047     		bx	lr
 339              	.LVL41:
 340              	.L21:
1150:Core/Src/FAT/ff.c **** 	if (clst >= fs->n_fatent - 2) return 0;		/* Is it invalid cluster number? */
 341              		.loc 1 1150 39 view .LVU97
 342 0014 0020     		movs	r0, #0
 343              	.LVL42:
1152:Core/Src/FAT/ff.c **** }
 344              		.loc 1 1152 1 view .LVU98
 345 0016 7047     		bx	lr
 346              		.cfi_endproc
 347              	.LFE9:
 349              		.section	.text.ld_clust,"ax",%progbits
 350              		.align	1
 351              		.syntax unified
 352              		.thumb
 353              		.thumb_func
 355              	ld_clust:
 356              	.LVL43:
 357              	.LFB18:
1153:Core/Src/FAT/ff.c **** 
1154:Core/Src/FAT/ff.c **** 
1155:Core/Src/FAT/ff.c **** 
1156:Core/Src/FAT/ff.c **** 
1157:Core/Src/FAT/ff.c **** /*-----------------------------------------------------------------------*/
1158:Core/Src/FAT/ff.c **** /* FAT access - Read value of an FAT entry                               */
1159:Core/Src/FAT/ff.c **** /*-----------------------------------------------------------------------*/
1160:Core/Src/FAT/ff.c **** 
1161:Core/Src/FAT/ff.c **** static DWORD get_fat (		/* 0xFFFFFFFF:Disk error, 1:Internal error, 2..0x7FFFFFFF:Cluster status */
1162:Core/Src/FAT/ff.c **** 	FFOBJID* obj,	/* Corresponding object */
1163:Core/Src/FAT/ff.c **** 	DWORD clst		/* Cluster number to get the value */
1164:Core/Src/FAT/ff.c **** )
1165:Core/Src/FAT/ff.c **** {
1166:Core/Src/FAT/ff.c **** 	UINT wc, bc;
1167:Core/Src/FAT/ff.c **** 	DWORD val;
1168:Core/Src/FAT/ff.c **** 	FATFS *fs = obj->fs;
1169:Core/Src/FAT/ff.c **** 
1170:Core/Src/FAT/ff.c **** 
1171:Core/Src/FAT/ff.c **** 	if (clst < 2 || clst >= fs->n_fatent) {	/* Check if in valid range */
1172:Core/Src/FAT/ff.c **** 		val = 1;	/* Internal error */
1173:Core/Src/FAT/ff.c **** 
1174:Core/Src/FAT/ff.c **** 	} else {
1175:Core/Src/FAT/ff.c **** 		val = 0xFFFFFFFF;	/* Default value falls on disk error */
1176:Core/Src/FAT/ff.c **** 
1177:Core/Src/FAT/ff.c **** 		switch (fs->fs_type) {
1178:Core/Src/FAT/ff.c **** 		case FS_FAT12 :
1179:Core/Src/FAT/ff.c **** 			bc = (UINT)clst; bc += bc / 2;
1180:Core/Src/FAT/ff.c **** 			if (move_window(fs, fs->fatbase + (bc / SS(fs))) != FR_OK) break;
1181:Core/Src/FAT/ff.c **** 			wc = fs->win[bc++ % SS(fs)];		/* Get 1st byte of the entry */
1182:Core/Src/FAT/ff.c **** 			if (move_window(fs, fs->fatbase + (bc / SS(fs))) != FR_OK) break;
1183:Core/Src/FAT/ff.c **** 			wc |= fs->win[bc % SS(fs)] << 8;	/* Merge 2nd byte of the entry */
1184:Core/Src/FAT/ff.c **** 			val = (clst & 1) ? (wc >> 4) : (wc & 0xFFF);	/* Adjust bit position */
1185:Core/Src/FAT/ff.c **** 			break;
1186:Core/Src/FAT/ff.c **** 
1187:Core/Src/FAT/ff.c **** 		case FS_FAT16 :
ARM GAS  C:\Users\HP-Admin\AppData\Local\Temp\ccY0w7x3.s 			page 28


1188:Core/Src/FAT/ff.c **** 			if (move_window(fs, fs->fatbase + (clst / (SS(fs) / 2))) != FR_OK) break;
1189:Core/Src/FAT/ff.c **** 			val = ld_word(fs->win + clst * 2 % SS(fs));		/* Simple WORD array */
1190:Core/Src/FAT/ff.c **** 			break;
1191:Core/Src/FAT/ff.c **** 
1192:Core/Src/FAT/ff.c **** 		case FS_FAT32 :
1193:Core/Src/FAT/ff.c **** 			if (move_window(fs, fs->fatbase + (clst / (SS(fs) / 4))) != FR_OK) break;
1194:Core/Src/FAT/ff.c **** 			val = ld_dword(fs->win + clst * 4 % SS(fs)) & 0x0FFFFFFF;	/* Simple DWORD array but mask out upp
1195:Core/Src/FAT/ff.c **** 			break;
1196:Core/Src/FAT/ff.c **** #if FF_FS_EXFAT
1197:Core/Src/FAT/ff.c **** 		case FS_EXFAT :
1198:Core/Src/FAT/ff.c **** 			if ((obj->objsize != 0 && obj->sclust != 0) || obj->stat == 0) {	/* Object except root dir must 
1199:Core/Src/FAT/ff.c **** 				DWORD cofs = clst - obj->sclust;	/* Offset from start cluster */
1200:Core/Src/FAT/ff.c **** 				DWORD clen = (DWORD)((LBA_t)((obj->objsize - 1) / SS(fs)) / fs->csize);	/* Number of clusters -
1201:Core/Src/FAT/ff.c **** 
1202:Core/Src/FAT/ff.c **** 				if (obj->stat == 2 && cofs <= clen) {	/* Is it a contiguous chain? */
1203:Core/Src/FAT/ff.c **** 					val = (cofs == clen) ? 0x7FFFFFFF : clst + 1;	/* No data on the FAT, generate the value */
1204:Core/Src/FAT/ff.c **** 					break;
1205:Core/Src/FAT/ff.c **** 				}
1206:Core/Src/FAT/ff.c **** 				if (obj->stat == 3 && cofs < obj->n_cont) {	/* Is it in the 1st fragment? */
1207:Core/Src/FAT/ff.c **** 					val = clst + 1; 	/* Generate the value */
1208:Core/Src/FAT/ff.c **** 					break;
1209:Core/Src/FAT/ff.c **** 				}
1210:Core/Src/FAT/ff.c **** 				if (obj->stat != 2) {	/* Get value from FAT if FAT chain is valid */
1211:Core/Src/FAT/ff.c **** 					if (obj->n_frag != 0) {	/* Is it on the growing edge? */
1212:Core/Src/FAT/ff.c **** 						val = 0x7FFFFFFF;	/* Generate EOC */
1213:Core/Src/FAT/ff.c **** 					} else {
1214:Core/Src/FAT/ff.c **** 						if (move_window(fs, fs->fatbase + (clst / (SS(fs) / 4))) != FR_OK) break;
1215:Core/Src/FAT/ff.c **** 						val = ld_dword(fs->win + clst * 4 % SS(fs)) & 0x7FFFFFFF;
1216:Core/Src/FAT/ff.c **** 					}
1217:Core/Src/FAT/ff.c **** 					break;
1218:Core/Src/FAT/ff.c **** 				}
1219:Core/Src/FAT/ff.c **** 			}
1220:Core/Src/FAT/ff.c **** 			val = 1;	/* Internal error */
1221:Core/Src/FAT/ff.c **** 			break;
1222:Core/Src/FAT/ff.c **** #endif
1223:Core/Src/FAT/ff.c **** 		default:
1224:Core/Src/FAT/ff.c **** 			val = 1;	/* Internal error */
1225:Core/Src/FAT/ff.c **** 		}
1226:Core/Src/FAT/ff.c **** 	}
1227:Core/Src/FAT/ff.c **** 
1228:Core/Src/FAT/ff.c **** 	return val;
1229:Core/Src/FAT/ff.c **** }
1230:Core/Src/FAT/ff.c **** 
1231:Core/Src/FAT/ff.c **** 
1232:Core/Src/FAT/ff.c **** 
1233:Core/Src/FAT/ff.c **** 
1234:Core/Src/FAT/ff.c **** #if !FF_FS_READONLY
1235:Core/Src/FAT/ff.c **** /*-----------------------------------------------------------------------*/
1236:Core/Src/FAT/ff.c **** /* FAT access - Change value of an FAT entry                             */
1237:Core/Src/FAT/ff.c **** /*-----------------------------------------------------------------------*/
1238:Core/Src/FAT/ff.c **** 
1239:Core/Src/FAT/ff.c **** static FRESULT put_fat (	/* FR_OK(0):succeeded, !=0:error */
1240:Core/Src/FAT/ff.c **** 	FATFS* fs,		/* Corresponding filesystem object */
1241:Core/Src/FAT/ff.c **** 	DWORD clst,		/* FAT index number (cluster number) to be changed */
1242:Core/Src/FAT/ff.c **** 	DWORD val		/* New value to be set to the entry */
1243:Core/Src/FAT/ff.c **** )
1244:Core/Src/FAT/ff.c **** {
ARM GAS  C:\Users\HP-Admin\AppData\Local\Temp\ccY0w7x3.s 			page 29


1245:Core/Src/FAT/ff.c **** 	UINT bc;
1246:Core/Src/FAT/ff.c **** 	BYTE *p;
1247:Core/Src/FAT/ff.c **** 	FRESULT res = FR_INT_ERR;
1248:Core/Src/FAT/ff.c **** 
1249:Core/Src/FAT/ff.c **** 
1250:Core/Src/FAT/ff.c **** 	if (clst >= 2 && clst < fs->n_fatent) {	/* Check if in valid range */
1251:Core/Src/FAT/ff.c **** 		switch (fs->fs_type) {
1252:Core/Src/FAT/ff.c **** 		case FS_FAT12:
1253:Core/Src/FAT/ff.c **** 			bc = (UINT)clst; bc += bc / 2;	/* bc: byte offset of the entry */
1254:Core/Src/FAT/ff.c **** 			res = move_window(fs, fs->fatbase + (bc / SS(fs)));
1255:Core/Src/FAT/ff.c **** 			if (res != FR_OK) break;
1256:Core/Src/FAT/ff.c **** 			p = fs->win + bc++ % SS(fs);
1257:Core/Src/FAT/ff.c **** 			*p = (clst & 1) ? ((*p & 0x0F) | ((BYTE)val << 4)) : (BYTE)val;	/* Update 1st byte */
1258:Core/Src/FAT/ff.c **** 			fs->wflag = 1;
1259:Core/Src/FAT/ff.c **** 			res = move_window(fs, fs->fatbase + (bc / SS(fs)));
1260:Core/Src/FAT/ff.c **** 			if (res != FR_OK) break;
1261:Core/Src/FAT/ff.c **** 			p = fs->win + bc % SS(fs);
1262:Core/Src/FAT/ff.c **** 			*p = (clst & 1) ? (BYTE)(val >> 4) : ((*p & 0xF0) | ((BYTE)(val >> 8) & 0x0F));	/* Update 2nd by
1263:Core/Src/FAT/ff.c **** 			fs->wflag = 1;
1264:Core/Src/FAT/ff.c **** 			break;
1265:Core/Src/FAT/ff.c **** 
1266:Core/Src/FAT/ff.c **** 		case FS_FAT16:
1267:Core/Src/FAT/ff.c **** 			res = move_window(fs, fs->fatbase + (clst / (SS(fs) / 2)));
1268:Core/Src/FAT/ff.c **** 			if (res != FR_OK) break;
1269:Core/Src/FAT/ff.c **** 			st_word(fs->win + clst * 2 % SS(fs), (WORD)val);	/* Simple WORD array */
1270:Core/Src/FAT/ff.c **** 			fs->wflag = 1;
1271:Core/Src/FAT/ff.c **** 			break;
1272:Core/Src/FAT/ff.c **** 
1273:Core/Src/FAT/ff.c **** 		case FS_FAT32:
1274:Core/Src/FAT/ff.c **** #if FF_FS_EXFAT
1275:Core/Src/FAT/ff.c **** 		case FS_EXFAT:
1276:Core/Src/FAT/ff.c **** #endif
1277:Core/Src/FAT/ff.c **** 			res = move_window(fs, fs->fatbase + (clst / (SS(fs) / 4)));
1278:Core/Src/FAT/ff.c **** 			if (res != FR_OK) break;
1279:Core/Src/FAT/ff.c **** 			if (!FF_FS_EXFAT || fs->fs_type != FS_EXFAT) {
1280:Core/Src/FAT/ff.c **** 				val = (val & 0x0FFFFFFF) | (ld_dword(fs->win + clst * 4 % SS(fs)) & 0xF0000000);
1281:Core/Src/FAT/ff.c **** 			}
1282:Core/Src/FAT/ff.c **** 			st_dword(fs->win + clst * 4 % SS(fs), val);
1283:Core/Src/FAT/ff.c **** 			fs->wflag = 1;
1284:Core/Src/FAT/ff.c **** 			break;
1285:Core/Src/FAT/ff.c **** 		}
1286:Core/Src/FAT/ff.c **** 	}
1287:Core/Src/FAT/ff.c **** 	return res;
1288:Core/Src/FAT/ff.c **** }
1289:Core/Src/FAT/ff.c **** 
1290:Core/Src/FAT/ff.c **** #endif /* !FF_FS_READONLY */
1291:Core/Src/FAT/ff.c **** 
1292:Core/Src/FAT/ff.c **** 
1293:Core/Src/FAT/ff.c **** 
1294:Core/Src/FAT/ff.c **** 
1295:Core/Src/FAT/ff.c **** #if FF_FS_EXFAT && !FF_FS_READONLY
1296:Core/Src/FAT/ff.c **** /*-----------------------------------------------------------------------*/
1297:Core/Src/FAT/ff.c **** /* exFAT: Accessing FAT and Allocation Bitmap                            */
1298:Core/Src/FAT/ff.c **** /*-----------------------------------------------------------------------*/
1299:Core/Src/FAT/ff.c **** 
1300:Core/Src/FAT/ff.c **** /*--------------------------------------*/
1301:Core/Src/FAT/ff.c **** /* Find a contiguous free cluster block */
ARM GAS  C:\Users\HP-Admin\AppData\Local\Temp\ccY0w7x3.s 			page 30


1302:Core/Src/FAT/ff.c **** /*--------------------------------------*/
1303:Core/Src/FAT/ff.c **** 
1304:Core/Src/FAT/ff.c **** static DWORD find_bitmap (	/* 0:Not found, 2..:Cluster block found, 0xFFFFFFFF:Disk error */
1305:Core/Src/FAT/ff.c **** 	FATFS* fs,	/* Filesystem object */
1306:Core/Src/FAT/ff.c **** 	DWORD clst,	/* Cluster number to scan from */
1307:Core/Src/FAT/ff.c **** 	DWORD ncl	/* Number of contiguous clusters to find (1..) */
1308:Core/Src/FAT/ff.c **** )
1309:Core/Src/FAT/ff.c **** {
1310:Core/Src/FAT/ff.c **** 	BYTE bm, bv;
1311:Core/Src/FAT/ff.c **** 	UINT i;
1312:Core/Src/FAT/ff.c **** 	DWORD val, scl, ctr;
1313:Core/Src/FAT/ff.c **** 
1314:Core/Src/FAT/ff.c **** 
1315:Core/Src/FAT/ff.c **** 	clst -= 2;	/* The first bit in the bitmap corresponds to cluster #2 */
1316:Core/Src/FAT/ff.c **** 	if (clst >= fs->n_fatent - 2) clst = 0;
1317:Core/Src/FAT/ff.c **** 	scl = val = clst; ctr = 0;
1318:Core/Src/FAT/ff.c **** 	for (;;) {
1319:Core/Src/FAT/ff.c **** 		if (move_window(fs, fs->bitbase + val / 8 / SS(fs)) != FR_OK) return 0xFFFFFFFF;
1320:Core/Src/FAT/ff.c **** 		i = val / 8 % SS(fs); bm = 1 << (val % 8);
1321:Core/Src/FAT/ff.c **** 		do {
1322:Core/Src/FAT/ff.c **** 			do {
1323:Core/Src/FAT/ff.c **** 				bv = fs->win[i] & bm; bm <<= 1;		/* Get bit value */
1324:Core/Src/FAT/ff.c **** 				if (++val >= fs->n_fatent - 2) {	/* Next cluster (with wrap-around) */
1325:Core/Src/FAT/ff.c **** 					val = 0; bm = 0; i = SS(fs);
1326:Core/Src/FAT/ff.c **** 				}
1327:Core/Src/FAT/ff.c **** 				if (bv == 0) {	/* Is it a free cluster? */
1328:Core/Src/FAT/ff.c **** 					if (++ctr == ncl) return scl + 2;	/* Check if run length is sufficient for required */
1329:Core/Src/FAT/ff.c **** 				} else {
1330:Core/Src/FAT/ff.c **** 					scl = val; ctr = 0;		/* Encountered a cluster in-use, restart to scan */
1331:Core/Src/FAT/ff.c **** 				}
1332:Core/Src/FAT/ff.c **** 				if (val == clst) return 0;	/* All cluster scanned? */
1333:Core/Src/FAT/ff.c **** 			} while (bm != 0);
1334:Core/Src/FAT/ff.c **** 			bm = 1;
1335:Core/Src/FAT/ff.c **** 		} while (++i < SS(fs));
1336:Core/Src/FAT/ff.c **** 	}
1337:Core/Src/FAT/ff.c **** }
1338:Core/Src/FAT/ff.c **** 
1339:Core/Src/FAT/ff.c **** 
1340:Core/Src/FAT/ff.c **** /*----------------------------------------*/
1341:Core/Src/FAT/ff.c **** /* Set/Clear a block of allocation bitmap */
1342:Core/Src/FAT/ff.c **** /*----------------------------------------*/
1343:Core/Src/FAT/ff.c **** 
1344:Core/Src/FAT/ff.c **** static FRESULT change_bitmap (
1345:Core/Src/FAT/ff.c **** 	FATFS* fs,	/* Filesystem object */
1346:Core/Src/FAT/ff.c **** 	DWORD clst,	/* Cluster number to change from */
1347:Core/Src/FAT/ff.c **** 	DWORD ncl,	/* Number of clusters to be changed */
1348:Core/Src/FAT/ff.c **** 	int bv		/* bit value to be set (0 or 1) */
1349:Core/Src/FAT/ff.c **** )
1350:Core/Src/FAT/ff.c **** {
1351:Core/Src/FAT/ff.c **** 	BYTE bm;
1352:Core/Src/FAT/ff.c **** 	UINT i;
1353:Core/Src/FAT/ff.c **** 	LBA_t sect;
1354:Core/Src/FAT/ff.c **** 
1355:Core/Src/FAT/ff.c **** 
1356:Core/Src/FAT/ff.c **** 	clst -= 2;	/* The first bit corresponds to cluster #2 */
1357:Core/Src/FAT/ff.c **** 	sect = fs->bitbase + clst / 8 / SS(fs);	/* Sector address */
1358:Core/Src/FAT/ff.c **** 	i = clst / 8 % SS(fs);					/* Byte offset in the sector */
ARM GAS  C:\Users\HP-Admin\AppData\Local\Temp\ccY0w7x3.s 			page 31


1359:Core/Src/FAT/ff.c **** 	bm = 1 << (clst % 8);					/* Bit mask in the byte */
1360:Core/Src/FAT/ff.c **** 	for (;;) {
1361:Core/Src/FAT/ff.c **** 		if (move_window(fs, sect++) != FR_OK) return FR_DISK_ERR;
1362:Core/Src/FAT/ff.c **** 		do {
1363:Core/Src/FAT/ff.c **** 			do {
1364:Core/Src/FAT/ff.c **** 				if (bv == (int)((fs->win[i] & bm) != 0)) return FR_INT_ERR;	/* Is the bit expected value? */
1365:Core/Src/FAT/ff.c **** 				fs->win[i] ^= bm;	/* Flip the bit */
1366:Core/Src/FAT/ff.c **** 				fs->wflag = 1;
1367:Core/Src/FAT/ff.c **** 				if (--ncl == 0) return FR_OK;	/* All bits processed? */
1368:Core/Src/FAT/ff.c **** 			} while (bm <<= 1);		/* Next bit */
1369:Core/Src/FAT/ff.c **** 			bm = 1;
1370:Core/Src/FAT/ff.c **** 		} while (++i < SS(fs));		/* Next byte */
1371:Core/Src/FAT/ff.c **** 		i = 0;
1372:Core/Src/FAT/ff.c **** 	}
1373:Core/Src/FAT/ff.c **** }
1374:Core/Src/FAT/ff.c **** 
1375:Core/Src/FAT/ff.c **** 
1376:Core/Src/FAT/ff.c **** /*---------------------------------------------*/
1377:Core/Src/FAT/ff.c **** /* Fill the first fragment of the FAT chain    */
1378:Core/Src/FAT/ff.c **** /*---------------------------------------------*/
1379:Core/Src/FAT/ff.c **** 
1380:Core/Src/FAT/ff.c **** static FRESULT fill_first_frag (
1381:Core/Src/FAT/ff.c **** 	FFOBJID* obj	/* Pointer to the corresponding object */
1382:Core/Src/FAT/ff.c **** )
1383:Core/Src/FAT/ff.c **** {
1384:Core/Src/FAT/ff.c **** 	FRESULT res;
1385:Core/Src/FAT/ff.c **** 	DWORD cl, n;
1386:Core/Src/FAT/ff.c **** 
1387:Core/Src/FAT/ff.c **** 
1388:Core/Src/FAT/ff.c **** 	if (obj->stat == 3) {	/* Has the object been changed 'fragmented' in this session? */
1389:Core/Src/FAT/ff.c **** 		for (cl = obj->sclust, n = obj->n_cont; n; cl++, n--) {	/* Create cluster chain on the FAT */
1390:Core/Src/FAT/ff.c **** 			res = put_fat(obj->fs, cl, cl + 1);
1391:Core/Src/FAT/ff.c **** 			if (res != FR_OK) return res;
1392:Core/Src/FAT/ff.c **** 		}
1393:Core/Src/FAT/ff.c **** 		obj->stat = 0;	/* Change status 'FAT chain is valid' */
1394:Core/Src/FAT/ff.c **** 	}
1395:Core/Src/FAT/ff.c **** 	return FR_OK;
1396:Core/Src/FAT/ff.c **** }
1397:Core/Src/FAT/ff.c **** 
1398:Core/Src/FAT/ff.c **** 
1399:Core/Src/FAT/ff.c **** /*---------------------------------------------*/
1400:Core/Src/FAT/ff.c **** /* Fill the last fragment of the FAT chain     */
1401:Core/Src/FAT/ff.c **** /*---------------------------------------------*/
1402:Core/Src/FAT/ff.c **** 
1403:Core/Src/FAT/ff.c **** static FRESULT fill_last_frag (
1404:Core/Src/FAT/ff.c **** 	FFOBJID* obj,	/* Pointer to the corresponding object */
1405:Core/Src/FAT/ff.c **** 	DWORD lcl,		/* Last cluster of the fragment */
1406:Core/Src/FAT/ff.c **** 	DWORD term		/* Value to set the last FAT entry */
1407:Core/Src/FAT/ff.c **** )
1408:Core/Src/FAT/ff.c **** {
1409:Core/Src/FAT/ff.c **** 	FRESULT res;
1410:Core/Src/FAT/ff.c **** 
1411:Core/Src/FAT/ff.c **** 
1412:Core/Src/FAT/ff.c **** 	while (obj->n_frag > 0) {	/* Create the chain of last fragment */
1413:Core/Src/FAT/ff.c **** 		res = put_fat(obj->fs, lcl - obj->n_frag + 1, (obj->n_frag > 1) ? lcl - obj->n_frag + 2 : term);
1414:Core/Src/FAT/ff.c **** 		if (res != FR_OK) return res;
1415:Core/Src/FAT/ff.c **** 		obj->n_frag--;
ARM GAS  C:\Users\HP-Admin\AppData\Local\Temp\ccY0w7x3.s 			page 32


1416:Core/Src/FAT/ff.c **** 	}
1417:Core/Src/FAT/ff.c **** 	return FR_OK;
1418:Core/Src/FAT/ff.c **** }
1419:Core/Src/FAT/ff.c **** 
1420:Core/Src/FAT/ff.c **** #endif	/* FF_FS_EXFAT && !FF_FS_READONLY */
1421:Core/Src/FAT/ff.c **** 
1422:Core/Src/FAT/ff.c **** 
1423:Core/Src/FAT/ff.c **** 
1424:Core/Src/FAT/ff.c **** #if !FF_FS_READONLY
1425:Core/Src/FAT/ff.c **** /*-----------------------------------------------------------------------*/
1426:Core/Src/FAT/ff.c **** /* FAT handling - Remove a cluster chain                                 */
1427:Core/Src/FAT/ff.c **** /*-----------------------------------------------------------------------*/
1428:Core/Src/FAT/ff.c **** 
1429:Core/Src/FAT/ff.c **** static FRESULT remove_chain (	/* FR_OK(0):succeeded, !=0:error */
1430:Core/Src/FAT/ff.c **** 	FFOBJID* obj,		/* Corresponding object */
1431:Core/Src/FAT/ff.c **** 	DWORD clst,			/* Cluster to remove a chain from */
1432:Core/Src/FAT/ff.c **** 	DWORD pclst			/* Previous cluster of clst (0 if entire chain) */
1433:Core/Src/FAT/ff.c **** )
1434:Core/Src/FAT/ff.c **** {
1435:Core/Src/FAT/ff.c **** 	FRESULT res = FR_OK;
1436:Core/Src/FAT/ff.c **** 	DWORD nxt;
1437:Core/Src/FAT/ff.c **** 	FATFS *fs = obj->fs;
1438:Core/Src/FAT/ff.c **** #if FF_FS_EXFAT || FF_USE_TRIM
1439:Core/Src/FAT/ff.c **** 	DWORD scl = clst, ecl = clst;
1440:Core/Src/FAT/ff.c **** #endif
1441:Core/Src/FAT/ff.c **** #if FF_USE_TRIM
1442:Core/Src/FAT/ff.c **** 	LBA_t rt[2];
1443:Core/Src/FAT/ff.c **** #endif
1444:Core/Src/FAT/ff.c **** 
1445:Core/Src/FAT/ff.c **** 	if (clst < 2 || clst >= fs->n_fatent) return FR_INT_ERR;	/* Check if in valid range */
1446:Core/Src/FAT/ff.c **** 
1447:Core/Src/FAT/ff.c **** 	/* Mark the previous cluster 'EOC' on the FAT if it exists */
1448:Core/Src/FAT/ff.c **** 	if (pclst != 0 && (!FF_FS_EXFAT || fs->fs_type != FS_EXFAT || obj->stat != 2)) {
1449:Core/Src/FAT/ff.c **** 		res = put_fat(fs, pclst, 0xFFFFFFFF);
1450:Core/Src/FAT/ff.c **** 		if (res != FR_OK) return res;
1451:Core/Src/FAT/ff.c **** 	}
1452:Core/Src/FAT/ff.c **** 
1453:Core/Src/FAT/ff.c **** 	/* Remove the chain */
1454:Core/Src/FAT/ff.c **** 	do {
1455:Core/Src/FAT/ff.c **** 		nxt = get_fat(obj, clst);			/* Get cluster status */
1456:Core/Src/FAT/ff.c **** 		if (nxt == 0) break;				/* Empty cluster? */
1457:Core/Src/FAT/ff.c **** 		if (nxt == 1) return FR_INT_ERR;	/* Internal error? */
1458:Core/Src/FAT/ff.c **** 		if (nxt == 0xFFFFFFFF) return FR_DISK_ERR;	/* Disk error? */
1459:Core/Src/FAT/ff.c **** 		if (!FF_FS_EXFAT || fs->fs_type != FS_EXFAT) {
1460:Core/Src/FAT/ff.c **** 			res = put_fat(fs, clst, 0);		/* Mark the cluster 'free' on the FAT */
1461:Core/Src/FAT/ff.c **** 			if (res != FR_OK) return res;
1462:Core/Src/FAT/ff.c **** 		}
1463:Core/Src/FAT/ff.c **** 		if (fs->free_clst < fs->n_fatent - 2) {	/* Update FSINFO */
1464:Core/Src/FAT/ff.c **** 			fs->free_clst++;
1465:Core/Src/FAT/ff.c **** 			fs->fsi_flag |= 1;
1466:Core/Src/FAT/ff.c **** 		}
1467:Core/Src/FAT/ff.c **** #if FF_FS_EXFAT || FF_USE_TRIM
1468:Core/Src/FAT/ff.c **** 		if (ecl + 1 == nxt) {	/* Is next cluster contiguous? */
1469:Core/Src/FAT/ff.c **** 			ecl = nxt;
1470:Core/Src/FAT/ff.c **** 		} else {				/* End of contiguous cluster block */
1471:Core/Src/FAT/ff.c **** #if FF_FS_EXFAT
1472:Core/Src/FAT/ff.c **** 			if (fs->fs_type == FS_EXFAT) {
ARM GAS  C:\Users\HP-Admin\AppData\Local\Temp\ccY0w7x3.s 			page 33


1473:Core/Src/FAT/ff.c **** 				res = change_bitmap(fs, scl, ecl - scl + 1, 0);	/* Mark the cluster block 'free' on the bitmap 
1474:Core/Src/FAT/ff.c **** 				if (res != FR_OK) return res;
1475:Core/Src/FAT/ff.c **** 			}
1476:Core/Src/FAT/ff.c **** #endif
1477:Core/Src/FAT/ff.c **** #if FF_USE_TRIM
1478:Core/Src/FAT/ff.c **** 			rt[0] = clst2sect(fs, scl);					/* Start of data area to be freed */
1479:Core/Src/FAT/ff.c **** 			rt[1] = clst2sect(fs, ecl) + fs->csize - 1;	/* End of data area to be freed */
1480:Core/Src/FAT/ff.c **** 			disk_ioctl(fs->pdrv, CTRL_TRIM, rt);		/* Inform storage device that the data in the block may be
1481:Core/Src/FAT/ff.c **** #endif
1482:Core/Src/FAT/ff.c **** 			scl = ecl = nxt;
1483:Core/Src/FAT/ff.c **** 		}
1484:Core/Src/FAT/ff.c **** #endif
1485:Core/Src/FAT/ff.c **** 		clst = nxt;					/* Next cluster */
1486:Core/Src/FAT/ff.c **** 	} while (clst < fs->n_fatent);	/* Repeat while not the last link */
1487:Core/Src/FAT/ff.c **** 
1488:Core/Src/FAT/ff.c **** #if FF_FS_EXFAT
1489:Core/Src/FAT/ff.c **** 	/* Some post processes for chain status */
1490:Core/Src/FAT/ff.c **** 	if (fs->fs_type == FS_EXFAT) {
1491:Core/Src/FAT/ff.c **** 		if (pclst == 0) {	/* Has the entire chain been removed? */
1492:Core/Src/FAT/ff.c **** 			obj->stat = 0;		/* Change the chain status 'initial' */
1493:Core/Src/FAT/ff.c **** 		} else {
1494:Core/Src/FAT/ff.c **** 			if (obj->stat == 0) {	/* Is it a fragmented chain from the beginning of this session? */
1495:Core/Src/FAT/ff.c **** 				clst = obj->sclust;		/* Follow the chain to check if it gets contiguous */
1496:Core/Src/FAT/ff.c **** 				while (clst != pclst) {
1497:Core/Src/FAT/ff.c **** 					nxt = get_fat(obj, clst);
1498:Core/Src/FAT/ff.c **** 					if (nxt < 2) return FR_INT_ERR;
1499:Core/Src/FAT/ff.c **** 					if (nxt == 0xFFFFFFFF) return FR_DISK_ERR;
1500:Core/Src/FAT/ff.c **** 					if (nxt != clst + 1) break;	/* Not contiguous? */
1501:Core/Src/FAT/ff.c **** 					clst++;
1502:Core/Src/FAT/ff.c **** 				}
1503:Core/Src/FAT/ff.c **** 				if (clst == pclst) {	/* Has the chain got contiguous again? */
1504:Core/Src/FAT/ff.c **** 					obj->stat = 2;		/* Change the chain status 'contiguous' */
1505:Core/Src/FAT/ff.c **** 				}
1506:Core/Src/FAT/ff.c **** 			} else {
1507:Core/Src/FAT/ff.c **** 				if (obj->stat == 3 && pclst >= obj->sclust && pclst <= obj->sclust + obj->n_cont) {	/* Was the 
1508:Core/Src/FAT/ff.c **** 					obj->stat = 2;	/* Change the chain status 'contiguous' */
1509:Core/Src/FAT/ff.c **** 				}
1510:Core/Src/FAT/ff.c **** 			}
1511:Core/Src/FAT/ff.c **** 		}
1512:Core/Src/FAT/ff.c **** 	}
1513:Core/Src/FAT/ff.c **** #endif
1514:Core/Src/FAT/ff.c **** 	return FR_OK;
1515:Core/Src/FAT/ff.c **** }
1516:Core/Src/FAT/ff.c **** 
1517:Core/Src/FAT/ff.c **** 
1518:Core/Src/FAT/ff.c **** 
1519:Core/Src/FAT/ff.c **** 
1520:Core/Src/FAT/ff.c **** /*-----------------------------------------------------------------------*/
1521:Core/Src/FAT/ff.c **** /* FAT handling - Stretch a chain or Create a new chain                  */
1522:Core/Src/FAT/ff.c **** /*-----------------------------------------------------------------------*/
1523:Core/Src/FAT/ff.c **** 
1524:Core/Src/FAT/ff.c **** static DWORD create_chain (	/* 0:No free cluster, 1:Internal error, 0xFFFFFFFF:Disk error, >=2:New 
1525:Core/Src/FAT/ff.c **** 	FFOBJID* obj,		/* Corresponding object */
1526:Core/Src/FAT/ff.c **** 	DWORD clst			/* Cluster# to stretch, 0:Create a new chain */
1527:Core/Src/FAT/ff.c **** )
1528:Core/Src/FAT/ff.c **** {
1529:Core/Src/FAT/ff.c **** 	DWORD cs, ncl, scl;
ARM GAS  C:\Users\HP-Admin\AppData\Local\Temp\ccY0w7x3.s 			page 34


1530:Core/Src/FAT/ff.c **** 	FRESULT res;
1531:Core/Src/FAT/ff.c **** 	FATFS *fs = obj->fs;
1532:Core/Src/FAT/ff.c **** 
1533:Core/Src/FAT/ff.c **** 
1534:Core/Src/FAT/ff.c **** 	if (clst == 0) {	/* Create a new chain */
1535:Core/Src/FAT/ff.c **** 		scl = fs->last_clst;				/* Suggested cluster to start to find */
1536:Core/Src/FAT/ff.c **** 		if (scl == 0 || scl >= fs->n_fatent) scl = 1;
1537:Core/Src/FAT/ff.c **** 	}
1538:Core/Src/FAT/ff.c **** 	else {				/* Stretch a chain */
1539:Core/Src/FAT/ff.c **** 		cs = get_fat(obj, clst);			/* Check the cluster status */
1540:Core/Src/FAT/ff.c **** 		if (cs < 2) return 1;				/* Test for insanity */
1541:Core/Src/FAT/ff.c **** 		if (cs == 0xFFFFFFFF) return cs;	/* Test for disk error */
1542:Core/Src/FAT/ff.c **** 		if (cs < fs->n_fatent) return cs;	/* It is already followed by next cluster */
1543:Core/Src/FAT/ff.c **** 		scl = clst;							/* Cluster to start to find */
1544:Core/Src/FAT/ff.c **** 	}
1545:Core/Src/FAT/ff.c **** 	if (fs->free_clst == 0) return 0;		/* No free cluster */
1546:Core/Src/FAT/ff.c **** 
1547:Core/Src/FAT/ff.c **** #if FF_FS_EXFAT
1548:Core/Src/FAT/ff.c **** 	if (fs->fs_type == FS_EXFAT) {	/* On the exFAT volume */
1549:Core/Src/FAT/ff.c **** 		ncl = find_bitmap(fs, scl, 1);				/* Find a free cluster */
1550:Core/Src/FAT/ff.c **** 		if (ncl == 0 || ncl == 0xFFFFFFFF) return ncl;	/* No free cluster or hard error? */
1551:Core/Src/FAT/ff.c **** 		res = change_bitmap(fs, ncl, 1, 1);			/* Mark the cluster 'in use' */
1552:Core/Src/FAT/ff.c **** 		if (res == FR_INT_ERR) return 1;
1553:Core/Src/FAT/ff.c **** 		if (res == FR_DISK_ERR) return 0xFFFFFFFF;
1554:Core/Src/FAT/ff.c **** 		if (clst == 0) {							/* Is it a new chain? */
1555:Core/Src/FAT/ff.c **** 			obj->stat = 2;							/* Set status 'contiguous' */
1556:Core/Src/FAT/ff.c **** 		} else {									/* It is a stretched chain */
1557:Core/Src/FAT/ff.c **** 			if (obj->stat == 2 && ncl != scl + 1) {	/* Is the chain got fragmented? */
1558:Core/Src/FAT/ff.c **** 				obj->n_cont = scl - obj->sclust;	/* Set size of the contiguous part */
1559:Core/Src/FAT/ff.c **** 				obj->stat = 3;						/* Change status 'just fragmented' */
1560:Core/Src/FAT/ff.c **** 			}
1561:Core/Src/FAT/ff.c **** 		}
1562:Core/Src/FAT/ff.c **** 		if (obj->stat != 2) {	/* Is the file non-contiguous? */
1563:Core/Src/FAT/ff.c **** 			if (ncl == clst + 1) {	/* Is the cluster next to previous one? */
1564:Core/Src/FAT/ff.c **** 				obj->n_frag = obj->n_frag ? obj->n_frag + 1 : 2;	/* Increment size of last framgent */
1565:Core/Src/FAT/ff.c **** 			} else {				/* New fragment */
1566:Core/Src/FAT/ff.c **** 				if (obj->n_frag == 0) obj->n_frag = 1;
1567:Core/Src/FAT/ff.c **** 				res = fill_last_frag(obj, clst, ncl);	/* Fill last fragment on the FAT and link it to new one *
1568:Core/Src/FAT/ff.c **** 				if (res == FR_OK) obj->n_frag = 1;
1569:Core/Src/FAT/ff.c **** 			}
1570:Core/Src/FAT/ff.c **** 		}
1571:Core/Src/FAT/ff.c **** 	} else
1572:Core/Src/FAT/ff.c **** #endif
1573:Core/Src/FAT/ff.c **** 	{	/* On the FAT/FAT32 volume */
1574:Core/Src/FAT/ff.c **** 		ncl = 0;
1575:Core/Src/FAT/ff.c **** 		if (scl == clst) {						/* Stretching an existing chain? */
1576:Core/Src/FAT/ff.c **** 			ncl = scl + 1;						/* Test if next cluster is free */
1577:Core/Src/FAT/ff.c **** 			if (ncl >= fs->n_fatent) ncl = 2;
1578:Core/Src/FAT/ff.c **** 			cs = get_fat(obj, ncl);				/* Get next cluster status */
1579:Core/Src/FAT/ff.c **** 			if (cs == 1 || cs == 0xFFFFFFFF) return cs;	/* Test for error */
1580:Core/Src/FAT/ff.c **** 			if (cs != 0) {						/* Not free? */
1581:Core/Src/FAT/ff.c **** 				cs = fs->last_clst;				/* Start at suggested cluster if it is valid */
1582:Core/Src/FAT/ff.c **** 				if (cs >= 2 && cs < fs->n_fatent) scl = cs;
1583:Core/Src/FAT/ff.c **** 				ncl = 0;
1584:Core/Src/FAT/ff.c **** 			}
1585:Core/Src/FAT/ff.c **** 		}
1586:Core/Src/FAT/ff.c **** 		if (ncl == 0) {	/* The new cluster cannot be contiguous and find another fragment */
ARM GAS  C:\Users\HP-Admin\AppData\Local\Temp\ccY0w7x3.s 			page 35


1587:Core/Src/FAT/ff.c **** 			ncl = scl;	/* Start cluster */
1588:Core/Src/FAT/ff.c **** 			for (;;) {
1589:Core/Src/FAT/ff.c **** 				ncl++;							/* Next cluster */
1590:Core/Src/FAT/ff.c **** 				if (ncl >= fs->n_fatent) {		/* Check wrap-around */
1591:Core/Src/FAT/ff.c **** 					ncl = 2;
1592:Core/Src/FAT/ff.c **** 					if (ncl > scl) return 0;	/* No free cluster found? */
1593:Core/Src/FAT/ff.c **** 				}
1594:Core/Src/FAT/ff.c **** 				cs = get_fat(obj, ncl);			/* Get the cluster status */
1595:Core/Src/FAT/ff.c **** 				if (cs == 0) break;				/* Found a free cluster? */
1596:Core/Src/FAT/ff.c **** 				if (cs == 1 || cs == 0xFFFFFFFF) return cs;	/* Test for error */
1597:Core/Src/FAT/ff.c **** 				if (ncl == scl) return 0;		/* No free cluster found? */
1598:Core/Src/FAT/ff.c **** 			}
1599:Core/Src/FAT/ff.c **** 		}
1600:Core/Src/FAT/ff.c **** 		res = put_fat(fs, ncl, 0xFFFFFFFF);		/* Mark the new cluster 'EOC' */
1601:Core/Src/FAT/ff.c **** 		if (res == FR_OK && clst != 0) {
1602:Core/Src/FAT/ff.c **** 			res = put_fat(fs, clst, ncl);		/* Link it from the previous one if needed */
1603:Core/Src/FAT/ff.c **** 		}
1604:Core/Src/FAT/ff.c **** 	}
1605:Core/Src/FAT/ff.c **** 
1606:Core/Src/FAT/ff.c **** 	if (res == FR_OK) {			/* Update FSINFO if function succeeded. */
1607:Core/Src/FAT/ff.c **** 		fs->last_clst = ncl;
1608:Core/Src/FAT/ff.c **** 		if (fs->free_clst <= fs->n_fatent - 2) fs->free_clst--;
1609:Core/Src/FAT/ff.c **** 		fs->fsi_flag |= 1;
1610:Core/Src/FAT/ff.c **** 	} else {
1611:Core/Src/FAT/ff.c **** 		ncl = (res == FR_DISK_ERR) ? 0xFFFFFFFF : 1;	/* Failed. Generate error status */
1612:Core/Src/FAT/ff.c **** 	}
1613:Core/Src/FAT/ff.c **** 
1614:Core/Src/FAT/ff.c **** 	return ncl;		/* Return new cluster number or error status */
1615:Core/Src/FAT/ff.c **** }
1616:Core/Src/FAT/ff.c **** 
1617:Core/Src/FAT/ff.c **** #endif /* !FF_FS_READONLY */
1618:Core/Src/FAT/ff.c **** 
1619:Core/Src/FAT/ff.c **** 
1620:Core/Src/FAT/ff.c **** 
1621:Core/Src/FAT/ff.c **** 
1622:Core/Src/FAT/ff.c **** #if FF_USE_FASTSEEK
1623:Core/Src/FAT/ff.c **** /*-----------------------------------------------------------------------*/
1624:Core/Src/FAT/ff.c **** /* FAT handling - Convert offset into cluster with link map table        */
1625:Core/Src/FAT/ff.c **** /*-----------------------------------------------------------------------*/
1626:Core/Src/FAT/ff.c **** 
1627:Core/Src/FAT/ff.c **** static DWORD clmt_clust (	/* <2:Error, >=2:Cluster number */
1628:Core/Src/FAT/ff.c **** 	FIL* fp,		/* Pointer to the file object */
1629:Core/Src/FAT/ff.c **** 	FSIZE_t ofs		/* File offset to be converted to cluster# */
1630:Core/Src/FAT/ff.c **** )
1631:Core/Src/FAT/ff.c **** {
1632:Core/Src/FAT/ff.c **** 	DWORD cl, ncl;
1633:Core/Src/FAT/ff.c **** 	DWORD *tbl;
1634:Core/Src/FAT/ff.c **** 	FATFS *fs = fp->obj.fs;
1635:Core/Src/FAT/ff.c **** 
1636:Core/Src/FAT/ff.c **** 
1637:Core/Src/FAT/ff.c **** 	tbl = fp->cltbl + 1;	/* Top of CLMT */
1638:Core/Src/FAT/ff.c **** 	cl = (DWORD)(ofs / SS(fs) / fs->csize);	/* Cluster order from top of the file */
1639:Core/Src/FAT/ff.c **** 	for (;;) {
1640:Core/Src/FAT/ff.c **** 		ncl = *tbl++;			/* Number of cluters in the fragment */
1641:Core/Src/FAT/ff.c **** 		if (ncl == 0) return 0;	/* End of table? (error) */
1642:Core/Src/FAT/ff.c **** 		if (cl < ncl) break;	/* In this fragment? */
1643:Core/Src/FAT/ff.c **** 		cl -= ncl; tbl++;		/* Next fragment */
ARM GAS  C:\Users\HP-Admin\AppData\Local\Temp\ccY0w7x3.s 			page 36


1644:Core/Src/FAT/ff.c **** 	}
1645:Core/Src/FAT/ff.c **** 	return cl + *tbl;	/* Return the cluster number */
1646:Core/Src/FAT/ff.c **** }
1647:Core/Src/FAT/ff.c **** 
1648:Core/Src/FAT/ff.c **** #endif	/* FF_USE_FASTSEEK */
1649:Core/Src/FAT/ff.c **** 
1650:Core/Src/FAT/ff.c **** 
1651:Core/Src/FAT/ff.c **** 
1652:Core/Src/FAT/ff.c **** 
1653:Core/Src/FAT/ff.c **** /*-----------------------------------------------------------------------*/
1654:Core/Src/FAT/ff.c **** /* Directory handling - Fill a cluster with zeros                        */
1655:Core/Src/FAT/ff.c **** /*-----------------------------------------------------------------------*/
1656:Core/Src/FAT/ff.c **** 
1657:Core/Src/FAT/ff.c **** #if !FF_FS_READONLY
1658:Core/Src/FAT/ff.c **** static FRESULT dir_clear (	/* Returns FR_OK or FR_DISK_ERR */
1659:Core/Src/FAT/ff.c **** 	FATFS *fs,		/* Filesystem object */
1660:Core/Src/FAT/ff.c **** 	DWORD clst		/* Directory table to clear */
1661:Core/Src/FAT/ff.c **** )
1662:Core/Src/FAT/ff.c **** {
1663:Core/Src/FAT/ff.c **** 	LBA_t sect;
1664:Core/Src/FAT/ff.c **** 	UINT n, szb;
1665:Core/Src/FAT/ff.c **** 	BYTE *ibuf;
1666:Core/Src/FAT/ff.c **** 
1667:Core/Src/FAT/ff.c **** 
1668:Core/Src/FAT/ff.c **** 	if (sync_window(fs) != FR_OK) return FR_DISK_ERR;	/* Flush disk access window */
1669:Core/Src/FAT/ff.c **** 	sect = clst2sect(fs, clst);		/* Top of the cluster */
1670:Core/Src/FAT/ff.c **** 	fs->winsect = sect;				/* Set window to top of the cluster */
1671:Core/Src/FAT/ff.c **** 	memset(fs->win, 0, sizeof fs->win);	/* Clear window buffer */
1672:Core/Src/FAT/ff.c **** #if FF_USE_LFN == 3		/* Quick table clear by using multi-secter write */
1673:Core/Src/FAT/ff.c **** 	/* Allocate a temporary buffer */
1674:Core/Src/FAT/ff.c **** 	for (szb = ((DWORD)fs->csize * SS(fs) >= MAX_MALLOC) ? MAX_MALLOC : fs->csize * SS(fs), ibuf = 0; 
1675:Core/Src/FAT/ff.c **** 	if (szb > SS(fs)) {		/* Buffer allocated? */
1676:Core/Src/FAT/ff.c **** 		memset(ibuf, 0, szb);
1677:Core/Src/FAT/ff.c **** 		szb /= SS(fs);		/* Bytes -> Sectors */
1678:Core/Src/FAT/ff.c **** 		for (n = 0; n < fs->csize && disk_write(fs->pdrv, ibuf, sect + n, szb) == RES_OK; n += szb) ;	/* 
1679:Core/Src/FAT/ff.c **** 		ff_memfree(ibuf);
1680:Core/Src/FAT/ff.c **** 	} else
1681:Core/Src/FAT/ff.c **** #endif
1682:Core/Src/FAT/ff.c **** 	{
1683:Core/Src/FAT/ff.c **** 		ibuf = fs->win; szb = 1;	/* Use window buffer (many single-sector writes may take a time) */
1684:Core/Src/FAT/ff.c **** 		for (n = 0; n < fs->csize && disk_write(fs->pdrv, ibuf, sect + n, szb) == RES_OK; n += szb) ;	/* 
1685:Core/Src/FAT/ff.c **** 	}
1686:Core/Src/FAT/ff.c **** 	return (n == fs->csize) ? FR_OK : FR_DISK_ERR;
1687:Core/Src/FAT/ff.c **** }
1688:Core/Src/FAT/ff.c **** #endif	/* !FF_FS_READONLY */
1689:Core/Src/FAT/ff.c **** 
1690:Core/Src/FAT/ff.c **** 
1691:Core/Src/FAT/ff.c **** 
1692:Core/Src/FAT/ff.c **** 
1693:Core/Src/FAT/ff.c **** /*-----------------------------------------------------------------------*/
1694:Core/Src/FAT/ff.c **** /* Directory handling - Set directory index                              */
1695:Core/Src/FAT/ff.c **** /*-----------------------------------------------------------------------*/
1696:Core/Src/FAT/ff.c **** 
1697:Core/Src/FAT/ff.c **** static FRESULT dir_sdi (	/* FR_OK(0):succeeded, !=0:error */
1698:Core/Src/FAT/ff.c **** 	DIR* dp,		/* Pointer to directory object */
1699:Core/Src/FAT/ff.c **** 	DWORD ofs		/* Offset of directory table */
1700:Core/Src/FAT/ff.c **** )
ARM GAS  C:\Users\HP-Admin\AppData\Local\Temp\ccY0w7x3.s 			page 37


1701:Core/Src/FAT/ff.c **** {
1702:Core/Src/FAT/ff.c **** 	DWORD csz, clst;
1703:Core/Src/FAT/ff.c **** 	FATFS *fs = dp->obj.fs;
1704:Core/Src/FAT/ff.c **** 
1705:Core/Src/FAT/ff.c **** 
1706:Core/Src/FAT/ff.c **** 	if (ofs >= (DWORD)((FF_FS_EXFAT && fs->fs_type == FS_EXFAT) ? MAX_DIR_EX : MAX_DIR) || ofs % SZDIR
1707:Core/Src/FAT/ff.c **** 		return FR_INT_ERR;
1708:Core/Src/FAT/ff.c **** 	}
1709:Core/Src/FAT/ff.c **** 	dp->dptr = ofs;				/* Set current offset */
1710:Core/Src/FAT/ff.c **** 	clst = dp->obj.sclust;		/* Table start cluster (0:root) */
1711:Core/Src/FAT/ff.c **** 	if (clst == 0 && fs->fs_type >= FS_FAT32) {	/* Replace cluster# 0 with root cluster# */
1712:Core/Src/FAT/ff.c **** 		clst = (DWORD)fs->dirbase;
1713:Core/Src/FAT/ff.c **** 		if (FF_FS_EXFAT) dp->obj.stat = 0;	/* exFAT: Root dir has an FAT chain */
1714:Core/Src/FAT/ff.c **** 	}
1715:Core/Src/FAT/ff.c **** 
1716:Core/Src/FAT/ff.c **** 	if (clst == 0) {	/* Static table (root-directory on the FAT volume) */
1717:Core/Src/FAT/ff.c **** 		if (ofs / SZDIRE >= fs->n_rootdir) return FR_INT_ERR;	/* Is index out of range? */
1718:Core/Src/FAT/ff.c **** 		dp->sect = fs->dirbase;
1719:Core/Src/FAT/ff.c **** 
1720:Core/Src/FAT/ff.c **** 	} else {			/* Dynamic table (sub-directory or root-directory on the FAT32/exFAT volume) */
1721:Core/Src/FAT/ff.c **** 		csz = (DWORD)fs->csize * SS(fs);	/* Bytes per cluster */
1722:Core/Src/FAT/ff.c **** 		while (ofs >= csz) {				/* Follow cluster chain */
1723:Core/Src/FAT/ff.c **** 			clst = get_fat(&dp->obj, clst);				/* Get next cluster */
1724:Core/Src/FAT/ff.c **** 			if (clst == 0xFFFFFFFF) return FR_DISK_ERR;	/* Disk error */
1725:Core/Src/FAT/ff.c **** 			if (clst < 2 || clst >= fs->n_fatent) return FR_INT_ERR;	/* Reached to end of table or internal 
1726:Core/Src/FAT/ff.c **** 			ofs -= csz;
1727:Core/Src/FAT/ff.c **** 		}
1728:Core/Src/FAT/ff.c **** 		dp->sect = clst2sect(fs, clst);
1729:Core/Src/FAT/ff.c **** 	}
1730:Core/Src/FAT/ff.c **** 	dp->clust = clst;					/* Current cluster# */
1731:Core/Src/FAT/ff.c **** 	if (dp->sect == 0) return FR_INT_ERR;
1732:Core/Src/FAT/ff.c **** 	dp->sect += ofs / SS(fs);			/* Sector# of the directory entry */
1733:Core/Src/FAT/ff.c **** 	dp->dir = fs->win + (ofs % SS(fs));	/* Pointer to the entry in the win[] */
1734:Core/Src/FAT/ff.c **** 
1735:Core/Src/FAT/ff.c **** 	return FR_OK;
1736:Core/Src/FAT/ff.c **** }
1737:Core/Src/FAT/ff.c **** 
1738:Core/Src/FAT/ff.c **** 
1739:Core/Src/FAT/ff.c **** 
1740:Core/Src/FAT/ff.c **** 
1741:Core/Src/FAT/ff.c **** /*-----------------------------------------------------------------------*/
1742:Core/Src/FAT/ff.c **** /* Directory handling - Move directory table index next                  */
1743:Core/Src/FAT/ff.c **** /*-----------------------------------------------------------------------*/
1744:Core/Src/FAT/ff.c **** 
1745:Core/Src/FAT/ff.c **** static FRESULT dir_next (	/* FR_OK(0):succeeded, FR_NO_FILE:End of table, FR_DENIED:Could not stret
1746:Core/Src/FAT/ff.c **** 	DIR* dp,				/* Pointer to the directory object */
1747:Core/Src/FAT/ff.c **** 	int stretch				/* 0: Do not stretch table, 1: Stretch table if needed */
1748:Core/Src/FAT/ff.c **** )
1749:Core/Src/FAT/ff.c **** {
1750:Core/Src/FAT/ff.c **** 	DWORD ofs, clst;
1751:Core/Src/FAT/ff.c **** 	FATFS *fs = dp->obj.fs;
1752:Core/Src/FAT/ff.c **** 
1753:Core/Src/FAT/ff.c **** 
1754:Core/Src/FAT/ff.c **** 	ofs = dp->dptr + SZDIRE;	/* Next entry */
1755:Core/Src/FAT/ff.c **** 	if (ofs >= (DWORD)((FF_FS_EXFAT && fs->fs_type == FS_EXFAT) ? MAX_DIR_EX : MAX_DIR)) dp->sect = 0;
1756:Core/Src/FAT/ff.c **** 	if (dp->sect == 0) return FR_NO_FILE;	/* Report EOT if it has been disabled */
1757:Core/Src/FAT/ff.c **** 
ARM GAS  C:\Users\HP-Admin\AppData\Local\Temp\ccY0w7x3.s 			page 38


1758:Core/Src/FAT/ff.c **** 	if (ofs % SS(fs) == 0) {	/* Sector changed? */
1759:Core/Src/FAT/ff.c **** 		dp->sect++;				/* Next sector */
1760:Core/Src/FAT/ff.c **** 
1761:Core/Src/FAT/ff.c **** 		if (dp->clust == 0) {	/* Static table */
1762:Core/Src/FAT/ff.c **** 			if (ofs / SZDIRE >= fs->n_rootdir) {	/* Report EOT if it reached end of static table */
1763:Core/Src/FAT/ff.c **** 				dp->sect = 0; return FR_NO_FILE;
1764:Core/Src/FAT/ff.c **** 			}
1765:Core/Src/FAT/ff.c **** 		}
1766:Core/Src/FAT/ff.c **** 		else {					/* Dynamic table */
1767:Core/Src/FAT/ff.c **** 			if ((ofs / SS(fs) & (fs->csize - 1)) == 0) {	/* Cluster changed? */
1768:Core/Src/FAT/ff.c **** 				clst = get_fat(&dp->obj, dp->clust);		/* Get next cluster */
1769:Core/Src/FAT/ff.c **** 				if (clst <= 1) return FR_INT_ERR;			/* Internal error */
1770:Core/Src/FAT/ff.c **** 				if (clst == 0xFFFFFFFF) return FR_DISK_ERR;	/* Disk error */
1771:Core/Src/FAT/ff.c **** 				if (clst >= fs->n_fatent) {					/* It reached end of dynamic table */
1772:Core/Src/FAT/ff.c **** #if !FF_FS_READONLY
1773:Core/Src/FAT/ff.c **** 					if (!stretch) {								/* If no stretch, report EOT */
1774:Core/Src/FAT/ff.c **** 						dp->sect = 0; return FR_NO_FILE;
1775:Core/Src/FAT/ff.c **** 					}
1776:Core/Src/FAT/ff.c **** 					clst = create_chain(&dp->obj, dp->clust);	/* Allocate a cluster */
1777:Core/Src/FAT/ff.c **** 					if (clst == 0) return FR_DENIED;			/* No free cluster */
1778:Core/Src/FAT/ff.c **** 					if (clst == 1) return FR_INT_ERR;			/* Internal error */
1779:Core/Src/FAT/ff.c **** 					if (clst == 0xFFFFFFFF) return FR_DISK_ERR;	/* Disk error */
1780:Core/Src/FAT/ff.c **** 					if (dir_clear(fs, clst) != FR_OK) return FR_DISK_ERR;	/* Clean up the stretched table */
1781:Core/Src/FAT/ff.c **** 					if (FF_FS_EXFAT) dp->obj.stat |= 4;			/* exFAT: The directory has been stretched */
1782:Core/Src/FAT/ff.c **** #else
1783:Core/Src/FAT/ff.c **** 					if (!stretch) dp->sect = 0;					/* (this line is to suppress compiler warning) */
1784:Core/Src/FAT/ff.c **** 					dp->sect = 0; return FR_NO_FILE;			/* Report EOT */
1785:Core/Src/FAT/ff.c **** #endif
1786:Core/Src/FAT/ff.c **** 				}
1787:Core/Src/FAT/ff.c **** 				dp->clust = clst;		/* Initialize data for new cluster */
1788:Core/Src/FAT/ff.c **** 				dp->sect = clst2sect(fs, clst);
1789:Core/Src/FAT/ff.c **** 			}
1790:Core/Src/FAT/ff.c **** 		}
1791:Core/Src/FAT/ff.c **** 	}
1792:Core/Src/FAT/ff.c **** 	dp->dptr = ofs;						/* Current entry */
1793:Core/Src/FAT/ff.c **** 	dp->dir = fs->win + ofs % SS(fs);	/* Pointer to the entry in the win[] */
1794:Core/Src/FAT/ff.c **** 
1795:Core/Src/FAT/ff.c **** 	return FR_OK;
1796:Core/Src/FAT/ff.c **** }
1797:Core/Src/FAT/ff.c **** 
1798:Core/Src/FAT/ff.c **** 
1799:Core/Src/FAT/ff.c **** 
1800:Core/Src/FAT/ff.c **** 
1801:Core/Src/FAT/ff.c **** #if !FF_FS_READONLY
1802:Core/Src/FAT/ff.c **** /*-----------------------------------------------------------------------*/
1803:Core/Src/FAT/ff.c **** /* Directory handling - Reserve a block of directory entries             */
1804:Core/Src/FAT/ff.c **** /*-----------------------------------------------------------------------*/
1805:Core/Src/FAT/ff.c **** 
1806:Core/Src/FAT/ff.c **** static FRESULT dir_alloc (	/* FR_OK(0):succeeded, !=0:error */
1807:Core/Src/FAT/ff.c **** 	DIR* dp,				/* Pointer to the directory object */
1808:Core/Src/FAT/ff.c **** 	UINT n_ent				/* Number of contiguous entries to allocate */
1809:Core/Src/FAT/ff.c **** )
1810:Core/Src/FAT/ff.c **** {
1811:Core/Src/FAT/ff.c **** 	FRESULT res;
1812:Core/Src/FAT/ff.c **** 	UINT n;
1813:Core/Src/FAT/ff.c **** 	FATFS *fs = dp->obj.fs;
1814:Core/Src/FAT/ff.c **** 
ARM GAS  C:\Users\HP-Admin\AppData\Local\Temp\ccY0w7x3.s 			page 39


1815:Core/Src/FAT/ff.c **** 
1816:Core/Src/FAT/ff.c **** 	res = dir_sdi(dp, 0);
1817:Core/Src/FAT/ff.c **** 	if (res == FR_OK) {
1818:Core/Src/FAT/ff.c **** 		n = 0;
1819:Core/Src/FAT/ff.c **** 		do {
1820:Core/Src/FAT/ff.c **** 			res = move_window(fs, dp->sect);
1821:Core/Src/FAT/ff.c **** 			if (res != FR_OK) break;
1822:Core/Src/FAT/ff.c **** #if FF_FS_EXFAT
1823:Core/Src/FAT/ff.c **** 			if ((fs->fs_type == FS_EXFAT) ? (int)((dp->dir[XDIR_Type] & 0x80) == 0) : (int)(dp->dir[DIR_Name
1824:Core/Src/FAT/ff.c **** #else
1825:Core/Src/FAT/ff.c **** 			if (dp->dir[DIR_Name] == DDEM || dp->dir[DIR_Name] == 0) {	/* Is the entry free? */
1826:Core/Src/FAT/ff.c **** #endif
1827:Core/Src/FAT/ff.c **** 				if (++n == n_ent) break;	/* Is a block of contiguous free entries found? */
1828:Core/Src/FAT/ff.c **** 			} else {
1829:Core/Src/FAT/ff.c **** 				n = 0;				/* Not a free entry, restart to search */
1830:Core/Src/FAT/ff.c **** 			}
1831:Core/Src/FAT/ff.c **** 			res = dir_next(dp, 1);	/* Next entry with table stretch enabled */
1832:Core/Src/FAT/ff.c **** 		} while (res == FR_OK);
1833:Core/Src/FAT/ff.c **** 	}
1834:Core/Src/FAT/ff.c **** 
1835:Core/Src/FAT/ff.c **** 	if (res == FR_NO_FILE) res = FR_DENIED;	/* No directory entry to allocate */
1836:Core/Src/FAT/ff.c **** 	return res;
1837:Core/Src/FAT/ff.c **** }
1838:Core/Src/FAT/ff.c **** 
1839:Core/Src/FAT/ff.c **** #endif	/* !FF_FS_READONLY */
1840:Core/Src/FAT/ff.c **** 
1841:Core/Src/FAT/ff.c **** 
1842:Core/Src/FAT/ff.c **** 
1843:Core/Src/FAT/ff.c **** 
1844:Core/Src/FAT/ff.c **** /*-----------------------------------------------------------------------*/
1845:Core/Src/FAT/ff.c **** /* FAT: Directory handling - Load/Store start cluster number             */
1846:Core/Src/FAT/ff.c **** /*-----------------------------------------------------------------------*/
1847:Core/Src/FAT/ff.c **** 
1848:Core/Src/FAT/ff.c **** static DWORD ld_clust (	/* Returns the top cluster value of the SFN entry */
1849:Core/Src/FAT/ff.c **** 	FATFS* fs,			/* Pointer to the fs object */
1850:Core/Src/FAT/ff.c **** 	const BYTE* dir		/* Pointer to the key entry */
1851:Core/Src/FAT/ff.c **** )
1852:Core/Src/FAT/ff.c **** {
 358              		.loc 1 1852 1 is_stmt 1 view -0
 359              		.cfi_startproc
 360              		@ args = 0, pretend = 0, frame = 0
 361              		@ frame_needed = 0, uses_anonymous_args = 0
 362              		.loc 1 1852 1 is_stmt 0 view .LVU100
 363 0000 70B5     		push	{r4, r5, r6, lr}
 364              	.LCFI0:
 365              		.cfi_def_cfa_offset 16
 366              		.cfi_offset 4, -16
 367              		.cfi_offset 5, -12
 368              		.cfi_offset 6, -8
 369              		.cfi_offset 14, -4
 370 0002 0646     		mov	r6, r0
 371 0004 0D46     		mov	r5, r1
1853:Core/Src/FAT/ff.c **** 	DWORD cl;
 372              		.loc 1 1853 2 is_stmt 1 view .LVU101
1854:Core/Src/FAT/ff.c **** 
1855:Core/Src/FAT/ff.c **** 	cl = ld_word(dir + DIR_FstClusLO);
 373              		.loc 1 1855 2 view .LVU102
ARM GAS  C:\Users\HP-Admin\AppData\Local\Temp\ccY0w7x3.s 			page 40


 374              		.loc 1 1855 7 is_stmt 0 view .LVU103
 375 0006 01F11A00 		add	r0, r1, #26
 376              	.LVL44:
 377              		.loc 1 1855 7 view .LVU104
 378 000a FFF7FEFF 		bl	ld_word
 379              	.LVL45:
1856:Core/Src/FAT/ff.c **** 	if (fs->fs_type == FS_FAT32) {
 380              		.loc 1 1856 2 is_stmt 1 view .LVU105
 381              		.loc 1 1856 8 is_stmt 0 view .LVU106
 382 000e 3378     		ldrb	r3, [r6]	@ zero_extendqisi2
 383              		.loc 1 1856 5 view .LVU107
 384 0010 032B     		cmp	r3, #3
 385 0012 00D0     		beq	.L25
 386              	.LVL46:
 387              	.L22:
1857:Core/Src/FAT/ff.c **** 		cl |= (DWORD)ld_word(dir + DIR_FstClusHI) << 16;
1858:Core/Src/FAT/ff.c **** 	}
1859:Core/Src/FAT/ff.c **** 
1860:Core/Src/FAT/ff.c **** 	return cl;
1861:Core/Src/FAT/ff.c **** }
 388              		.loc 1 1861 1 view .LVU108
 389 0014 70BD     		pop	{r4, r5, r6, pc}
 390              	.LVL47:
 391              	.L25:
 392              		.loc 1 1861 1 view .LVU109
 393 0016 0446     		mov	r4, r0
1857:Core/Src/FAT/ff.c **** 		cl |= (DWORD)ld_word(dir + DIR_FstClusHI) << 16;
 394              		.loc 1 1857 3 is_stmt 1 view .LVU110
1857:Core/Src/FAT/ff.c **** 		cl |= (DWORD)ld_word(dir + DIR_FstClusHI) << 16;
 395              		.loc 1 1857 16 is_stmt 0 view .LVU111
 396 0018 05F11400 		add	r0, r5, #20
 397              	.LVL48:
1857:Core/Src/FAT/ff.c **** 		cl |= (DWORD)ld_word(dir + DIR_FstClusHI) << 16;
 398              		.loc 1 1857 16 view .LVU112
 399 001c FFF7FEFF 		bl	ld_word
 400              	.LVL49:
1857:Core/Src/FAT/ff.c **** 		cl |= (DWORD)ld_word(dir + DIR_FstClusHI) << 16;
 401              		.loc 1 1857 6 view .LVU113
 402 0020 44EA0040 		orr	r0, r4, r0, lsl #16
 403              	.LVL50:
1860:Core/Src/FAT/ff.c **** }
 404              		.loc 1 1860 2 is_stmt 1 view .LVU114
1860:Core/Src/FAT/ff.c **** }
 405              		.loc 1 1860 9 is_stmt 0 view .LVU115
 406 0024 F6E7     		b	.L22
 407              		.cfi_endproc
 408              	.LFE18:
 410              		.section	.text.st_clust,"ax",%progbits
 411              		.align	1
 412              		.syntax unified
 413              		.thumb
 414              		.thumb_func
 416              	st_clust:
 417              	.LVL51:
 418              	.LFB19:
1862:Core/Src/FAT/ff.c **** 
1863:Core/Src/FAT/ff.c **** 
ARM GAS  C:\Users\HP-Admin\AppData\Local\Temp\ccY0w7x3.s 			page 41


1864:Core/Src/FAT/ff.c **** #if !FF_FS_READONLY
1865:Core/Src/FAT/ff.c **** static void st_clust (
1866:Core/Src/FAT/ff.c **** 	FATFS* fs,	/* Pointer to the fs object */
1867:Core/Src/FAT/ff.c **** 	BYTE* dir,	/* Pointer to the key entry */
1868:Core/Src/FAT/ff.c **** 	DWORD cl	/* Value to be set */
1869:Core/Src/FAT/ff.c **** )
1870:Core/Src/FAT/ff.c **** {
 419              		.loc 1 1870 1 is_stmt 1 view -0
 420              		.cfi_startproc
 421              		@ args = 0, pretend = 0, frame = 0
 422              		@ frame_needed = 0, uses_anonymous_args = 0
 423              		.loc 1 1870 1 is_stmt 0 view .LVU117
 424 0000 70B5     		push	{r4, r5, r6, lr}
 425              	.LCFI1:
 426              		.cfi_def_cfa_offset 16
 427              		.cfi_offset 4, -16
 428              		.cfi_offset 5, -12
 429              		.cfi_offset 6, -8
 430              		.cfi_offset 14, -4
 431 0002 0646     		mov	r6, r0
 432 0004 0C46     		mov	r4, r1
 433 0006 1546     		mov	r5, r2
1871:Core/Src/FAT/ff.c **** 	st_word(dir + DIR_FstClusLO, (WORD)cl);
 434              		.loc 1 1871 2 is_stmt 1 view .LVU118
 435 0008 91B2     		uxth	r1, r2
 436              	.LVL52:
 437              		.loc 1 1871 2 is_stmt 0 view .LVU119
 438 000a 04F11A00 		add	r0, r4, #26
 439              	.LVL53:
 440              		.loc 1 1871 2 view .LVU120
 441 000e FFF7FEFF 		bl	st_word
 442              	.LVL54:
1872:Core/Src/FAT/ff.c **** 	if (fs->fs_type == FS_FAT32) {
 443              		.loc 1 1872 2 is_stmt 1 view .LVU121
 444              		.loc 1 1872 8 is_stmt 0 view .LVU122
 445 0012 3378     		ldrb	r3, [r6]	@ zero_extendqisi2
 446              		.loc 1 1872 5 view .LVU123
 447 0014 032B     		cmp	r3, #3
 448 0016 00D0     		beq	.L29
 449              	.L26:
1873:Core/Src/FAT/ff.c **** 		st_word(dir + DIR_FstClusHI, (WORD)(cl >> 16));
1874:Core/Src/FAT/ff.c **** 	}
1875:Core/Src/FAT/ff.c **** }
 450              		.loc 1 1875 1 view .LVU124
 451 0018 70BD     		pop	{r4, r5, r6, pc}
 452              	.LVL55:
 453              	.L29:
1873:Core/Src/FAT/ff.c **** 		st_word(dir + DIR_FstClusHI, (WORD)(cl >> 16));
 454              		.loc 1 1873 3 is_stmt 1 view .LVU125
 455 001a 290C     		lsrs	r1, r5, #16
 456 001c 04F11400 		add	r0, r4, #20
 457 0020 FFF7FEFF 		bl	st_word
 458              	.LVL56:
 459              		.loc 1 1875 1 is_stmt 0 view .LVU126
 460 0024 F8E7     		b	.L26
 461              		.cfi_endproc
 462              	.LFE19:
ARM GAS  C:\Users\HP-Admin\AppData\Local\Temp\ccY0w7x3.s 			page 42


 464              		.section	.text.get_fileinfo,"ax",%progbits
 465              		.align	1
 466              		.syntax unified
 467              		.thumb
 468              		.thumb_func
 470              	get_fileinfo:
 471              	.LVL57:
 472              	.LFB24:
1876:Core/Src/FAT/ff.c **** #endif
1877:Core/Src/FAT/ff.c **** 
1878:Core/Src/FAT/ff.c **** 
1879:Core/Src/FAT/ff.c **** 
1880:Core/Src/FAT/ff.c **** #if FF_USE_LFN
1881:Core/Src/FAT/ff.c **** /*--------------------------------------------------------*/
1882:Core/Src/FAT/ff.c **** /* FAT-LFN: Compare a part of file name with an LFN entry */
1883:Core/Src/FAT/ff.c **** /*--------------------------------------------------------*/
1884:Core/Src/FAT/ff.c **** 
1885:Core/Src/FAT/ff.c **** static int cmp_lfn (		/* 1:matched, 0:not matched */
1886:Core/Src/FAT/ff.c **** 	const WCHAR* lfnbuf,	/* Pointer to the LFN working buffer to be compared */
1887:Core/Src/FAT/ff.c **** 	BYTE* dir				/* Pointer to the directory entry containing the part of LFN */
1888:Core/Src/FAT/ff.c **** )
1889:Core/Src/FAT/ff.c **** {
1890:Core/Src/FAT/ff.c **** 	UINT i, s;
1891:Core/Src/FAT/ff.c **** 	WCHAR wc, uc;
1892:Core/Src/FAT/ff.c **** 
1893:Core/Src/FAT/ff.c **** 
1894:Core/Src/FAT/ff.c **** 	if (ld_word(dir + LDIR_FstClusLO) != 0) return 0;	/* Check LDIR_FstClusLO */
1895:Core/Src/FAT/ff.c **** 
1896:Core/Src/FAT/ff.c **** 	i = ((dir[LDIR_Ord] & 0x3F) - 1) * 13;	/* Offset in the LFN buffer */
1897:Core/Src/FAT/ff.c **** 
1898:Core/Src/FAT/ff.c **** 	for (wc = 1, s = 0; s < 13; s++) {		/* Process all characters in the entry */
1899:Core/Src/FAT/ff.c **** 		uc = ld_word(dir + LfnOfs[s]);		/* Pick an LFN character */
1900:Core/Src/FAT/ff.c **** 		if (wc != 0) {
1901:Core/Src/FAT/ff.c **** 			if (i >= FF_MAX_LFN + 1 || ff_wtoupper(uc) != ff_wtoupper(lfnbuf[i++])) {	/* Compare it */
1902:Core/Src/FAT/ff.c **** 				return 0;					/* Not matched */
1903:Core/Src/FAT/ff.c **** 			}
1904:Core/Src/FAT/ff.c **** 			wc = uc;
1905:Core/Src/FAT/ff.c **** 		} else {
1906:Core/Src/FAT/ff.c **** 			if (uc != 0xFFFF) return 0;		/* Check filler */
1907:Core/Src/FAT/ff.c **** 		}
1908:Core/Src/FAT/ff.c **** 	}
1909:Core/Src/FAT/ff.c **** 
1910:Core/Src/FAT/ff.c **** 	if ((dir[LDIR_Ord] & LLEF) && wc && lfnbuf[i]) return 0;	/* Last segment matched but different len
1911:Core/Src/FAT/ff.c **** 
1912:Core/Src/FAT/ff.c **** 	return 1;		/* The part of LFN matched */
1913:Core/Src/FAT/ff.c **** }
1914:Core/Src/FAT/ff.c **** 
1915:Core/Src/FAT/ff.c **** 
1916:Core/Src/FAT/ff.c **** #if FF_FS_MINIMIZE <= 1 || FF_FS_RPATH >= 2 || FF_USE_LABEL || FF_FS_EXFAT
1917:Core/Src/FAT/ff.c **** /*-----------------------------------------------------*/
1918:Core/Src/FAT/ff.c **** /* FAT-LFN: Pick a part of file name from an LFN entry */
1919:Core/Src/FAT/ff.c **** /*-----------------------------------------------------*/
1920:Core/Src/FAT/ff.c **** 
1921:Core/Src/FAT/ff.c **** static int pick_lfn (	/* 1:succeeded, 0:buffer overflow or invalid LFN entry */
1922:Core/Src/FAT/ff.c **** 	WCHAR* lfnbuf,		/* Pointer to the LFN working buffer */
1923:Core/Src/FAT/ff.c **** 	BYTE* dir			/* Pointer to the LFN entry */
1924:Core/Src/FAT/ff.c **** )
ARM GAS  C:\Users\HP-Admin\AppData\Local\Temp\ccY0w7x3.s 			page 43


1925:Core/Src/FAT/ff.c **** {
1926:Core/Src/FAT/ff.c **** 	UINT i, s;
1927:Core/Src/FAT/ff.c **** 	WCHAR wc, uc;
1928:Core/Src/FAT/ff.c **** 
1929:Core/Src/FAT/ff.c **** 
1930:Core/Src/FAT/ff.c **** 	if (ld_word(dir + LDIR_FstClusLO) != 0) return 0;	/* Check LDIR_FstClusLO is 0 */
1931:Core/Src/FAT/ff.c **** 
1932:Core/Src/FAT/ff.c **** 	i = ((dir[LDIR_Ord] & ~LLEF) - 1) * 13;	/* Offset in the LFN buffer */
1933:Core/Src/FAT/ff.c **** 
1934:Core/Src/FAT/ff.c **** 	for (wc = 1, s = 0; s < 13; s++) {		/* Process all characters in the entry */
1935:Core/Src/FAT/ff.c **** 		uc = ld_word(dir + LfnOfs[s]);		/* Pick an LFN character */
1936:Core/Src/FAT/ff.c **** 		if (wc != 0) {
1937:Core/Src/FAT/ff.c **** 			if (i >= FF_MAX_LFN + 1) return 0;	/* Buffer overflow? */
1938:Core/Src/FAT/ff.c **** 			lfnbuf[i++] = wc = uc;			/* Store it */
1939:Core/Src/FAT/ff.c **** 		} else {
1940:Core/Src/FAT/ff.c **** 			if (uc != 0xFFFF) return 0;		/* Check filler */
1941:Core/Src/FAT/ff.c **** 		}
1942:Core/Src/FAT/ff.c **** 	}
1943:Core/Src/FAT/ff.c **** 
1944:Core/Src/FAT/ff.c **** 	if (dir[LDIR_Ord] & LLEF && wc != 0) {	/* Put terminator if it is the last LFN part and not termin
1945:Core/Src/FAT/ff.c **** 		if (i >= FF_MAX_LFN + 1) return 0;	/* Buffer overflow? */
1946:Core/Src/FAT/ff.c **** 		lfnbuf[i] = 0;
1947:Core/Src/FAT/ff.c **** 	}
1948:Core/Src/FAT/ff.c **** 
1949:Core/Src/FAT/ff.c **** 	return 1;		/* The part of LFN is valid */
1950:Core/Src/FAT/ff.c **** }
1951:Core/Src/FAT/ff.c **** #endif
1952:Core/Src/FAT/ff.c **** 
1953:Core/Src/FAT/ff.c **** 
1954:Core/Src/FAT/ff.c **** #if !FF_FS_READONLY
1955:Core/Src/FAT/ff.c **** /*-----------------------------------------*/
1956:Core/Src/FAT/ff.c **** /* FAT-LFN: Create an entry of LFN entries */
1957:Core/Src/FAT/ff.c **** /*-----------------------------------------*/
1958:Core/Src/FAT/ff.c **** 
1959:Core/Src/FAT/ff.c **** static void put_lfn (
1960:Core/Src/FAT/ff.c **** 	const WCHAR* lfn,	/* Pointer to the LFN */
1961:Core/Src/FAT/ff.c **** 	BYTE* dir,			/* Pointer to the LFN entry to be created */
1962:Core/Src/FAT/ff.c **** 	BYTE ord,			/* LFN order (1-20) */
1963:Core/Src/FAT/ff.c **** 	BYTE sum			/* Checksum of the corresponding SFN */
1964:Core/Src/FAT/ff.c **** )
1965:Core/Src/FAT/ff.c **** {
1966:Core/Src/FAT/ff.c **** 	UINT i, s;
1967:Core/Src/FAT/ff.c **** 	WCHAR wc;
1968:Core/Src/FAT/ff.c **** 
1969:Core/Src/FAT/ff.c **** 
1970:Core/Src/FAT/ff.c **** 	dir[LDIR_Chksum] = sum;			/* Set checksum */
1971:Core/Src/FAT/ff.c **** 	dir[LDIR_Attr] = AM_LFN;		/* Set attribute. LFN entry */
1972:Core/Src/FAT/ff.c **** 	dir[LDIR_Type] = 0;
1973:Core/Src/FAT/ff.c **** 	st_word(dir + LDIR_FstClusLO, 0);
1974:Core/Src/FAT/ff.c **** 
1975:Core/Src/FAT/ff.c **** 	i = (ord - 1) * 13;				/* Get offset in the LFN working buffer */
1976:Core/Src/FAT/ff.c **** 	s = wc = 0;
1977:Core/Src/FAT/ff.c **** 	do {
1978:Core/Src/FAT/ff.c **** 		if (wc != 0xFFFF) wc = lfn[i++];	/* Get an effective character */
1979:Core/Src/FAT/ff.c **** 		st_word(dir + LfnOfs[s], wc);		/* Put it */
1980:Core/Src/FAT/ff.c **** 		if (wc == 0) wc = 0xFFFF;			/* Padding characters for following items */
1981:Core/Src/FAT/ff.c **** 	} while (++s < 13);
ARM GAS  C:\Users\HP-Admin\AppData\Local\Temp\ccY0w7x3.s 			page 44


1982:Core/Src/FAT/ff.c **** 	if (wc == 0xFFFF || !lfn[i]) ord |= LLEF;	/* Last LFN part is the start of LFN sequence */
1983:Core/Src/FAT/ff.c **** 	dir[LDIR_Ord] = ord;			/* Set the LFN order */
1984:Core/Src/FAT/ff.c **** }
1985:Core/Src/FAT/ff.c **** 
1986:Core/Src/FAT/ff.c **** #endif	/* !FF_FS_READONLY */
1987:Core/Src/FAT/ff.c **** #endif	/* FF_USE_LFN */
1988:Core/Src/FAT/ff.c **** 
1989:Core/Src/FAT/ff.c **** 
1990:Core/Src/FAT/ff.c **** 
1991:Core/Src/FAT/ff.c **** #if FF_USE_LFN && !FF_FS_READONLY
1992:Core/Src/FAT/ff.c **** /*-----------------------------------------------------------------------*/
1993:Core/Src/FAT/ff.c **** /* FAT-LFN: Create a Numbered SFN                                        */
1994:Core/Src/FAT/ff.c **** /*-----------------------------------------------------------------------*/
1995:Core/Src/FAT/ff.c **** 
1996:Core/Src/FAT/ff.c **** static void gen_numname (
1997:Core/Src/FAT/ff.c **** 	BYTE* dst,			/* Pointer to the buffer to store numbered SFN */
1998:Core/Src/FAT/ff.c **** 	const BYTE* src,	/* Pointer to SFN in directory form */
1999:Core/Src/FAT/ff.c **** 	const WCHAR* lfn,	/* Pointer to LFN */
2000:Core/Src/FAT/ff.c **** 	UINT seq			/* Sequence number */
2001:Core/Src/FAT/ff.c **** )
2002:Core/Src/FAT/ff.c **** {
2003:Core/Src/FAT/ff.c **** 	BYTE ns[8], c;
2004:Core/Src/FAT/ff.c **** 	UINT i, j;
2005:Core/Src/FAT/ff.c **** 	WCHAR wc;
2006:Core/Src/FAT/ff.c **** 	DWORD sreg;
2007:Core/Src/FAT/ff.c **** 
2008:Core/Src/FAT/ff.c **** 
2009:Core/Src/FAT/ff.c **** 	memcpy(dst, src, 11);	/* Prepare the SFN to be modified */
2010:Core/Src/FAT/ff.c **** 
2011:Core/Src/FAT/ff.c **** 	if (seq > 5) {	/* In case of many collisions, generate a hash number instead of sequential number 
2012:Core/Src/FAT/ff.c **** 		sreg = seq;
2013:Core/Src/FAT/ff.c **** 		while (*lfn) {	/* Create a CRC as hash value */
2014:Core/Src/FAT/ff.c **** 			wc = *lfn++;
2015:Core/Src/FAT/ff.c **** 			for (i = 0; i < 16; i++) {
2016:Core/Src/FAT/ff.c **** 				sreg = (sreg << 1) + (wc & 1);
2017:Core/Src/FAT/ff.c **** 				wc >>= 1;
2018:Core/Src/FAT/ff.c **** 				if (sreg & 0x10000) sreg ^= 0x11021;
2019:Core/Src/FAT/ff.c **** 			}
2020:Core/Src/FAT/ff.c **** 		}
2021:Core/Src/FAT/ff.c **** 		seq = (UINT)sreg;
2022:Core/Src/FAT/ff.c **** 	}
2023:Core/Src/FAT/ff.c **** 
2024:Core/Src/FAT/ff.c **** 	/* Make suffix (~ + hexadecimal) */
2025:Core/Src/FAT/ff.c **** 	i = 7;
2026:Core/Src/FAT/ff.c **** 	do {
2027:Core/Src/FAT/ff.c **** 		c = (BYTE)((seq % 16) + '0'); seq /= 16;
2028:Core/Src/FAT/ff.c **** 		if (c > '9') c += 7;
2029:Core/Src/FAT/ff.c **** 		ns[i--] = c;
2030:Core/Src/FAT/ff.c **** 	} while (i && seq);
2031:Core/Src/FAT/ff.c **** 	ns[i] = '~';
2032:Core/Src/FAT/ff.c **** 
2033:Core/Src/FAT/ff.c **** 	/* Append the suffix to the SFN body */
2034:Core/Src/FAT/ff.c **** 	for (j = 0; j < i && dst[j] != ' '; j++) {	/* Find the offset to append */
2035:Core/Src/FAT/ff.c **** 		if (dbc_1st(dst[j])) {	/* To avoid DBC break up */
2036:Core/Src/FAT/ff.c **** 			if (j == i - 1) break;
2037:Core/Src/FAT/ff.c **** 			j++;
2038:Core/Src/FAT/ff.c **** 		}
ARM GAS  C:\Users\HP-Admin\AppData\Local\Temp\ccY0w7x3.s 			page 45


2039:Core/Src/FAT/ff.c **** 	}
2040:Core/Src/FAT/ff.c **** 	do {	/* Append the suffix */
2041:Core/Src/FAT/ff.c **** 		dst[j++] = (i < 8) ? ns[i++] : ' ';
2042:Core/Src/FAT/ff.c **** 	} while (j < 8);
2043:Core/Src/FAT/ff.c **** }
2044:Core/Src/FAT/ff.c **** #endif	/* FF_USE_LFN && !FF_FS_READONLY */
2045:Core/Src/FAT/ff.c **** 
2046:Core/Src/FAT/ff.c **** 
2047:Core/Src/FAT/ff.c **** 
2048:Core/Src/FAT/ff.c **** #if FF_USE_LFN
2049:Core/Src/FAT/ff.c **** /*-----------------------------------------------------------------------*/
2050:Core/Src/FAT/ff.c **** /* FAT-LFN: Calculate checksum of an SFN entry                           */
2051:Core/Src/FAT/ff.c **** /*-----------------------------------------------------------------------*/
2052:Core/Src/FAT/ff.c **** 
2053:Core/Src/FAT/ff.c **** static BYTE sum_sfn (
2054:Core/Src/FAT/ff.c **** 	const BYTE* dir		/* Pointer to the SFN entry */
2055:Core/Src/FAT/ff.c **** )
2056:Core/Src/FAT/ff.c **** {
2057:Core/Src/FAT/ff.c **** 	BYTE sum = 0;
2058:Core/Src/FAT/ff.c **** 	UINT n = 11;
2059:Core/Src/FAT/ff.c **** 
2060:Core/Src/FAT/ff.c **** 	do {
2061:Core/Src/FAT/ff.c **** 		sum = (sum >> 1) + (sum << 7) + *dir++;
2062:Core/Src/FAT/ff.c **** 	} while (--n);
2063:Core/Src/FAT/ff.c **** 	return sum;
2064:Core/Src/FAT/ff.c **** }
2065:Core/Src/FAT/ff.c **** 
2066:Core/Src/FAT/ff.c **** #endif	/* FF_USE_LFN */
2067:Core/Src/FAT/ff.c **** 
2068:Core/Src/FAT/ff.c **** 
2069:Core/Src/FAT/ff.c **** 
2070:Core/Src/FAT/ff.c **** #if FF_FS_EXFAT
2071:Core/Src/FAT/ff.c **** /*-----------------------------------------------------------------------*/
2072:Core/Src/FAT/ff.c **** /* exFAT: Checksum                                                       */
2073:Core/Src/FAT/ff.c **** /*-----------------------------------------------------------------------*/
2074:Core/Src/FAT/ff.c **** 
2075:Core/Src/FAT/ff.c **** static WORD xdir_sum (	/* Get checksum of the directoly entry block */
2076:Core/Src/FAT/ff.c **** 	const BYTE* dir		/* Directory entry block to be calculated */
2077:Core/Src/FAT/ff.c **** )
2078:Core/Src/FAT/ff.c **** {
2079:Core/Src/FAT/ff.c **** 	UINT i, szblk;
2080:Core/Src/FAT/ff.c **** 	WORD sum;
2081:Core/Src/FAT/ff.c **** 
2082:Core/Src/FAT/ff.c **** 
2083:Core/Src/FAT/ff.c **** 	szblk = (dir[XDIR_NumSec] + 1) * SZDIRE;	/* Number of bytes of the entry block */
2084:Core/Src/FAT/ff.c **** 	for (i = sum = 0; i < szblk; i++) {
2085:Core/Src/FAT/ff.c **** 		if (i == XDIR_SetSum) {	/* Skip 2-byte sum field */
2086:Core/Src/FAT/ff.c **** 			i++;
2087:Core/Src/FAT/ff.c **** 		} else {
2088:Core/Src/FAT/ff.c **** 			sum = ((sum & 1) ? 0x8000 : 0) + (sum >> 1) + dir[i];
2089:Core/Src/FAT/ff.c **** 		}
2090:Core/Src/FAT/ff.c **** 	}
2091:Core/Src/FAT/ff.c **** 	return sum;
2092:Core/Src/FAT/ff.c **** }
2093:Core/Src/FAT/ff.c **** 
2094:Core/Src/FAT/ff.c **** 
2095:Core/Src/FAT/ff.c **** 
ARM GAS  C:\Users\HP-Admin\AppData\Local\Temp\ccY0w7x3.s 			page 46


2096:Core/Src/FAT/ff.c **** static WORD xname_sum (	/* Get check sum (to be used as hash) of the file name */
2097:Core/Src/FAT/ff.c **** 	const WCHAR* name	/* File name to be calculated */
2098:Core/Src/FAT/ff.c **** )
2099:Core/Src/FAT/ff.c **** {
2100:Core/Src/FAT/ff.c **** 	WCHAR chr;
2101:Core/Src/FAT/ff.c **** 	WORD sum = 0;
2102:Core/Src/FAT/ff.c **** 
2103:Core/Src/FAT/ff.c **** 
2104:Core/Src/FAT/ff.c **** 	while ((chr = *name++) != 0) {
2105:Core/Src/FAT/ff.c **** 		chr = (WCHAR)ff_wtoupper(chr);		/* File name needs to be up-case converted */
2106:Core/Src/FAT/ff.c **** 		sum = ((sum & 1) ? 0x8000 : 0) + (sum >> 1) + (chr & 0xFF);
2107:Core/Src/FAT/ff.c **** 		sum = ((sum & 1) ? 0x8000 : 0) + (sum >> 1) + (chr >> 8);
2108:Core/Src/FAT/ff.c **** 	}
2109:Core/Src/FAT/ff.c **** 	return sum;
2110:Core/Src/FAT/ff.c **** }
2111:Core/Src/FAT/ff.c **** 
2112:Core/Src/FAT/ff.c **** 
2113:Core/Src/FAT/ff.c **** #if !FF_FS_READONLY && FF_USE_MKFS
2114:Core/Src/FAT/ff.c **** static DWORD xsum32 (	/* Returns 32-bit checksum */
2115:Core/Src/FAT/ff.c **** 	BYTE  dat,			/* Byte to be calculated (byte-by-byte processing) */
2116:Core/Src/FAT/ff.c **** 	DWORD sum			/* Previous sum value */
2117:Core/Src/FAT/ff.c **** )
2118:Core/Src/FAT/ff.c **** {
2119:Core/Src/FAT/ff.c **** 	sum = ((sum & 1) ? 0x80000000 : 0) + (sum >> 1) + dat;
2120:Core/Src/FAT/ff.c **** 	return sum;
2121:Core/Src/FAT/ff.c **** }
2122:Core/Src/FAT/ff.c **** #endif
2123:Core/Src/FAT/ff.c **** 
2124:Core/Src/FAT/ff.c **** 
2125:Core/Src/FAT/ff.c **** 
2126:Core/Src/FAT/ff.c **** /*------------------------------------*/
2127:Core/Src/FAT/ff.c **** /* exFAT: Get a directory entry block */
2128:Core/Src/FAT/ff.c **** /*------------------------------------*/
2129:Core/Src/FAT/ff.c **** 
2130:Core/Src/FAT/ff.c **** static FRESULT load_xdir (	/* FR_INT_ERR: invalid entry block */
2131:Core/Src/FAT/ff.c **** 	DIR* dp					/* Reading directory object pointing top of the entry block to load */
2132:Core/Src/FAT/ff.c **** )
2133:Core/Src/FAT/ff.c **** {
2134:Core/Src/FAT/ff.c **** 	FRESULT res;
2135:Core/Src/FAT/ff.c **** 	UINT i, sz_ent;
2136:Core/Src/FAT/ff.c **** 	BYTE *dirb = dp->obj.fs->dirbuf;	/* Pointer to the on-memory directory entry block 85+C0+C1s */
2137:Core/Src/FAT/ff.c **** 
2138:Core/Src/FAT/ff.c **** 
2139:Core/Src/FAT/ff.c **** 	/* Load file directory entry */
2140:Core/Src/FAT/ff.c **** 	res = move_window(dp->obj.fs, dp->sect);
2141:Core/Src/FAT/ff.c **** 	if (res != FR_OK) return res;
2142:Core/Src/FAT/ff.c **** 	if (dp->dir[XDIR_Type] != ET_FILEDIR) return FR_INT_ERR;	/* Invalid order */
2143:Core/Src/FAT/ff.c **** 	memcpy(dirb + 0 * SZDIRE, dp->dir, SZDIRE);
2144:Core/Src/FAT/ff.c **** 	sz_ent = (dirb[XDIR_NumSec] + 1) * SZDIRE;
2145:Core/Src/FAT/ff.c **** 	if (sz_ent < 3 * SZDIRE || sz_ent > 19 * SZDIRE) return FR_INT_ERR;
2146:Core/Src/FAT/ff.c **** 
2147:Core/Src/FAT/ff.c **** 	/* Load stream extension entry */
2148:Core/Src/FAT/ff.c **** 	res = dir_next(dp, 0);
2149:Core/Src/FAT/ff.c **** 	if (res == FR_NO_FILE) res = FR_INT_ERR;	/* It cannot be */
2150:Core/Src/FAT/ff.c **** 	if (res != FR_OK) return res;
2151:Core/Src/FAT/ff.c **** 	res = move_window(dp->obj.fs, dp->sect);
2152:Core/Src/FAT/ff.c **** 	if (res != FR_OK) return res;
ARM GAS  C:\Users\HP-Admin\AppData\Local\Temp\ccY0w7x3.s 			page 47


2153:Core/Src/FAT/ff.c **** 	if (dp->dir[XDIR_Type] != ET_STREAM) return FR_INT_ERR;	/* Invalid order */
2154:Core/Src/FAT/ff.c **** 	memcpy(dirb + 1 * SZDIRE, dp->dir, SZDIRE);
2155:Core/Src/FAT/ff.c **** 	if (MAXDIRB(dirb[XDIR_NumName]) > sz_ent) return FR_INT_ERR;
2156:Core/Src/FAT/ff.c **** 
2157:Core/Src/FAT/ff.c **** 	/* Load file name entries */
2158:Core/Src/FAT/ff.c **** 	i = 2 * SZDIRE;	/* Name offset to load */
2159:Core/Src/FAT/ff.c **** 	do {
2160:Core/Src/FAT/ff.c **** 		res = dir_next(dp, 0);
2161:Core/Src/FAT/ff.c **** 		if (res == FR_NO_FILE) res = FR_INT_ERR;	/* It cannot be */
2162:Core/Src/FAT/ff.c **** 		if (res != FR_OK) return res;
2163:Core/Src/FAT/ff.c **** 		res = move_window(dp->obj.fs, dp->sect);
2164:Core/Src/FAT/ff.c **** 		if (res != FR_OK) return res;
2165:Core/Src/FAT/ff.c **** 		if (dp->dir[XDIR_Type] != ET_FILENAME) return FR_INT_ERR;	/* Invalid order */
2166:Core/Src/FAT/ff.c **** 		if (i < MAXDIRB(FF_MAX_LFN)) memcpy(dirb + i, dp->dir, SZDIRE);
2167:Core/Src/FAT/ff.c **** 	} while ((i += SZDIRE) < sz_ent);
2168:Core/Src/FAT/ff.c **** 
2169:Core/Src/FAT/ff.c **** 	/* Sanity check (do it for only accessible object) */
2170:Core/Src/FAT/ff.c **** 	if (i <= MAXDIRB(FF_MAX_LFN)) {
2171:Core/Src/FAT/ff.c **** 		if (xdir_sum(dirb) != ld_word(dirb + XDIR_SetSum)) return FR_INT_ERR;
2172:Core/Src/FAT/ff.c **** 	}
2173:Core/Src/FAT/ff.c **** 	return FR_OK;
2174:Core/Src/FAT/ff.c **** }
2175:Core/Src/FAT/ff.c **** 
2176:Core/Src/FAT/ff.c **** 
2177:Core/Src/FAT/ff.c **** /*------------------------------------------------------------------*/
2178:Core/Src/FAT/ff.c **** /* exFAT: Initialize object allocation info with loaded entry block */
2179:Core/Src/FAT/ff.c **** /*------------------------------------------------------------------*/
2180:Core/Src/FAT/ff.c **** 
2181:Core/Src/FAT/ff.c **** static void init_alloc_info (
2182:Core/Src/FAT/ff.c **** 	FATFS* fs,		/* Filesystem object */
2183:Core/Src/FAT/ff.c **** 	FFOBJID* obj	/* Object allocation information to be initialized */
2184:Core/Src/FAT/ff.c **** )
2185:Core/Src/FAT/ff.c **** {
2186:Core/Src/FAT/ff.c **** 	obj->sclust = ld_dword(fs->dirbuf + XDIR_FstClus);		/* Start cluster */
2187:Core/Src/FAT/ff.c **** 	obj->objsize = ld_qword(fs->dirbuf + XDIR_FileSize);	/* Size */
2188:Core/Src/FAT/ff.c **** 	obj->stat = fs->dirbuf[XDIR_GenFlags] & 2;				/* Allocation status */
2189:Core/Src/FAT/ff.c **** 	obj->n_frag = 0;										/* No last fragment info */
2190:Core/Src/FAT/ff.c **** }
2191:Core/Src/FAT/ff.c **** 
2192:Core/Src/FAT/ff.c **** 
2193:Core/Src/FAT/ff.c **** 
2194:Core/Src/FAT/ff.c **** #if !FF_FS_READONLY || FF_FS_RPATH != 0
2195:Core/Src/FAT/ff.c **** /*------------------------------------------------*/
2196:Core/Src/FAT/ff.c **** /* exFAT: Load the object's directory entry block */
2197:Core/Src/FAT/ff.c **** /*------------------------------------------------*/
2198:Core/Src/FAT/ff.c **** 
2199:Core/Src/FAT/ff.c **** static FRESULT load_obj_xdir (
2200:Core/Src/FAT/ff.c **** 	DIR* dp,			/* Blank directory object to be used to access containing directory */
2201:Core/Src/FAT/ff.c **** 	const FFOBJID* obj	/* Object with its containing directory information */
2202:Core/Src/FAT/ff.c **** )
2203:Core/Src/FAT/ff.c **** {
2204:Core/Src/FAT/ff.c **** 	FRESULT res;
2205:Core/Src/FAT/ff.c **** 
2206:Core/Src/FAT/ff.c **** 	/* Open object containing directory */
2207:Core/Src/FAT/ff.c **** 	dp->obj.fs = obj->fs;
2208:Core/Src/FAT/ff.c **** 	dp->obj.sclust = obj->c_scl;
2209:Core/Src/FAT/ff.c **** 	dp->obj.stat = (BYTE)obj->c_size;
ARM GAS  C:\Users\HP-Admin\AppData\Local\Temp\ccY0w7x3.s 			page 48


2210:Core/Src/FAT/ff.c **** 	dp->obj.objsize = obj->c_size & 0xFFFFFF00;
2211:Core/Src/FAT/ff.c **** 	dp->obj.n_frag = 0;
2212:Core/Src/FAT/ff.c **** 	dp->blk_ofs = obj->c_ofs;
2213:Core/Src/FAT/ff.c **** 
2214:Core/Src/FAT/ff.c **** 	res = dir_sdi(dp, dp->blk_ofs);	/* Goto object's entry block */
2215:Core/Src/FAT/ff.c **** 	if (res == FR_OK) {
2216:Core/Src/FAT/ff.c **** 		res = load_xdir(dp);		/* Load the object's entry block */
2217:Core/Src/FAT/ff.c **** 	}
2218:Core/Src/FAT/ff.c **** 	return res;
2219:Core/Src/FAT/ff.c **** }
2220:Core/Src/FAT/ff.c **** #endif
2221:Core/Src/FAT/ff.c **** 
2222:Core/Src/FAT/ff.c **** 
2223:Core/Src/FAT/ff.c **** #if !FF_FS_READONLY
2224:Core/Src/FAT/ff.c **** /*----------------------------------------*/
2225:Core/Src/FAT/ff.c **** /* exFAT: Store the directory entry block */
2226:Core/Src/FAT/ff.c **** /*----------------------------------------*/
2227:Core/Src/FAT/ff.c **** 
2228:Core/Src/FAT/ff.c **** static FRESULT store_xdir (
2229:Core/Src/FAT/ff.c **** 	DIR* dp				/* Pointer to the directory object */
2230:Core/Src/FAT/ff.c **** )
2231:Core/Src/FAT/ff.c **** {
2232:Core/Src/FAT/ff.c **** 	FRESULT res;
2233:Core/Src/FAT/ff.c **** 	UINT nent;
2234:Core/Src/FAT/ff.c **** 	BYTE *dirb = dp->obj.fs->dirbuf;	/* Pointer to the directory entry block 85+C0+C1s */
2235:Core/Src/FAT/ff.c **** 
2236:Core/Src/FAT/ff.c **** 	/* Create set sum */
2237:Core/Src/FAT/ff.c **** 	st_word(dirb + XDIR_SetSum, xdir_sum(dirb));
2238:Core/Src/FAT/ff.c **** 	nent = dirb[XDIR_NumSec] + 1;
2239:Core/Src/FAT/ff.c **** 
2240:Core/Src/FAT/ff.c **** 	/* Store the directory entry block to the directory */
2241:Core/Src/FAT/ff.c **** 	res = dir_sdi(dp, dp->blk_ofs);
2242:Core/Src/FAT/ff.c **** 	while (res == FR_OK) {
2243:Core/Src/FAT/ff.c **** 		res = move_window(dp->obj.fs, dp->sect);
2244:Core/Src/FAT/ff.c **** 		if (res != FR_OK) break;
2245:Core/Src/FAT/ff.c **** 		memcpy(dp->dir, dirb, SZDIRE);
2246:Core/Src/FAT/ff.c **** 		dp->obj.fs->wflag = 1;
2247:Core/Src/FAT/ff.c **** 		if (--nent == 0) break;
2248:Core/Src/FAT/ff.c **** 		dirb += SZDIRE;
2249:Core/Src/FAT/ff.c **** 		res = dir_next(dp, 0);
2250:Core/Src/FAT/ff.c **** 	}
2251:Core/Src/FAT/ff.c **** 	return (res == FR_OK || res == FR_DISK_ERR) ? res : FR_INT_ERR;
2252:Core/Src/FAT/ff.c **** }
2253:Core/Src/FAT/ff.c **** 
2254:Core/Src/FAT/ff.c **** 
2255:Core/Src/FAT/ff.c **** 
2256:Core/Src/FAT/ff.c **** /*-------------------------------------------*/
2257:Core/Src/FAT/ff.c **** /* exFAT: Create a new directory entry block */
2258:Core/Src/FAT/ff.c **** /*-------------------------------------------*/
2259:Core/Src/FAT/ff.c **** 
2260:Core/Src/FAT/ff.c **** static void create_xdir (
2261:Core/Src/FAT/ff.c **** 	BYTE* dirb,			/* Pointer to the directory entry block buffer */
2262:Core/Src/FAT/ff.c **** 	const WCHAR* lfn	/* Pointer to the object name */
2263:Core/Src/FAT/ff.c **** )
2264:Core/Src/FAT/ff.c **** {
2265:Core/Src/FAT/ff.c **** 	UINT i;
2266:Core/Src/FAT/ff.c **** 	BYTE nc1, nlen;
ARM GAS  C:\Users\HP-Admin\AppData\Local\Temp\ccY0w7x3.s 			page 49


2267:Core/Src/FAT/ff.c **** 	WCHAR wc;
2268:Core/Src/FAT/ff.c **** 
2269:Core/Src/FAT/ff.c **** 
2270:Core/Src/FAT/ff.c **** 	/* Create file-directory and stream-extension entry */
2271:Core/Src/FAT/ff.c **** 	memset(dirb, 0, 2 * SZDIRE);
2272:Core/Src/FAT/ff.c **** 	dirb[0 * SZDIRE + XDIR_Type] = ET_FILEDIR;
2273:Core/Src/FAT/ff.c **** 	dirb[1 * SZDIRE + XDIR_Type] = ET_STREAM;
2274:Core/Src/FAT/ff.c **** 
2275:Core/Src/FAT/ff.c **** 	/* Create file-name entries */
2276:Core/Src/FAT/ff.c **** 	i = SZDIRE * 2;	/* Top of file_name entries */
2277:Core/Src/FAT/ff.c **** 	nlen = nc1 = 0; wc = 1;
2278:Core/Src/FAT/ff.c **** 	do {
2279:Core/Src/FAT/ff.c **** 		dirb[i++] = ET_FILENAME; dirb[i++] = 0;
2280:Core/Src/FAT/ff.c **** 		do {	/* Fill name field */
2281:Core/Src/FAT/ff.c **** 			if (wc != 0 && (wc = lfn[nlen]) != 0) nlen++;	/* Get a character if exist */
2282:Core/Src/FAT/ff.c **** 			st_word(dirb + i, wc); 	/* Store it */
2283:Core/Src/FAT/ff.c **** 			i += 2;
2284:Core/Src/FAT/ff.c **** 		} while (i % SZDIRE != 0);
2285:Core/Src/FAT/ff.c **** 		nc1++;
2286:Core/Src/FAT/ff.c **** 	} while (lfn[nlen]);	/* Fill next entry if any char follows */
2287:Core/Src/FAT/ff.c **** 
2288:Core/Src/FAT/ff.c **** 	dirb[XDIR_NumName] = nlen;		/* Set name length */
2289:Core/Src/FAT/ff.c **** 	dirb[XDIR_NumSec] = 1 + nc1;	/* Set secondary count (C0 + C1s) */
2290:Core/Src/FAT/ff.c **** 	st_word(dirb + XDIR_NameHash, xname_sum(lfn));	/* Set name hash */
2291:Core/Src/FAT/ff.c **** }
2292:Core/Src/FAT/ff.c **** 
2293:Core/Src/FAT/ff.c **** #endif	/* !FF_FS_READONLY */
2294:Core/Src/FAT/ff.c **** #endif	/* FF_FS_EXFAT */
2295:Core/Src/FAT/ff.c **** 
2296:Core/Src/FAT/ff.c **** 
2297:Core/Src/FAT/ff.c **** 
2298:Core/Src/FAT/ff.c **** #if FF_FS_MINIMIZE <= 1 || FF_FS_RPATH >= 2 || FF_USE_LABEL || FF_FS_EXFAT
2299:Core/Src/FAT/ff.c **** /*-----------------------------------------------------------------------*/
2300:Core/Src/FAT/ff.c **** /* Read an object from the directory                                     */
2301:Core/Src/FAT/ff.c **** /*-----------------------------------------------------------------------*/
2302:Core/Src/FAT/ff.c **** 
2303:Core/Src/FAT/ff.c **** #define DIR_READ_FILE(dp) dir_read(dp, 0)
2304:Core/Src/FAT/ff.c **** #define DIR_READ_LABEL(dp) dir_read(dp, 1)
2305:Core/Src/FAT/ff.c **** 
2306:Core/Src/FAT/ff.c **** static FRESULT dir_read (
2307:Core/Src/FAT/ff.c **** 	DIR* dp,		/* Pointer to the directory object */
2308:Core/Src/FAT/ff.c **** 	int vol			/* Filtered by 0:file/directory or 1:volume label */
2309:Core/Src/FAT/ff.c **** )
2310:Core/Src/FAT/ff.c **** {
2311:Core/Src/FAT/ff.c **** 	FRESULT res = FR_NO_FILE;
2312:Core/Src/FAT/ff.c **** 	FATFS *fs = dp->obj.fs;
2313:Core/Src/FAT/ff.c **** 	BYTE attr, b;
2314:Core/Src/FAT/ff.c **** #if FF_USE_LFN
2315:Core/Src/FAT/ff.c **** 	BYTE ord = 0xFF, sum = 0xFF;
2316:Core/Src/FAT/ff.c **** #endif
2317:Core/Src/FAT/ff.c **** 
2318:Core/Src/FAT/ff.c **** 	while (dp->sect) {
2319:Core/Src/FAT/ff.c **** 		res = move_window(fs, dp->sect);
2320:Core/Src/FAT/ff.c **** 		if (res != FR_OK) break;
2321:Core/Src/FAT/ff.c **** 		b = dp->dir[DIR_Name];	/* Test for the entry type */
2322:Core/Src/FAT/ff.c **** 		if (b == 0) {
2323:Core/Src/FAT/ff.c **** 			res = FR_NO_FILE; break; /* Reached to end of the directory */
ARM GAS  C:\Users\HP-Admin\AppData\Local\Temp\ccY0w7x3.s 			page 50


2324:Core/Src/FAT/ff.c **** 		}
2325:Core/Src/FAT/ff.c **** #if FF_FS_EXFAT
2326:Core/Src/FAT/ff.c **** 		if (fs->fs_type == FS_EXFAT) {	/* On the exFAT volume */
2327:Core/Src/FAT/ff.c **** 			if (FF_USE_LABEL && vol) {
2328:Core/Src/FAT/ff.c **** 				if (b == ET_VLABEL) break;	/* Volume label entry? */
2329:Core/Src/FAT/ff.c **** 			} else {
2330:Core/Src/FAT/ff.c **** 				if (b == ET_FILEDIR) {		/* Start of the file entry block? */
2331:Core/Src/FAT/ff.c **** 					dp->blk_ofs = dp->dptr;	/* Get location of the block */
2332:Core/Src/FAT/ff.c **** 					res = load_xdir(dp);	/* Load the entry block */
2333:Core/Src/FAT/ff.c **** 					if (res == FR_OK) {
2334:Core/Src/FAT/ff.c **** 						dp->obj.attr = fs->dirbuf[XDIR_Attr] & AM_MASK;	/* Get attribute */
2335:Core/Src/FAT/ff.c **** 					}
2336:Core/Src/FAT/ff.c **** 					break;
2337:Core/Src/FAT/ff.c **** 				}
2338:Core/Src/FAT/ff.c **** 			}
2339:Core/Src/FAT/ff.c **** 		} else
2340:Core/Src/FAT/ff.c **** #endif
2341:Core/Src/FAT/ff.c **** 		{	/* On the FAT/FAT32 volume */
2342:Core/Src/FAT/ff.c **** 			dp->obj.attr = attr = dp->dir[DIR_Attr] & AM_MASK;	/* Get attribute */
2343:Core/Src/FAT/ff.c **** #if FF_USE_LFN		/* LFN configuration */
2344:Core/Src/FAT/ff.c **** 			if (b == DDEM || b == '.' || (int)((attr & ~AM_ARC) == AM_VOL) != vol) {	/* An entry without val
2345:Core/Src/FAT/ff.c **** 				ord = 0xFF;
2346:Core/Src/FAT/ff.c **** 			} else {
2347:Core/Src/FAT/ff.c **** 				if (attr == AM_LFN) {	/* An LFN entry is found */
2348:Core/Src/FAT/ff.c **** 					if (b & LLEF) {		/* Is it start of an LFN sequence? */
2349:Core/Src/FAT/ff.c **** 						sum = dp->dir[LDIR_Chksum];
2350:Core/Src/FAT/ff.c **** 						b &= (BYTE)~LLEF; ord = b;
2351:Core/Src/FAT/ff.c **** 						dp->blk_ofs = dp->dptr;
2352:Core/Src/FAT/ff.c **** 					}
2353:Core/Src/FAT/ff.c **** 					/* Check LFN validity and capture it */
2354:Core/Src/FAT/ff.c **** 					ord = (b == ord && sum == dp->dir[LDIR_Chksum] && pick_lfn(fs->lfnbuf, dp->dir)) ? ord - 1 : 0
2355:Core/Src/FAT/ff.c **** 				} else {				/* An SFN entry is found */
2356:Core/Src/FAT/ff.c **** 					if (ord != 0 || sum != sum_sfn(dp->dir)) {	/* Is there a valid LFN? */
2357:Core/Src/FAT/ff.c **** 						dp->blk_ofs = 0xFFFFFFFF;	/* It has no LFN. */
2358:Core/Src/FAT/ff.c **** 					}
2359:Core/Src/FAT/ff.c **** 					break;
2360:Core/Src/FAT/ff.c **** 				}
2361:Core/Src/FAT/ff.c **** 			}
2362:Core/Src/FAT/ff.c **** #else		/* Non LFN configuration */
2363:Core/Src/FAT/ff.c **** 			if (b != DDEM && b != '.' && attr != AM_LFN && (int)((attr & ~AM_ARC) == AM_VOL) == vol) {	/* Is
2364:Core/Src/FAT/ff.c **** 				break;
2365:Core/Src/FAT/ff.c **** 			}
2366:Core/Src/FAT/ff.c **** #endif
2367:Core/Src/FAT/ff.c **** 		}
2368:Core/Src/FAT/ff.c **** 		res = dir_next(dp, 0);		/* Next entry */
2369:Core/Src/FAT/ff.c **** 		if (res != FR_OK) break;
2370:Core/Src/FAT/ff.c **** 	}
2371:Core/Src/FAT/ff.c **** 
2372:Core/Src/FAT/ff.c **** 	if (res != FR_OK) dp->sect = 0;		/* Terminate the read operation on error or EOT */
2373:Core/Src/FAT/ff.c **** 	return res;
2374:Core/Src/FAT/ff.c **** }
2375:Core/Src/FAT/ff.c **** 
2376:Core/Src/FAT/ff.c **** #endif	/* FF_FS_MINIMIZE <= 1 || FF_USE_LABEL || FF_FS_RPATH >= 2 */
2377:Core/Src/FAT/ff.c **** 
2378:Core/Src/FAT/ff.c **** 
2379:Core/Src/FAT/ff.c **** 
2380:Core/Src/FAT/ff.c **** /*-----------------------------------------------------------------------*/
ARM GAS  C:\Users\HP-Admin\AppData\Local\Temp\ccY0w7x3.s 			page 51


2381:Core/Src/FAT/ff.c **** /* Directory handling - Find an object in the directory                  */
2382:Core/Src/FAT/ff.c **** /*-----------------------------------------------------------------------*/
2383:Core/Src/FAT/ff.c **** 
2384:Core/Src/FAT/ff.c **** static FRESULT dir_find (	/* FR_OK(0):succeeded, !=0:error */
2385:Core/Src/FAT/ff.c **** 	DIR* dp					/* Pointer to the directory object with the file name */
2386:Core/Src/FAT/ff.c **** )
2387:Core/Src/FAT/ff.c **** {
2388:Core/Src/FAT/ff.c **** 	FRESULT res;
2389:Core/Src/FAT/ff.c **** 	FATFS *fs = dp->obj.fs;
2390:Core/Src/FAT/ff.c **** 	BYTE c;
2391:Core/Src/FAT/ff.c **** #if FF_USE_LFN
2392:Core/Src/FAT/ff.c **** 	BYTE a, ord, sum;
2393:Core/Src/FAT/ff.c **** #endif
2394:Core/Src/FAT/ff.c **** 
2395:Core/Src/FAT/ff.c **** 	res = dir_sdi(dp, 0);			/* Rewind directory object */
2396:Core/Src/FAT/ff.c **** 	if (res != FR_OK) return res;
2397:Core/Src/FAT/ff.c **** #if FF_FS_EXFAT
2398:Core/Src/FAT/ff.c **** 	if (fs->fs_type == FS_EXFAT) {	/* On the exFAT volume */
2399:Core/Src/FAT/ff.c **** 		BYTE nc;
2400:Core/Src/FAT/ff.c **** 		UINT di, ni;
2401:Core/Src/FAT/ff.c **** 		WORD hash = xname_sum(fs->lfnbuf);		/* Hash value of the name to find */
2402:Core/Src/FAT/ff.c **** 
2403:Core/Src/FAT/ff.c **** 		while ((res = DIR_READ_FILE(dp)) == FR_OK) {	/* Read an item */
2404:Core/Src/FAT/ff.c **** #if FF_MAX_LFN < 255
2405:Core/Src/FAT/ff.c **** 			if (fs->dirbuf[XDIR_NumName] > FF_MAX_LFN) continue;		/* Skip comparison if inaccessible object 
2406:Core/Src/FAT/ff.c **** #endif
2407:Core/Src/FAT/ff.c **** 			if (ld_word(fs->dirbuf + XDIR_NameHash) != hash) continue;	/* Skip comparison if hash mismatched
2408:Core/Src/FAT/ff.c **** 			for (nc = fs->dirbuf[XDIR_NumName], di = SZDIRE * 2, ni = 0; nc; nc--, di += 2, ni++) {	/* Compa
2409:Core/Src/FAT/ff.c **** 				if ((di % SZDIRE) == 0) di += 2;
2410:Core/Src/FAT/ff.c **** 				if (ff_wtoupper(ld_word(fs->dirbuf + di)) != ff_wtoupper(fs->lfnbuf[ni])) break;
2411:Core/Src/FAT/ff.c **** 			}
2412:Core/Src/FAT/ff.c **** 			if (nc == 0 && !fs->lfnbuf[ni]) break;	/* Name matched? */
2413:Core/Src/FAT/ff.c **** 		}
2414:Core/Src/FAT/ff.c **** 		return res;
2415:Core/Src/FAT/ff.c **** 	}
2416:Core/Src/FAT/ff.c **** #endif
2417:Core/Src/FAT/ff.c **** 	/* On the FAT/FAT32 volume */
2418:Core/Src/FAT/ff.c **** #if FF_USE_LFN
2419:Core/Src/FAT/ff.c **** 	ord = sum = 0xFF; dp->blk_ofs = 0xFFFFFFFF;	/* Reset LFN sequence */
2420:Core/Src/FAT/ff.c **** #endif
2421:Core/Src/FAT/ff.c **** 	do {
2422:Core/Src/FAT/ff.c **** 		res = move_window(fs, dp->sect);
2423:Core/Src/FAT/ff.c **** 		if (res != FR_OK) break;
2424:Core/Src/FAT/ff.c **** 		c = dp->dir[DIR_Name];
2425:Core/Src/FAT/ff.c **** 		if (c == 0) { res = FR_NO_FILE; break; }	/* Reached to end of table */
2426:Core/Src/FAT/ff.c **** #if FF_USE_LFN		/* LFN configuration */
2427:Core/Src/FAT/ff.c **** 		dp->obj.attr = a = dp->dir[DIR_Attr] & AM_MASK;
2428:Core/Src/FAT/ff.c **** 		if (c == DDEM || ((a & AM_VOL) && a != AM_LFN)) {	/* An entry without valid data */
2429:Core/Src/FAT/ff.c **** 			ord = 0xFF; dp->blk_ofs = 0xFFFFFFFF;	/* Reset LFN sequence */
2430:Core/Src/FAT/ff.c **** 		} else {
2431:Core/Src/FAT/ff.c **** 			if (a == AM_LFN) {			/* An LFN entry is found */
2432:Core/Src/FAT/ff.c **** 				if (!(dp->fn[NSFLAG] & NS_NOLFN)) {
2433:Core/Src/FAT/ff.c **** 					if (c & LLEF) {		/* Is it start of LFN sequence? */
2434:Core/Src/FAT/ff.c **** 						sum = dp->dir[LDIR_Chksum];
2435:Core/Src/FAT/ff.c **** 						c &= (BYTE)~LLEF; ord = c;	/* LFN start order */
2436:Core/Src/FAT/ff.c **** 						dp->blk_ofs = dp->dptr;	/* Start offset of LFN */
2437:Core/Src/FAT/ff.c **** 					}
ARM GAS  C:\Users\HP-Admin\AppData\Local\Temp\ccY0w7x3.s 			page 52


2438:Core/Src/FAT/ff.c **** 					/* Check validity of the LFN entry and compare it with given name */
2439:Core/Src/FAT/ff.c **** 					ord = (c == ord && sum == dp->dir[LDIR_Chksum] && cmp_lfn(fs->lfnbuf, dp->dir)) ? ord - 1 : 0x
2440:Core/Src/FAT/ff.c **** 				}
2441:Core/Src/FAT/ff.c **** 			} else {					/* An SFN entry is found */
2442:Core/Src/FAT/ff.c **** 				if (ord == 0 && sum == sum_sfn(dp->dir)) break;	/* LFN matched? */
2443:Core/Src/FAT/ff.c **** 				if (!(dp->fn[NSFLAG] & NS_LOSS) && !memcmp(dp->dir, dp->fn, 11)) break;	/* SFN matched? */
2444:Core/Src/FAT/ff.c **** 				ord = 0xFF; dp->blk_ofs = 0xFFFFFFFF;	/* Reset LFN sequence */
2445:Core/Src/FAT/ff.c **** 			}
2446:Core/Src/FAT/ff.c **** 		}
2447:Core/Src/FAT/ff.c **** #else		/* Non LFN configuration */
2448:Core/Src/FAT/ff.c **** 		dp->obj.attr = dp->dir[DIR_Attr] & AM_MASK;
2449:Core/Src/FAT/ff.c **** 		if (!(dp->dir[DIR_Attr] & AM_VOL) && !memcmp(dp->dir, dp->fn, 11)) break;	/* Is it a valid entry?
2450:Core/Src/FAT/ff.c **** #endif
2451:Core/Src/FAT/ff.c **** 		res = dir_next(dp, 0);	/* Next entry */
2452:Core/Src/FAT/ff.c **** 	} while (res == FR_OK);
2453:Core/Src/FAT/ff.c **** 
2454:Core/Src/FAT/ff.c **** 	return res;
2455:Core/Src/FAT/ff.c **** }
2456:Core/Src/FAT/ff.c **** 
2457:Core/Src/FAT/ff.c **** 
2458:Core/Src/FAT/ff.c **** 
2459:Core/Src/FAT/ff.c **** 
2460:Core/Src/FAT/ff.c **** #if !FF_FS_READONLY
2461:Core/Src/FAT/ff.c **** /*-----------------------------------------------------------------------*/
2462:Core/Src/FAT/ff.c **** /* Register an object to the directory                                   */
2463:Core/Src/FAT/ff.c **** /*-----------------------------------------------------------------------*/
2464:Core/Src/FAT/ff.c **** 
2465:Core/Src/FAT/ff.c **** static FRESULT dir_register (	/* FR_OK:succeeded, FR_DENIED:no free entry or too many SFN collision
2466:Core/Src/FAT/ff.c **** 	DIR* dp						/* Target directory with object name to be created */
2467:Core/Src/FAT/ff.c **** )
2468:Core/Src/FAT/ff.c **** {
2469:Core/Src/FAT/ff.c **** 	FRESULT res;
2470:Core/Src/FAT/ff.c **** 	FATFS *fs = dp->obj.fs;
2471:Core/Src/FAT/ff.c **** #if FF_USE_LFN		/* LFN configuration */
2472:Core/Src/FAT/ff.c **** 	UINT n, len, n_ent;
2473:Core/Src/FAT/ff.c **** 	BYTE sn[12], sum;
2474:Core/Src/FAT/ff.c **** 
2475:Core/Src/FAT/ff.c **** 
2476:Core/Src/FAT/ff.c **** 	if (dp->fn[NSFLAG] & (NS_DOT | NS_NONAME)) return FR_INVALID_NAME;	/* Check name validity */
2477:Core/Src/FAT/ff.c **** 	for (len = 0; fs->lfnbuf[len]; len++) ;	/* Get lfn length */
2478:Core/Src/FAT/ff.c **** 
2479:Core/Src/FAT/ff.c **** #if FF_FS_EXFAT
2480:Core/Src/FAT/ff.c **** 	if (fs->fs_type == FS_EXFAT) {	/* On the exFAT volume */
2481:Core/Src/FAT/ff.c **** 		n_ent = (len + 14) / 15 + 2;	/* Number of entries to allocate (85+C0+C1s) */
2482:Core/Src/FAT/ff.c **** 		res = dir_alloc(dp, n_ent);		/* Allocate directory entries */
2483:Core/Src/FAT/ff.c **** 		if (res != FR_OK) return res;
2484:Core/Src/FAT/ff.c **** 		dp->blk_ofs = dp->dptr - SZDIRE * (n_ent - 1);	/* Set the allocated entry block offset */
2485:Core/Src/FAT/ff.c **** 
2486:Core/Src/FAT/ff.c **** 		if (dp->obj.stat & 4) {			/* Has the directory been stretched by new allocation? */
2487:Core/Src/FAT/ff.c **** 			dp->obj.stat &= ~4;
2488:Core/Src/FAT/ff.c **** 			res = fill_first_frag(&dp->obj);	/* Fill the first fragment on the FAT if needed */
2489:Core/Src/FAT/ff.c **** 			if (res != FR_OK) return res;
2490:Core/Src/FAT/ff.c **** 			res = fill_last_frag(&dp->obj, dp->clust, 0xFFFFFFFF);	/* Fill the last fragment on the FAT if n
2491:Core/Src/FAT/ff.c **** 			if (res != FR_OK) return res;
2492:Core/Src/FAT/ff.c **** 			if (dp->obj.sclust != 0) {		/* Is it a sub-directory? */
2493:Core/Src/FAT/ff.c **** 				DIR dj;
2494:Core/Src/FAT/ff.c **** 
ARM GAS  C:\Users\HP-Admin\AppData\Local\Temp\ccY0w7x3.s 			page 53


2495:Core/Src/FAT/ff.c **** 				res = load_obj_xdir(&dj, &dp->obj);	/* Load the object status */
2496:Core/Src/FAT/ff.c **** 				if (res != FR_OK) return res;
2497:Core/Src/FAT/ff.c **** 				dp->obj.objsize += (DWORD)fs->csize * SS(fs);		/* Increase the directory size by cluster size *
2498:Core/Src/FAT/ff.c **** 				st_qword(fs->dirbuf + XDIR_FileSize, dp->obj.objsize);
2499:Core/Src/FAT/ff.c **** 				st_qword(fs->dirbuf + XDIR_ValidFileSize, dp->obj.objsize);
2500:Core/Src/FAT/ff.c **** 				fs->dirbuf[XDIR_GenFlags] = dp->obj.stat | 1;		/* Update the allocation status */
2501:Core/Src/FAT/ff.c **** 				res = store_xdir(&dj);				/* Store the object status */
2502:Core/Src/FAT/ff.c **** 				if (res != FR_OK) return res;
2503:Core/Src/FAT/ff.c **** 			}
2504:Core/Src/FAT/ff.c **** 		}
2505:Core/Src/FAT/ff.c **** 
2506:Core/Src/FAT/ff.c **** 		create_xdir(fs->dirbuf, fs->lfnbuf);	/* Create on-memory directory block to be written later */
2507:Core/Src/FAT/ff.c **** 		return FR_OK;
2508:Core/Src/FAT/ff.c **** 	}
2509:Core/Src/FAT/ff.c **** #endif
2510:Core/Src/FAT/ff.c **** 	/* On the FAT/FAT32 volume */
2511:Core/Src/FAT/ff.c **** 	memcpy(sn, dp->fn, 12);
2512:Core/Src/FAT/ff.c **** 	if (sn[NSFLAG] & NS_LOSS) {			/* When LFN is out of 8.3 format, generate a numbered name */
2513:Core/Src/FAT/ff.c **** 		dp->fn[NSFLAG] = NS_NOLFN;		/* Find only SFN */
2514:Core/Src/FAT/ff.c **** 		for (n = 1; n < 100; n++) {
2515:Core/Src/FAT/ff.c **** 			gen_numname(dp->fn, sn, fs->lfnbuf, n);	/* Generate a numbered name */
2516:Core/Src/FAT/ff.c **** 			res = dir_find(dp);				/* Check if the name collides with existing SFN */
2517:Core/Src/FAT/ff.c **** 			if (res != FR_OK) break;
2518:Core/Src/FAT/ff.c **** 		}
2519:Core/Src/FAT/ff.c **** 		if (n == 100) return FR_DENIED;		/* Abort if too many collisions */
2520:Core/Src/FAT/ff.c **** 		if (res != FR_NO_FILE) return res;	/* Abort if the result is other than 'not collided' */
2521:Core/Src/FAT/ff.c **** 		dp->fn[NSFLAG] = sn[NSFLAG];
2522:Core/Src/FAT/ff.c **** 	}
2523:Core/Src/FAT/ff.c **** 
2524:Core/Src/FAT/ff.c **** 	/* Create an SFN with/without LFNs. */
2525:Core/Src/FAT/ff.c **** 	n_ent = (sn[NSFLAG] & NS_LFN) ? (len + 12) / 13 + 1 : 1;	/* Number of entries to allocate */
2526:Core/Src/FAT/ff.c **** 	res = dir_alloc(dp, n_ent);		/* Allocate entries */
2527:Core/Src/FAT/ff.c **** 	if (res == FR_OK && --n_ent) {	/* Set LFN entry if needed */
2528:Core/Src/FAT/ff.c **** 		res = dir_sdi(dp, dp->dptr - n_ent * SZDIRE);
2529:Core/Src/FAT/ff.c **** 		if (res == FR_OK) {
2530:Core/Src/FAT/ff.c **** 			sum = sum_sfn(dp->fn);	/* Checksum value of the SFN tied to the LFN */
2531:Core/Src/FAT/ff.c **** 			do {					/* Store LFN entries in bottom first */
2532:Core/Src/FAT/ff.c **** 				res = move_window(fs, dp->sect);
2533:Core/Src/FAT/ff.c **** 				if (res != FR_OK) break;
2534:Core/Src/FAT/ff.c **** 				put_lfn(fs->lfnbuf, dp->dir, (BYTE)n_ent, sum);
2535:Core/Src/FAT/ff.c **** 				fs->wflag = 1;
2536:Core/Src/FAT/ff.c **** 				res = dir_next(dp, 0);	/* Next entry */
2537:Core/Src/FAT/ff.c **** 			} while (res == FR_OK && --n_ent);
2538:Core/Src/FAT/ff.c **** 		}
2539:Core/Src/FAT/ff.c **** 	}
2540:Core/Src/FAT/ff.c **** 
2541:Core/Src/FAT/ff.c **** #else	/* Non LFN configuration */
2542:Core/Src/FAT/ff.c **** 	res = dir_alloc(dp, 1);		/* Allocate an entry for SFN */
2543:Core/Src/FAT/ff.c **** 
2544:Core/Src/FAT/ff.c **** #endif
2545:Core/Src/FAT/ff.c **** 
2546:Core/Src/FAT/ff.c **** 	/* Set SFN entry */
2547:Core/Src/FAT/ff.c **** 	if (res == FR_OK) {
2548:Core/Src/FAT/ff.c **** 		res = move_window(fs, dp->sect);
2549:Core/Src/FAT/ff.c **** 		if (res == FR_OK) {
2550:Core/Src/FAT/ff.c **** 			memset(dp->dir, 0, SZDIRE);	/* Clean the entry */
2551:Core/Src/FAT/ff.c **** 			memcpy(dp->dir + DIR_Name, dp->fn, 11);	/* Put SFN */
ARM GAS  C:\Users\HP-Admin\AppData\Local\Temp\ccY0w7x3.s 			page 54


2552:Core/Src/FAT/ff.c **** #if FF_USE_LFN
2553:Core/Src/FAT/ff.c **** 			dp->dir[DIR_NTres] = dp->fn[NSFLAG] & (NS_BODY | NS_EXT);	/* Put NT flag */
2554:Core/Src/FAT/ff.c **** #endif
2555:Core/Src/FAT/ff.c **** 			fs->wflag = 1;
2556:Core/Src/FAT/ff.c **** 		}
2557:Core/Src/FAT/ff.c **** 	}
2558:Core/Src/FAT/ff.c **** 
2559:Core/Src/FAT/ff.c **** 	return res;
2560:Core/Src/FAT/ff.c **** }
2561:Core/Src/FAT/ff.c **** 
2562:Core/Src/FAT/ff.c **** #endif /* !FF_FS_READONLY */
2563:Core/Src/FAT/ff.c **** 
2564:Core/Src/FAT/ff.c **** 
2565:Core/Src/FAT/ff.c **** 
2566:Core/Src/FAT/ff.c **** #if !FF_FS_READONLY && FF_FS_MINIMIZE == 0
2567:Core/Src/FAT/ff.c **** /*-----------------------------------------------------------------------*/
2568:Core/Src/FAT/ff.c **** /* Remove an object from the directory                                   */
2569:Core/Src/FAT/ff.c **** /*-----------------------------------------------------------------------*/
2570:Core/Src/FAT/ff.c **** 
2571:Core/Src/FAT/ff.c **** static FRESULT dir_remove (	/* FR_OK:Succeeded, FR_DISK_ERR:A disk error */
2572:Core/Src/FAT/ff.c **** 	DIR* dp					/* Directory object pointing the entry to be removed */
2573:Core/Src/FAT/ff.c **** )
2574:Core/Src/FAT/ff.c **** {
2575:Core/Src/FAT/ff.c **** 	FRESULT res;
2576:Core/Src/FAT/ff.c **** 	FATFS *fs = dp->obj.fs;
2577:Core/Src/FAT/ff.c **** #if FF_USE_LFN		/* LFN configuration */
2578:Core/Src/FAT/ff.c **** 	DWORD last = dp->dptr;
2579:Core/Src/FAT/ff.c **** 
2580:Core/Src/FAT/ff.c **** 	res = (dp->blk_ofs == 0xFFFFFFFF) ? FR_OK : dir_sdi(dp, dp->blk_ofs);	/* Goto top of the entry blo
2581:Core/Src/FAT/ff.c **** 	if (res == FR_OK) {
2582:Core/Src/FAT/ff.c **** 		do {
2583:Core/Src/FAT/ff.c **** 			res = move_window(fs, dp->sect);
2584:Core/Src/FAT/ff.c **** 			if (res != FR_OK) break;
2585:Core/Src/FAT/ff.c **** 			if (FF_FS_EXFAT && fs->fs_type == FS_EXFAT) {	/* On the exFAT volume */
2586:Core/Src/FAT/ff.c **** 				dp->dir[XDIR_Type] &= 0x7F;	/* Clear the entry InUse flag. */
2587:Core/Src/FAT/ff.c **** 			} else {										/* On the FAT/FAT32 volume */
2588:Core/Src/FAT/ff.c **** 				dp->dir[DIR_Name] = DDEM;	/* Mark the entry 'deleted'. */
2589:Core/Src/FAT/ff.c **** 			}
2590:Core/Src/FAT/ff.c **** 			fs->wflag = 1;
2591:Core/Src/FAT/ff.c **** 			if (dp->dptr >= last) break;	/* If reached last entry then all entries of the object has been de
2592:Core/Src/FAT/ff.c **** 			res = dir_next(dp, 0);	/* Next entry */
2593:Core/Src/FAT/ff.c **** 		} while (res == FR_OK);
2594:Core/Src/FAT/ff.c **** 		if (res == FR_NO_FILE) res = FR_INT_ERR;
2595:Core/Src/FAT/ff.c **** 	}
2596:Core/Src/FAT/ff.c **** #else			/* Non LFN configuration */
2597:Core/Src/FAT/ff.c **** 
2598:Core/Src/FAT/ff.c **** 	res = move_window(fs, dp->sect);
2599:Core/Src/FAT/ff.c **** 	if (res == FR_OK) {
2600:Core/Src/FAT/ff.c **** 		dp->dir[DIR_Name] = DDEM;	/* Mark the entry 'deleted'.*/
2601:Core/Src/FAT/ff.c **** 		fs->wflag = 1;
2602:Core/Src/FAT/ff.c **** 	}
2603:Core/Src/FAT/ff.c **** #endif
2604:Core/Src/FAT/ff.c **** 
2605:Core/Src/FAT/ff.c **** 	return res;
2606:Core/Src/FAT/ff.c **** }
2607:Core/Src/FAT/ff.c **** 
2608:Core/Src/FAT/ff.c **** #endif /* !FF_FS_READONLY && FF_FS_MINIMIZE == 0 */
ARM GAS  C:\Users\HP-Admin\AppData\Local\Temp\ccY0w7x3.s 			page 55


2609:Core/Src/FAT/ff.c **** 
2610:Core/Src/FAT/ff.c **** 
2611:Core/Src/FAT/ff.c **** 
2612:Core/Src/FAT/ff.c **** #if FF_FS_MINIMIZE <= 1 || FF_FS_RPATH >= 2
2613:Core/Src/FAT/ff.c **** /*-----------------------------------------------------------------------*/
2614:Core/Src/FAT/ff.c **** /* Get file information from directory entry                             */
2615:Core/Src/FAT/ff.c **** /*-----------------------------------------------------------------------*/
2616:Core/Src/FAT/ff.c **** 
2617:Core/Src/FAT/ff.c **** static void get_fileinfo (
2618:Core/Src/FAT/ff.c **** 	DIR* dp,			/* Pointer to the directory object */
2619:Core/Src/FAT/ff.c **** 	FILINFO* fno		/* Pointer to the file information to be filled */
2620:Core/Src/FAT/ff.c **** )
2621:Core/Src/FAT/ff.c **** {
 473              		.loc 1 2621 1 is_stmt 1 view -0
 474              		.cfi_startproc
 475              		@ args = 0, pretend = 0, frame = 0
 476              		@ frame_needed = 0, uses_anonymous_args = 0
 477              		.loc 1 2621 1 is_stmt 0 view .LVU128
 478 0000 38B5     		push	{r3, r4, r5, lr}
 479              	.LCFI2:
 480              		.cfi_def_cfa_offset 16
 481              		.cfi_offset 3, -16
 482              		.cfi_offset 4, -12
 483              		.cfi_offset 5, -8
 484              		.cfi_offset 14, -4
2622:Core/Src/FAT/ff.c **** 	UINT si, di;
 485              		.loc 1 2622 2 is_stmt 1 view .LVU129
2623:Core/Src/FAT/ff.c **** #if FF_USE_LFN
2624:Core/Src/FAT/ff.c **** 	BYTE lcf;
2625:Core/Src/FAT/ff.c **** 	WCHAR wc, hs;
2626:Core/Src/FAT/ff.c **** 	FATFS *fs = dp->obj.fs;
2627:Core/Src/FAT/ff.c **** 	UINT nw;
2628:Core/Src/FAT/ff.c **** #else
2629:Core/Src/FAT/ff.c **** 	TCHAR c;
 486              		.loc 1 2629 2 view .LVU130
2630:Core/Src/FAT/ff.c **** #endif
2631:Core/Src/FAT/ff.c **** 
2632:Core/Src/FAT/ff.c **** 
2633:Core/Src/FAT/ff.c **** 	fno->fname[0] = 0;			/* Invaidate file info */
 487              		.loc 1 2633 2 view .LVU131
 488              		.loc 1 2633 16 is_stmt 0 view .LVU132
 489 0002 0023     		movs	r3, #0
 490 0004 4B72     		strb	r3, [r1, #9]
2634:Core/Src/FAT/ff.c **** 	if (dp->sect == 0) return;	/* Exit if read pointer has reached end of directory */
 491              		.loc 1 2634 2 is_stmt 1 view .LVU133
 492              		.loc 1 2634 8 is_stmt 0 view .LVU134
 493 0006 8369     		ldr	r3, [r0, #24]
 494              		.loc 1 2634 5 view .LVU135
 495 0008 9BB3     		cbz	r3, .L30
 496 000a 0546     		mov	r5, r0
 497 000c 0C46     		mov	r4, r1
2635:Core/Src/FAT/ff.c **** 
2636:Core/Src/FAT/ff.c **** #if FF_USE_LFN		/* LFN configuration */
2637:Core/Src/FAT/ff.c **** #if FF_FS_EXFAT
2638:Core/Src/FAT/ff.c **** 	if (fs->fs_type == FS_EXFAT) {	/* exFAT volume */
2639:Core/Src/FAT/ff.c **** 		UINT nc = 0;
2640:Core/Src/FAT/ff.c **** 
ARM GAS  C:\Users\HP-Admin\AppData\Local\Temp\ccY0w7x3.s 			page 56


2641:Core/Src/FAT/ff.c **** 		si = SZDIRE * 2; di = 0;	/* 1st C1 entry in the entry block */
2642:Core/Src/FAT/ff.c **** 		hs = 0;
2643:Core/Src/FAT/ff.c **** 		while (nc < fs->dirbuf[XDIR_NumName]) {
2644:Core/Src/FAT/ff.c **** 			if (si >= MAXDIRB(FF_MAX_LFN)) {	/* Truncated directory block? */
2645:Core/Src/FAT/ff.c **** 				di = 0; break;
2646:Core/Src/FAT/ff.c **** 			}
2647:Core/Src/FAT/ff.c **** 			if ((si % SZDIRE) == 0) si += 2;	/* Skip entry type field */
2648:Core/Src/FAT/ff.c **** 			wc = ld_word(fs->dirbuf + si); si += 2; nc++;	/* Get a character */
2649:Core/Src/FAT/ff.c **** 			if (hs == 0 && IsSurrogate(wc)) {	/* Is it a surrogate? */
2650:Core/Src/FAT/ff.c **** 				hs = wc; continue;				/* Get low surrogate */
2651:Core/Src/FAT/ff.c **** 			}
2652:Core/Src/FAT/ff.c **** 			nw = put_utf((DWORD)hs << 16 | wc, &fno->fname[di], FF_LFN_BUF - di);	/* Store it in API encodin
2653:Core/Src/FAT/ff.c **** 			if (nw == 0) {						/* Buffer overflow or wrong char? */
2654:Core/Src/FAT/ff.c **** 				di = 0; break;
2655:Core/Src/FAT/ff.c **** 			}
2656:Core/Src/FAT/ff.c **** 			di += nw;
2657:Core/Src/FAT/ff.c **** 			hs = 0;
2658:Core/Src/FAT/ff.c **** 		}
2659:Core/Src/FAT/ff.c **** 		if (hs != 0) di = 0;					/* Broken surrogate pair? */
2660:Core/Src/FAT/ff.c **** 		if (di == 0) fno->fname[di++] = '\?';	/* Inaccessible object name? */
2661:Core/Src/FAT/ff.c **** 		fno->fname[di] = 0;						/* Terminate the name */
2662:Core/Src/FAT/ff.c **** 		fno->altname[0] = 0;					/* exFAT does not support SFN */
2663:Core/Src/FAT/ff.c **** 
2664:Core/Src/FAT/ff.c **** 		fno->fattrib = fs->dirbuf[XDIR_Attr] & AM_MASKX;		/* Attribute */
2665:Core/Src/FAT/ff.c **** 		fno->fsize = (fno->fattrib & AM_DIR) ? 0 : ld_qword(fs->dirbuf + XDIR_FileSize);	/* Size */
2666:Core/Src/FAT/ff.c **** 		fno->ftime = ld_word(fs->dirbuf + XDIR_ModTime + 0);	/* Time */
2667:Core/Src/FAT/ff.c **** 		fno->fdate = ld_word(fs->dirbuf + XDIR_ModTime + 2);	/* Date */
2668:Core/Src/FAT/ff.c **** 		return;
2669:Core/Src/FAT/ff.c **** 	} else
2670:Core/Src/FAT/ff.c **** #endif
2671:Core/Src/FAT/ff.c **** 	{	/* FAT/FAT32 volume */
2672:Core/Src/FAT/ff.c **** 		if (dp->blk_ofs != 0xFFFFFFFF) {	/* Get LFN if available */
2673:Core/Src/FAT/ff.c **** 			si = di = 0;
2674:Core/Src/FAT/ff.c **** 			hs = 0;
2675:Core/Src/FAT/ff.c **** 			while (fs->lfnbuf[si] != 0) {
2676:Core/Src/FAT/ff.c **** 				wc = fs->lfnbuf[si++];		/* Get an LFN character (UTF-16) */
2677:Core/Src/FAT/ff.c **** 				if (hs == 0 && IsSurrogate(wc)) {	/* Is it a surrogate? */
2678:Core/Src/FAT/ff.c **** 					hs = wc; continue;		/* Get low surrogate */
2679:Core/Src/FAT/ff.c **** 				}
2680:Core/Src/FAT/ff.c **** 				nw = put_utf((DWORD)hs << 16 | wc, &fno->fname[di], FF_LFN_BUF - di);	/* Store it in API encodi
2681:Core/Src/FAT/ff.c **** 				if (nw == 0) {				/* Buffer overflow or wrong char? */
2682:Core/Src/FAT/ff.c **** 					di = 0; break;
2683:Core/Src/FAT/ff.c **** 				}
2684:Core/Src/FAT/ff.c **** 				di += nw;
2685:Core/Src/FAT/ff.c **** 				hs = 0;
2686:Core/Src/FAT/ff.c **** 			}
2687:Core/Src/FAT/ff.c **** 			if (hs != 0) di = 0;	/* Broken surrogate pair? */
2688:Core/Src/FAT/ff.c **** 			fno->fname[di] = 0;		/* Terminate the LFN (null string means LFN is invalid) */
2689:Core/Src/FAT/ff.c **** 		}
2690:Core/Src/FAT/ff.c **** 	}
2691:Core/Src/FAT/ff.c **** 
2692:Core/Src/FAT/ff.c **** 	si = di = 0;
2693:Core/Src/FAT/ff.c **** 	while (si < 11) {		/* Get SFN from SFN entry */
2694:Core/Src/FAT/ff.c **** 		wc = dp->dir[si++];			/* Get a char */
2695:Core/Src/FAT/ff.c **** 		if (wc == ' ') continue;	/* Skip padding spaces */
2696:Core/Src/FAT/ff.c **** 		if (wc == RDDEM) wc = DDEM;	/* Restore replaced DDEM character */
2697:Core/Src/FAT/ff.c **** 		if (si == 9 && di < FF_SFN_BUF) fno->altname[di++] = '.';	/* Insert a . if extension is exist */
ARM GAS  C:\Users\HP-Admin\AppData\Local\Temp\ccY0w7x3.s 			page 57


2698:Core/Src/FAT/ff.c **** #if FF_LFN_UNICODE >= 1	/* Unicode output */
2699:Core/Src/FAT/ff.c **** 		if (dbc_1st((BYTE)wc) && si != 8 && si != 11 && dbc_2nd(dp->dir[si])) {	/* Make a DBC if needed *
2700:Core/Src/FAT/ff.c **** 			wc = wc << 8 | dp->dir[si++];
2701:Core/Src/FAT/ff.c **** 		}
2702:Core/Src/FAT/ff.c **** 		wc = ff_oem2uni(wc, CODEPAGE);		/* ANSI/OEM -> Unicode */
2703:Core/Src/FAT/ff.c **** 		if (wc == 0) {				/* Wrong char in the current code page? */
2704:Core/Src/FAT/ff.c **** 			di = 0; break;
2705:Core/Src/FAT/ff.c **** 		}
2706:Core/Src/FAT/ff.c **** 		nw = put_utf(wc, &fno->altname[di], FF_SFN_BUF - di);	/* Store it in API encoding */
2707:Core/Src/FAT/ff.c **** 		if (nw == 0) {				/* Buffer overflow? */
2708:Core/Src/FAT/ff.c **** 			di = 0; break;
2709:Core/Src/FAT/ff.c **** 		}
2710:Core/Src/FAT/ff.c **** 		di += nw;
2711:Core/Src/FAT/ff.c **** #else					/* ANSI/OEM output */
2712:Core/Src/FAT/ff.c **** 		fno->altname[di++] = (TCHAR)wc;	/* Store it without any conversion */
2713:Core/Src/FAT/ff.c **** #endif
2714:Core/Src/FAT/ff.c **** 	}
2715:Core/Src/FAT/ff.c **** 	fno->altname[di] = 0;	/* Terminate the SFN  (null string means SFN is invalid) */
2716:Core/Src/FAT/ff.c **** 
2717:Core/Src/FAT/ff.c **** 	if (fno->fname[0] == 0) {	/* If LFN is invalid, altname[] needs to be copied to fname[] */
2718:Core/Src/FAT/ff.c **** 		if (di == 0) {	/* If LFN and SFN both are invalid, this object is inaccessible */
2719:Core/Src/FAT/ff.c **** 			fno->fname[di++] = '\?';
2720:Core/Src/FAT/ff.c **** 		} else {
2721:Core/Src/FAT/ff.c **** 			for (si = di = 0, lcf = NS_BODY; fno->altname[si]; si++, di++) {	/* Copy altname[] to fname[] wi
2722:Core/Src/FAT/ff.c **** 				wc = (WCHAR)fno->altname[si];
2723:Core/Src/FAT/ff.c **** 				if (wc == '.') lcf = NS_EXT;
2724:Core/Src/FAT/ff.c **** 				if (IsUpper(wc) && (dp->dir[DIR_NTres] & lcf)) wc += 0x20;
2725:Core/Src/FAT/ff.c **** 				fno->fname[di] = (TCHAR)wc;
2726:Core/Src/FAT/ff.c **** 			}
2727:Core/Src/FAT/ff.c **** 		}
2728:Core/Src/FAT/ff.c **** 		fno->fname[di] = 0;	/* Terminate the LFN */
2729:Core/Src/FAT/ff.c **** 		if (!dp->dir[DIR_NTres]) fno->altname[0] = 0;	/* Altname is not needed if neither LFN nor case in
2730:Core/Src/FAT/ff.c **** 	}
2731:Core/Src/FAT/ff.c **** 
2732:Core/Src/FAT/ff.c **** #else	/* Non-LFN configuration */
2733:Core/Src/FAT/ff.c **** 	si = di = 0;
 498              		.loc 1 2733 10 view .LVU136
 499 000e 0022     		movs	r2, #0
 500              		.loc 1 2733 5 view .LVU137
 501 0010 1346     		mov	r3, r2
 502 0012 06E0     		b	.L32
 503              	.LVL58:
 504              	.L34:
2734:Core/Src/FAT/ff.c **** 	while (si < 11) {		/* Copy name body and extension */
2735:Core/Src/FAT/ff.c **** 		c = (TCHAR)dp->dir[si++];
2736:Core/Src/FAT/ff.c **** 		if (c == ' ') continue;		/* Skip padding spaces */
2737:Core/Src/FAT/ff.c **** 		if (c == RDDEM) c = DDEM;	/* Restore replaced DDEM character */
2738:Core/Src/FAT/ff.c **** 		if (si == 9) fno->fname[di++] = '.';/* Insert a . if extension is exist */
 505              		.loc 1 2738 3 is_stmt 1 view .LVU138
 506              		.loc 1 2738 6 is_stmt 0 view .LVU139
 507 0014 BCF1090F 		cmp	ip, #9
 508 0018 0FD0     		beq	.L39
 509              	.L35:
2739:Core/Src/FAT/ff.c **** 		fno->fname[di++] = c;
 510              		.loc 1 2739 3 is_stmt 1 view .LVU140
 511              	.LVL59:
 512              		.loc 1 2739 20 is_stmt 0 view .LVU141
ARM GAS  C:\Users\HP-Admin\AppData\Local\Temp\ccY0w7x3.s 			page 58


 513 001a A118     		adds	r1, r4, r2
 514 001c 4B72     		strb	r3, [r1, #9]
 515              		.loc 1 2739 16 view .LVU142
 516 001e 0132     		adds	r2, r2, #1
 517              	.LVL60:
 518              	.L33:
 519              		.loc 1 2739 16 view .LVU143
 520 0020 6346     		mov	r3, ip
 521              	.LVL61:
 522              	.L32:
2734:Core/Src/FAT/ff.c **** 	while (si < 11) {		/* Copy name body and extension */
 523              		.loc 1 2734 8 is_stmt 1 view .LVU144
 524 0022 0A2B     		cmp	r3, #10
 525 0024 0ED8     		bhi	.L40
2735:Core/Src/FAT/ff.c **** 		if (c == ' ') continue;		/* Skip padding spaces */
 526              		.loc 1 2735 3 view .LVU145
2735:Core/Src/FAT/ff.c **** 		if (c == ' ') continue;		/* Skip padding spaces */
 527              		.loc 1 2735 24 is_stmt 0 view .LVU146
 528 0026 03F1010C 		add	ip, r3, #1
 529              	.LVL62:
2735:Core/Src/FAT/ff.c **** 		if (c == ' ') continue;		/* Skip padding spaces */
 530              		.loc 1 2735 5 view .LVU147
 531 002a E969     		ldr	r1, [r5, #28]
 532 002c CB5C     		ldrb	r3, [r1, r3]	@ zero_extendqisi2
 533              	.LVL63:
2736:Core/Src/FAT/ff.c **** 		if (c == RDDEM) c = DDEM;	/* Restore replaced DDEM character */
 534              		.loc 1 2736 3 is_stmt 1 view .LVU148
2736:Core/Src/FAT/ff.c **** 		if (c == RDDEM) c = DDEM;	/* Restore replaced DDEM character */
 535              		.loc 1 2736 6 is_stmt 0 view .LVU149
 536 002e 202B     		cmp	r3, #32
 537 0030 F6D0     		beq	.L33
2737:Core/Src/FAT/ff.c **** 		if (si == 9) fno->fname[di++] = '.';/* Insert a . if extension is exist */
 538              		.loc 1 2737 3 is_stmt 1 view .LVU150
2737:Core/Src/FAT/ff.c **** 		if (si == 9) fno->fname[di++] = '.';/* Insert a . if extension is exist */
 539              		.loc 1 2737 6 is_stmt 0 view .LVU151
 540 0032 052B     		cmp	r3, #5
 541 0034 EED1     		bne	.L34
2737:Core/Src/FAT/ff.c **** 		if (si == 9) fno->fname[di++] = '.';/* Insert a . if extension is exist */
 542              		.loc 1 2737 21 view .LVU152
 543 0036 E523     		movs	r3, #229
 544              	.LVL64:
2737:Core/Src/FAT/ff.c **** 		if (si == 9) fno->fname[di++] = '.';/* Insert a . if extension is exist */
 545              		.loc 1 2737 21 view .LVU153
 546 0038 ECE7     		b	.L34
 547              	.LVL65:
 548              	.L39:
2738:Core/Src/FAT/ff.c **** 		fno->fname[di++] = c;
 549              		.loc 1 2738 16 is_stmt 1 discriminator 1 view .LVU154
2738:Core/Src/FAT/ff.c **** 		fno->fname[di++] = c;
 550              		.loc 1 2738 33 is_stmt 0 discriminator 1 view .LVU155
 551 003a A118     		adds	r1, r4, r2
 552 003c 2E20     		movs	r0, #46
 553 003e 4872     		strb	r0, [r1, #9]
2738:Core/Src/FAT/ff.c **** 		fno->fname[di++] = c;
 554              		.loc 1 2738 29 discriminator 1 view .LVU156
 555 0040 0132     		adds	r2, r2, #1
 556              	.LVL66:
ARM GAS  C:\Users\HP-Admin\AppData\Local\Temp\ccY0w7x3.s 			page 59


2738:Core/Src/FAT/ff.c **** 		fno->fname[di++] = c;
 557              		.loc 1 2738 29 discriminator 1 view .LVU157
 558 0042 EAE7     		b	.L35
 559              	.LVL67:
 560              	.L40:
2740:Core/Src/FAT/ff.c **** 	}
2741:Core/Src/FAT/ff.c **** 	fno->fname[di] = 0;		/* Terminate the SFN */
 561              		.loc 1 2741 2 is_stmt 1 view .LVU158
 562              		.loc 1 2741 17 is_stmt 0 view .LVU159
 563 0044 2244     		add	r2, r2, r4
 564              	.LVL68:
 565              		.loc 1 2741 17 view .LVU160
 566 0046 0023     		movs	r3, #0
 567              	.LVL69:
 568              		.loc 1 2741 17 view .LVU161
 569 0048 5372     		strb	r3, [r2, #9]
2742:Core/Src/FAT/ff.c **** #endif
2743:Core/Src/FAT/ff.c **** 
2744:Core/Src/FAT/ff.c **** 	fno->fattrib = dp->dir[DIR_Attr] & AM_MASK;			/* Attribute */
 570              		.loc 1 2744 2 is_stmt 1 view .LVU162
 571              		.loc 1 2744 19 is_stmt 0 view .LVU163
 572 004a EB69     		ldr	r3, [r5, #28]
 573              		.loc 1 2744 24 view .LVU164
 574 004c DB7A     		ldrb	r3, [r3, #11]	@ zero_extendqisi2
 575              		.loc 1 2744 35 view .LVU165
 576 004e 03F03F03 		and	r3, r3, #63
 577              		.loc 1 2744 15 view .LVU166
 578 0052 2372     		strb	r3, [r4, #8]
2745:Core/Src/FAT/ff.c **** 	fno->fsize = ld_dword(dp->dir + DIR_FileSize);		/* Size */
 579              		.loc 1 2745 2 is_stmt 1 view .LVU167
 580              		.loc 1 2745 26 is_stmt 0 view .LVU168
 581 0054 E869     		ldr	r0, [r5, #28]
 582              		.loc 1 2745 15 view .LVU169
 583 0056 1C30     		adds	r0, r0, #28
 584 0058 FFF7FEFF 		bl	ld_dword
 585              	.LVL70:
 586              		.loc 1 2745 13 view .LVU170
 587 005c 2060     		str	r0, [r4]
2746:Core/Src/FAT/ff.c **** 	fno->ftime = ld_word(dp->dir + DIR_ModTime + 0);	/* Time */
 588              		.loc 1 2746 2 is_stmt 1 view .LVU171
 589              		.loc 1 2746 25 is_stmt 0 view .LVU172
 590 005e E869     		ldr	r0, [r5, #28]
 591              		.loc 1 2746 15 view .LVU173
 592 0060 1630     		adds	r0, r0, #22
 593 0062 FFF7FEFF 		bl	ld_word
 594              	.LVL71:
 595              		.loc 1 2746 13 view .LVU174
 596 0066 E080     		strh	r0, [r4, #6]	@ movhi
2747:Core/Src/FAT/ff.c **** 	fno->fdate = ld_word(dp->dir + DIR_ModTime + 2);	/* Date */
 597              		.loc 1 2747 2 is_stmt 1 view .LVU175
 598              		.loc 1 2747 25 is_stmt 0 view .LVU176
 599 0068 E869     		ldr	r0, [r5, #28]
 600              		.loc 1 2747 15 view .LVU177
 601 006a 1830     		adds	r0, r0, #24
 602 006c FFF7FEFF 		bl	ld_word
 603              	.LVL72:
 604              		.loc 1 2747 13 view .LVU178
ARM GAS  C:\Users\HP-Admin\AppData\Local\Temp\ccY0w7x3.s 			page 60


 605 0070 A080     		strh	r0, [r4, #4]	@ movhi
 606              	.LVL73:
 607              	.L30:
2748:Core/Src/FAT/ff.c **** }
 608              		.loc 1 2748 1 view .LVU179
 609 0072 38BD     		pop	{r3, r4, r5, pc}
 610              		.cfi_endproc
 611              	.LFE24:
 613              		.section	.text.get_ldnumber,"ax",%progbits
 614              		.align	1
 615              		.syntax unified
 616              		.thumb
 617              		.thumb_func
 619              	get_ldnumber:
 620              	.LVL74:
 621              	.LFB27:
2749:Core/Src/FAT/ff.c **** 
2750:Core/Src/FAT/ff.c **** #endif /* FF_FS_MINIMIZE <= 1 || FF_FS_RPATH >= 2 */
2751:Core/Src/FAT/ff.c **** 
2752:Core/Src/FAT/ff.c **** 
2753:Core/Src/FAT/ff.c **** 
2754:Core/Src/FAT/ff.c **** #if FF_USE_FIND && FF_FS_MINIMIZE <= 1
2755:Core/Src/FAT/ff.c **** /*-----------------------------------------------------------------------*/
2756:Core/Src/FAT/ff.c **** /* Pattern matching                                                      */
2757:Core/Src/FAT/ff.c **** /*-----------------------------------------------------------------------*/
2758:Core/Src/FAT/ff.c **** 
2759:Core/Src/FAT/ff.c **** #define FIND_RECURS	4	/* Maximum number of wildcard terms in the pattern to limit recursion */
2760:Core/Src/FAT/ff.c **** 
2761:Core/Src/FAT/ff.c **** 
2762:Core/Src/FAT/ff.c **** static DWORD get_achar (	/* Get a character and advance ptr */
2763:Core/Src/FAT/ff.c **** 	const TCHAR** ptr		/* Pointer to pointer to the ANSI/OEM or Unicode string */
2764:Core/Src/FAT/ff.c **** )
2765:Core/Src/FAT/ff.c **** {
2766:Core/Src/FAT/ff.c **** 	DWORD chr;
2767:Core/Src/FAT/ff.c **** 
2768:Core/Src/FAT/ff.c **** 
2769:Core/Src/FAT/ff.c **** #if FF_USE_LFN && FF_LFN_UNICODE >= 1	/* Unicode input */
2770:Core/Src/FAT/ff.c **** 	chr = tchar2uni(ptr);
2771:Core/Src/FAT/ff.c **** 	if (chr == 0xFFFFFFFF) chr = 0;		/* Wrong UTF encoding is recognized as end of the string */
2772:Core/Src/FAT/ff.c **** 	chr = ff_wtoupper(chr);
2773:Core/Src/FAT/ff.c **** 
2774:Core/Src/FAT/ff.c **** #else									/* ANSI/OEM input */
2775:Core/Src/FAT/ff.c **** 	chr = (BYTE)*(*ptr)++;				/* Get a byte */
2776:Core/Src/FAT/ff.c **** 	if (IsLower(chr)) chr -= 0x20;		/* To upper ASCII char */
2777:Core/Src/FAT/ff.c **** #if FF_CODE_PAGE == 0
2778:Core/Src/FAT/ff.c **** 	if (ExCvt && chr >= 0x80) chr = ExCvt[chr - 0x80];	/* To upper SBCS extended char */
2779:Core/Src/FAT/ff.c **** #elif FF_CODE_PAGE < 900
2780:Core/Src/FAT/ff.c **** 	if (chr >= 0x80) chr = ExCvt[chr - 0x80];	/* To upper SBCS extended char */
2781:Core/Src/FAT/ff.c **** #endif
2782:Core/Src/FAT/ff.c **** #if FF_CODE_PAGE == 0 || FF_CODE_PAGE >= 900
2783:Core/Src/FAT/ff.c **** 	if (dbc_1st((BYTE)chr)) {	/* Get DBC 2nd byte if needed */
2784:Core/Src/FAT/ff.c **** 		chr = dbc_2nd((BYTE)**ptr) ? chr << 8 | (BYTE)*(*ptr)++ : 0;
2785:Core/Src/FAT/ff.c **** 	}
2786:Core/Src/FAT/ff.c **** #endif
2787:Core/Src/FAT/ff.c **** 
2788:Core/Src/FAT/ff.c **** #endif
2789:Core/Src/FAT/ff.c **** 	return chr;
ARM GAS  C:\Users\HP-Admin\AppData\Local\Temp\ccY0w7x3.s 			page 61


2790:Core/Src/FAT/ff.c **** }
2791:Core/Src/FAT/ff.c **** 
2792:Core/Src/FAT/ff.c **** 
2793:Core/Src/FAT/ff.c **** static int pattern_match (	/* 0:mismatched, 1:matched */
2794:Core/Src/FAT/ff.c **** 	const TCHAR* pat,	/* Matching pattern */
2795:Core/Src/FAT/ff.c **** 	const TCHAR* nam,	/* String to be tested */
2796:Core/Src/FAT/ff.c **** 	UINT skip,			/* Number of pre-skip chars (number of ?s, b8:infinite (* specified)) */
2797:Core/Src/FAT/ff.c **** 	UINT recur			/* Recursion count */
2798:Core/Src/FAT/ff.c **** )
2799:Core/Src/FAT/ff.c **** {
2800:Core/Src/FAT/ff.c **** 	const TCHAR *pptr;
2801:Core/Src/FAT/ff.c **** 	const TCHAR *nptr;
2802:Core/Src/FAT/ff.c **** 	DWORD pchr, nchr;
2803:Core/Src/FAT/ff.c **** 	UINT sk;
2804:Core/Src/FAT/ff.c **** 
2805:Core/Src/FAT/ff.c **** 
2806:Core/Src/FAT/ff.c **** 	while ((skip & 0xFF) != 0) {		/* Pre-skip name chars */
2807:Core/Src/FAT/ff.c **** 		if (!get_achar(&nam)) return 0;	/* Branch mismatched if less name chars */
2808:Core/Src/FAT/ff.c **** 		skip--;
2809:Core/Src/FAT/ff.c **** 	}
2810:Core/Src/FAT/ff.c **** 	if (*pat == 0 && skip) return 1;	/* Matched? (short circuit) */
2811:Core/Src/FAT/ff.c **** 
2812:Core/Src/FAT/ff.c **** 	do {
2813:Core/Src/FAT/ff.c **** 		pptr = pat; nptr = nam;			/* Top of pattern and name to match */
2814:Core/Src/FAT/ff.c **** 		for (;;) {
2815:Core/Src/FAT/ff.c **** 			if (*pptr == '\?' || *pptr == '*') {	/* Wildcard term? */
2816:Core/Src/FAT/ff.c **** 				if (recur == 0) return 0;	/* Too many wildcard terms? */
2817:Core/Src/FAT/ff.c **** 				sk = 0;
2818:Core/Src/FAT/ff.c **** 				do {	/* Analyze the wildcard term */
2819:Core/Src/FAT/ff.c **** 					if (*pptr++ == '\?') {
2820:Core/Src/FAT/ff.c **** 						sk++;
2821:Core/Src/FAT/ff.c **** 					} else {
2822:Core/Src/FAT/ff.c **** 						sk |= 0x100;
2823:Core/Src/FAT/ff.c **** 					}
2824:Core/Src/FAT/ff.c **** 				} while (*pptr == '\?' || *pptr == '*');
2825:Core/Src/FAT/ff.c **** 				if (pattern_match(pptr, nptr, sk, recur - 1)) return 1;	/* Test new branch (recursive call) */
2826:Core/Src/FAT/ff.c **** 				nchr = *nptr; break;	/* Branch mismatched */
2827:Core/Src/FAT/ff.c **** 			}
2828:Core/Src/FAT/ff.c **** 			pchr = get_achar(&pptr);	/* Get a pattern char */
2829:Core/Src/FAT/ff.c **** 			nchr = get_achar(&nptr);	/* Get a name char */
2830:Core/Src/FAT/ff.c **** 			if (pchr != nchr) break;	/* Branch mismatched? */
2831:Core/Src/FAT/ff.c **** 			if (pchr == 0) return 1;	/* Branch matched? (matched at end of both strings) */
2832:Core/Src/FAT/ff.c **** 		}
2833:Core/Src/FAT/ff.c **** 		get_achar(&nam);			/* nam++ */
2834:Core/Src/FAT/ff.c **** 	} while (skip && nchr);		/* Retry until end of name if infinite search is specified */
2835:Core/Src/FAT/ff.c **** 
2836:Core/Src/FAT/ff.c **** 	return 0;
2837:Core/Src/FAT/ff.c **** }
2838:Core/Src/FAT/ff.c **** 
2839:Core/Src/FAT/ff.c **** #endif /* FF_USE_FIND && FF_FS_MINIMIZE <= 1 */
2840:Core/Src/FAT/ff.c **** 
2841:Core/Src/FAT/ff.c **** 
2842:Core/Src/FAT/ff.c **** 
2843:Core/Src/FAT/ff.c **** /*-----------------------------------------------------------------------*/
2844:Core/Src/FAT/ff.c **** /* Pick a top segment and create the object name in directory form       */
2845:Core/Src/FAT/ff.c **** /*-----------------------------------------------------------------------*/
2846:Core/Src/FAT/ff.c **** 
ARM GAS  C:\Users\HP-Admin\AppData\Local\Temp\ccY0w7x3.s 			page 62


2847:Core/Src/FAT/ff.c **** static FRESULT create_name (	/* FR_OK: successful, FR_INVALID_NAME: could not create */
2848:Core/Src/FAT/ff.c **** 	DIR* dp,					/* Pointer to the directory object */
2849:Core/Src/FAT/ff.c **** 	const TCHAR** path			/* Pointer to pointer to the segment in the path string */
2850:Core/Src/FAT/ff.c **** )
2851:Core/Src/FAT/ff.c **** {
2852:Core/Src/FAT/ff.c **** #if FF_USE_LFN		/* LFN configuration */
2853:Core/Src/FAT/ff.c **** 	BYTE b, cf;
2854:Core/Src/FAT/ff.c **** 	WCHAR wc;
2855:Core/Src/FAT/ff.c **** 	WCHAR *lfn;
2856:Core/Src/FAT/ff.c **** 	const TCHAR* p;
2857:Core/Src/FAT/ff.c **** 	DWORD uc;
2858:Core/Src/FAT/ff.c **** 	UINT i, ni, si, di;
2859:Core/Src/FAT/ff.c **** 
2860:Core/Src/FAT/ff.c **** 
2861:Core/Src/FAT/ff.c **** 	/* Create LFN into LFN working buffer */
2862:Core/Src/FAT/ff.c **** 	p = *path; lfn = dp->obj.fs->lfnbuf; di = 0;
2863:Core/Src/FAT/ff.c **** 	for (;;) {
2864:Core/Src/FAT/ff.c **** 		uc = tchar2uni(&p);			/* Get a character */
2865:Core/Src/FAT/ff.c **** 		if (uc == 0xFFFFFFFF) return FR_INVALID_NAME;		/* Invalid code or UTF decode error */
2866:Core/Src/FAT/ff.c **** 		if (uc >= 0x10000) lfn[di++] = (WCHAR)(uc >> 16);	/* Store high surrogate if needed */
2867:Core/Src/FAT/ff.c **** 		wc = (WCHAR)uc;
2868:Core/Src/FAT/ff.c **** 		if (wc < ' ' || IsSeparator(wc)) break;	/* Break if end of the path or a separator is found */
2869:Core/Src/FAT/ff.c **** 		if (wc < 0x80 && strchr("*:<>|\"\?\x7F", (int)wc)) return FR_INVALID_NAME;	/* Reject illegal char
2870:Core/Src/FAT/ff.c **** 		if (di >= FF_MAX_LFN) return FR_INVALID_NAME;	/* Reject too long name */
2871:Core/Src/FAT/ff.c **** 		lfn[di++] = wc;				/* Store the Unicode character */
2872:Core/Src/FAT/ff.c **** 	}
2873:Core/Src/FAT/ff.c **** 	if (wc < ' ') {				/* Stopped at end of the path? */
2874:Core/Src/FAT/ff.c **** 		cf = NS_LAST;			/* Last segment */
2875:Core/Src/FAT/ff.c **** 	} else {					/* Stopped at a separator */
2876:Core/Src/FAT/ff.c **** 		while (IsSeparator(*p)) p++;	/* Skip duplicated separators if exist */
2877:Core/Src/FAT/ff.c **** 		cf = 0;					/* Next segment may follow */
2878:Core/Src/FAT/ff.c **** 		if (IsTerminator(*p)) cf = NS_LAST;	/* Ignore terminating separator */
2879:Core/Src/FAT/ff.c **** 	}
2880:Core/Src/FAT/ff.c **** 	*path = p;					/* Return pointer to the next segment */
2881:Core/Src/FAT/ff.c **** 
2882:Core/Src/FAT/ff.c **** #if FF_FS_RPATH != 0
2883:Core/Src/FAT/ff.c **** 	if ((di == 1 && lfn[di - 1] == '.') ||
2884:Core/Src/FAT/ff.c **** 		(di == 2 && lfn[di - 1] == '.' && lfn[di - 2] == '.')) {	/* Is this segment a dot name? */
2885:Core/Src/FAT/ff.c **** 		lfn[di] = 0;
2886:Core/Src/FAT/ff.c **** 		for (i = 0; i < 11; i++) {	/* Create dot name for SFN entry */
2887:Core/Src/FAT/ff.c **** 			dp->fn[i] = (i < di) ? '.' : ' ';
2888:Core/Src/FAT/ff.c **** 		}
2889:Core/Src/FAT/ff.c **** 		dp->fn[i] = cf | NS_DOT;	/* This is a dot entry */
2890:Core/Src/FAT/ff.c **** 		return FR_OK;
2891:Core/Src/FAT/ff.c **** 	}
2892:Core/Src/FAT/ff.c **** #endif
2893:Core/Src/FAT/ff.c **** 	while (di) {					/* Snip off trailing spaces and dots if exist */
2894:Core/Src/FAT/ff.c **** 		wc = lfn[di - 1];
2895:Core/Src/FAT/ff.c **** 		if (wc != ' ' && wc != '.') break;
2896:Core/Src/FAT/ff.c **** 		di--;
2897:Core/Src/FAT/ff.c **** 	}
2898:Core/Src/FAT/ff.c **** 	lfn[di] = 0;							/* LFN is created into the working buffer */
2899:Core/Src/FAT/ff.c **** 	if (di == 0) return FR_INVALID_NAME;	/* Reject null name */
2900:Core/Src/FAT/ff.c **** 
2901:Core/Src/FAT/ff.c **** 	/* Create SFN in directory form */
2902:Core/Src/FAT/ff.c **** 	for (si = 0; lfn[si] == ' '; si++) ;	/* Remove leading spaces */
2903:Core/Src/FAT/ff.c **** 	if (si > 0 || lfn[si] == '.') cf |= NS_LOSS | NS_LFN;	/* Is there any leading space or dot? */
ARM GAS  C:\Users\HP-Admin\AppData\Local\Temp\ccY0w7x3.s 			page 63


2904:Core/Src/FAT/ff.c **** 	while (di > 0 && lfn[di - 1] != '.') di--;	/* Find last dot (di<=si: no extension) */
2905:Core/Src/FAT/ff.c **** 
2906:Core/Src/FAT/ff.c **** 	memset(dp->fn, ' ', 11);
2907:Core/Src/FAT/ff.c **** 	i = b = 0; ni = 8;
2908:Core/Src/FAT/ff.c **** 	for (;;) {
2909:Core/Src/FAT/ff.c **** 		wc = lfn[si++];					/* Get an LFN character */
2910:Core/Src/FAT/ff.c **** 		if (wc == 0) break;				/* Break on end of the LFN */
2911:Core/Src/FAT/ff.c **** 		if (wc == ' ' || (wc == '.' && si != di)) {	/* Remove embedded spaces and dots */
2912:Core/Src/FAT/ff.c **** 			cf |= NS_LOSS | NS_LFN;
2913:Core/Src/FAT/ff.c **** 			continue;
2914:Core/Src/FAT/ff.c **** 		}
2915:Core/Src/FAT/ff.c **** 
2916:Core/Src/FAT/ff.c **** 		if (i >= ni || si == di) {		/* End of field? */
2917:Core/Src/FAT/ff.c **** 			if (ni == 11) {				/* Name extension overflow? */
2918:Core/Src/FAT/ff.c **** 				cf |= NS_LOSS | NS_LFN;
2919:Core/Src/FAT/ff.c **** 				break;
2920:Core/Src/FAT/ff.c **** 			}
2921:Core/Src/FAT/ff.c **** 			if (si != di) cf |= NS_LOSS | NS_LFN;	/* Name body overflow? */
2922:Core/Src/FAT/ff.c **** 			if (si > di) break;						/* No name extension? */
2923:Core/Src/FAT/ff.c **** 			si = di; i = 8; ni = 11; b <<= 2;		/* Enter name extension */
2924:Core/Src/FAT/ff.c **** 			continue;
2925:Core/Src/FAT/ff.c **** 		}
2926:Core/Src/FAT/ff.c **** 
2927:Core/Src/FAT/ff.c **** 		if (wc >= 0x80) {	/* Is this an extended character? */
2928:Core/Src/FAT/ff.c **** 			cf |= NS_LFN;	/* LFN entry needs to be created */
2929:Core/Src/FAT/ff.c **** #if FF_CODE_PAGE == 0
2930:Core/Src/FAT/ff.c **** 			if (ExCvt) {	/* In SBCS cfg */
2931:Core/Src/FAT/ff.c **** 				wc = ff_uni2oem(wc, CODEPAGE);			/* Unicode ==> ANSI/OEM code */
2932:Core/Src/FAT/ff.c **** 				if (wc & 0x80) wc = ExCvt[wc & 0x7F];	/* Convert extended character to upper (SBCS) */
2933:Core/Src/FAT/ff.c **** 			} else {		/* In DBCS cfg */
2934:Core/Src/FAT/ff.c **** 				wc = ff_uni2oem(ff_wtoupper(wc), CODEPAGE);	/* Unicode ==> Up-convert ==> ANSI/OEM code */
2935:Core/Src/FAT/ff.c **** 			}
2936:Core/Src/FAT/ff.c **** #elif FF_CODE_PAGE < 900	/* In SBCS cfg */
2937:Core/Src/FAT/ff.c **** 			wc = ff_uni2oem(wc, CODEPAGE);			/* Unicode ==> ANSI/OEM code */
2938:Core/Src/FAT/ff.c **** 			if (wc & 0x80) wc = ExCvt[wc & 0x7F];	/* Convert extended character to upper (SBCS) */
2939:Core/Src/FAT/ff.c **** #else						/* In DBCS cfg */
2940:Core/Src/FAT/ff.c **** 			wc = ff_uni2oem(ff_wtoupper(wc), CODEPAGE);	/* Unicode ==> Up-convert ==> ANSI/OEM code */
2941:Core/Src/FAT/ff.c **** #endif
2942:Core/Src/FAT/ff.c **** 		}
2943:Core/Src/FAT/ff.c **** 
2944:Core/Src/FAT/ff.c **** 		if (wc >= 0x100) {				/* Is this a DBC? */
2945:Core/Src/FAT/ff.c **** 			if (i >= ni - 1) {			/* Field overflow? */
2946:Core/Src/FAT/ff.c **** 				cf |= NS_LOSS | NS_LFN;
2947:Core/Src/FAT/ff.c **** 				i = ni; continue;		/* Next field */
2948:Core/Src/FAT/ff.c **** 			}
2949:Core/Src/FAT/ff.c **** 			dp->fn[i++] = (BYTE)(wc >> 8);	/* Put 1st byte */
2950:Core/Src/FAT/ff.c **** 		} else {						/* SBC */
2951:Core/Src/FAT/ff.c **** 			if (wc == 0 || strchr("+,;=[]", (int)wc)) {	/* Replace illegal characters for SFN */
2952:Core/Src/FAT/ff.c **** 				wc = '_'; cf |= NS_LOSS | NS_LFN;/* Lossy conversion */
2953:Core/Src/FAT/ff.c **** 			} else {
2954:Core/Src/FAT/ff.c **** 				if (IsUpper(wc)) {		/* ASCII upper case? */
2955:Core/Src/FAT/ff.c **** 					b |= 2;
2956:Core/Src/FAT/ff.c **** 				}
2957:Core/Src/FAT/ff.c **** 				if (IsLower(wc)) {		/* ASCII lower case? */
2958:Core/Src/FAT/ff.c **** 					b |= 1; wc -= 0x20;
2959:Core/Src/FAT/ff.c **** 				}
2960:Core/Src/FAT/ff.c **** 			}
ARM GAS  C:\Users\HP-Admin\AppData\Local\Temp\ccY0w7x3.s 			page 64


2961:Core/Src/FAT/ff.c **** 		}
2962:Core/Src/FAT/ff.c **** 		dp->fn[i++] = (BYTE)wc;
2963:Core/Src/FAT/ff.c **** 	}
2964:Core/Src/FAT/ff.c **** 
2965:Core/Src/FAT/ff.c **** 	if (dp->fn[0] == DDEM) dp->fn[0] = RDDEM;	/* If the first character collides with DDEM, replace it
2966:Core/Src/FAT/ff.c **** 
2967:Core/Src/FAT/ff.c **** 	if (ni == 8) b <<= 2;				/* Shift capital flags if no extension */
2968:Core/Src/FAT/ff.c **** 	if ((b & 0x0C) == 0x0C || (b & 0x03) == 0x03) cf |= NS_LFN;	/* LFN entry needs to be created if co
2969:Core/Src/FAT/ff.c **** 	if (!(cf & NS_LFN)) {				/* When LFN is in 8.3 format without extended character, NT flags are cre
2970:Core/Src/FAT/ff.c **** 		if (b & 0x01) cf |= NS_EXT;		/* NT flag (Extension has small capital letters only) */
2971:Core/Src/FAT/ff.c **** 		if (b & 0x04) cf |= NS_BODY;	/* NT flag (Body has small capital letters only) */
2972:Core/Src/FAT/ff.c **** 	}
2973:Core/Src/FAT/ff.c **** 
2974:Core/Src/FAT/ff.c **** 	dp->fn[NSFLAG] = cf;	/* SFN is created into dp->fn[] */
2975:Core/Src/FAT/ff.c **** 
2976:Core/Src/FAT/ff.c **** 	return FR_OK;
2977:Core/Src/FAT/ff.c **** 
2978:Core/Src/FAT/ff.c **** 
2979:Core/Src/FAT/ff.c **** #else	/* FF_USE_LFN : Non-LFN configuration */
2980:Core/Src/FAT/ff.c **** 	BYTE c, d;
2981:Core/Src/FAT/ff.c **** 	BYTE *sfn;
2982:Core/Src/FAT/ff.c **** 	UINT ni, si, i;
2983:Core/Src/FAT/ff.c **** 	const char *p;
2984:Core/Src/FAT/ff.c **** 
2985:Core/Src/FAT/ff.c **** 	/* Create file name in directory form */
2986:Core/Src/FAT/ff.c **** 	p = *path; sfn = dp->fn;
2987:Core/Src/FAT/ff.c **** 	memset(sfn, ' ', 11);
2988:Core/Src/FAT/ff.c **** 	si = i = 0; ni = 8;
2989:Core/Src/FAT/ff.c **** #if FF_FS_RPATH != 0
2990:Core/Src/FAT/ff.c **** 	if (p[si] == '.') { /* Is this a dot entry? */
2991:Core/Src/FAT/ff.c **** 		for (;;) {
2992:Core/Src/FAT/ff.c **** 			c = (BYTE)p[si++];
2993:Core/Src/FAT/ff.c **** 			if (c != '.' || si >= 3) break;
2994:Core/Src/FAT/ff.c **** 			sfn[i++] = c;
2995:Core/Src/FAT/ff.c **** 		}
2996:Core/Src/FAT/ff.c **** 		if (!IsSeparator(c) && c > ' ') return FR_INVALID_NAME;
2997:Core/Src/FAT/ff.c **** 		*path = p + si;					/* Return pointer to the next segment */
2998:Core/Src/FAT/ff.c **** 		sfn[NSFLAG] = (c <= ' ') ? NS_LAST | NS_DOT : NS_DOT;	/* Set last segment flag if end of the path
2999:Core/Src/FAT/ff.c **** 		return FR_OK;
3000:Core/Src/FAT/ff.c **** 	}
3001:Core/Src/FAT/ff.c **** #endif
3002:Core/Src/FAT/ff.c **** 	for (;;) {
3003:Core/Src/FAT/ff.c **** 		c = (BYTE)p[si++];				/* Get a byte */
3004:Core/Src/FAT/ff.c **** 		if (c <= ' ') break; 			/* Break if end of the path name */
3005:Core/Src/FAT/ff.c **** 		if (IsSeparator(c)) {			/* Break if a separator is found */
3006:Core/Src/FAT/ff.c **** 			while (IsSeparator(p[si])) si++;	/* Skip duplicated separator if exist */
3007:Core/Src/FAT/ff.c **** 			break;
3008:Core/Src/FAT/ff.c **** 		}
3009:Core/Src/FAT/ff.c **** 		if (c == '.' || i >= ni) {		/* End of body or field overflow? */
3010:Core/Src/FAT/ff.c **** 			if (ni == 11 || c != '.') return FR_INVALID_NAME;	/* Field overflow or invalid dot? */
3011:Core/Src/FAT/ff.c **** 			i = 8; ni = 11;				/* Enter file extension field */
3012:Core/Src/FAT/ff.c **** 			continue;
3013:Core/Src/FAT/ff.c **** 		}
3014:Core/Src/FAT/ff.c **** #if FF_CODE_PAGE == 0
3015:Core/Src/FAT/ff.c **** 		if (ExCvt && c >= 0x80) {		/* Is SBC extended character? */
3016:Core/Src/FAT/ff.c **** 			c = ExCvt[c & 0x7F];		/* To upper SBC extended character */
3017:Core/Src/FAT/ff.c **** 		}
ARM GAS  C:\Users\HP-Admin\AppData\Local\Temp\ccY0w7x3.s 			page 65


3018:Core/Src/FAT/ff.c **** #elif FF_CODE_PAGE < 900
3019:Core/Src/FAT/ff.c **** 		if (c >= 0x80) {				/* Is SBC extended character? */
3020:Core/Src/FAT/ff.c **** 			c = ExCvt[c & 0x7F];		/* To upper SBC extended character */
3021:Core/Src/FAT/ff.c **** 		}
3022:Core/Src/FAT/ff.c **** #endif
3023:Core/Src/FAT/ff.c **** 		if (dbc_1st(c)) {				/* Check if it is a DBC 1st byte */
3024:Core/Src/FAT/ff.c **** 			d = (BYTE)p[si++];			/* Get 2nd byte */
3025:Core/Src/FAT/ff.c **** 			if (!dbc_2nd(d) || i >= ni - 1) return FR_INVALID_NAME;	/* Reject invalid DBC */
3026:Core/Src/FAT/ff.c **** 			sfn[i++] = c;
3027:Core/Src/FAT/ff.c **** 			sfn[i++] = d;
3028:Core/Src/FAT/ff.c **** 		} else {						/* SBC */
3029:Core/Src/FAT/ff.c **** 			if (strchr("*+,:;<=>[]|\"\?\x7F", (int)c)) return FR_INVALID_NAME;	/* Reject illegal chrs for SF
3030:Core/Src/FAT/ff.c **** 			if (IsLower(c)) c -= 0x20;	/* To upper */
3031:Core/Src/FAT/ff.c **** 			sfn[i++] = c;
3032:Core/Src/FAT/ff.c **** 		}
3033:Core/Src/FAT/ff.c **** 	}
3034:Core/Src/FAT/ff.c **** 	*path = &p[si];						/* Return pointer to the next segment */
3035:Core/Src/FAT/ff.c **** 	if (i == 0) return FR_INVALID_NAME;	/* Reject nul string */
3036:Core/Src/FAT/ff.c **** 
3037:Core/Src/FAT/ff.c **** 	if (sfn[0] == DDEM) sfn[0] = RDDEM;	/* If the first character collides with DDEM, replace it with 
3038:Core/Src/FAT/ff.c **** 	sfn[NSFLAG] = (c <= ' ' || p[si] <= ' ') ? NS_LAST : 0;	/* Set last segment flag if end of the pat
3039:Core/Src/FAT/ff.c **** 
3040:Core/Src/FAT/ff.c **** 	return FR_OK;
3041:Core/Src/FAT/ff.c **** #endif /* FF_USE_LFN */
3042:Core/Src/FAT/ff.c **** }
3043:Core/Src/FAT/ff.c **** 
3044:Core/Src/FAT/ff.c **** 
3045:Core/Src/FAT/ff.c **** 
3046:Core/Src/FAT/ff.c **** 
3047:Core/Src/FAT/ff.c **** /*-----------------------------------------------------------------------*/
3048:Core/Src/FAT/ff.c **** /* Follow a file path                                                    */
3049:Core/Src/FAT/ff.c **** /*-----------------------------------------------------------------------*/
3050:Core/Src/FAT/ff.c **** 
3051:Core/Src/FAT/ff.c **** static FRESULT follow_path (	/* FR_OK(0): successful, !=0: error code */
3052:Core/Src/FAT/ff.c **** 	DIR* dp,					/* Directory object to return last directory and found object */
3053:Core/Src/FAT/ff.c **** 	const TCHAR* path			/* Full-path string to find a file or directory */
3054:Core/Src/FAT/ff.c **** )
3055:Core/Src/FAT/ff.c **** {
3056:Core/Src/FAT/ff.c **** 	FRESULT res;
3057:Core/Src/FAT/ff.c **** 	BYTE ns;
3058:Core/Src/FAT/ff.c **** 	FATFS *fs = dp->obj.fs;
3059:Core/Src/FAT/ff.c **** 
3060:Core/Src/FAT/ff.c **** 
3061:Core/Src/FAT/ff.c **** #if FF_FS_RPATH != 0
3062:Core/Src/FAT/ff.c **** 	if (!IsSeparator(*path) && (FF_STR_VOLUME_ID != 2 || !IsTerminator(*path))) {	/* Without heading s
3063:Core/Src/FAT/ff.c **** 		dp->obj.sclust = fs->cdir;			/* Start at the current directory */
3064:Core/Src/FAT/ff.c **** 	} else
3065:Core/Src/FAT/ff.c **** #endif
3066:Core/Src/FAT/ff.c **** 	{										/* With heading separator */
3067:Core/Src/FAT/ff.c **** 		while (IsSeparator(*path)) path++;	/* Strip separators */
3068:Core/Src/FAT/ff.c **** 		dp->obj.sclust = 0;					/* Start from the root directory */
3069:Core/Src/FAT/ff.c **** 	}
3070:Core/Src/FAT/ff.c **** #if FF_FS_EXFAT
3071:Core/Src/FAT/ff.c **** 	dp->obj.n_frag = 0;	/* Invalidate last fragment counter of the object */
3072:Core/Src/FAT/ff.c **** #if FF_FS_RPATH != 0
3073:Core/Src/FAT/ff.c **** 	if (fs->fs_type == FS_EXFAT && dp->obj.sclust) {	/* exFAT: Retrieve the sub-directory's status */
3074:Core/Src/FAT/ff.c **** 		DIR dj;
ARM GAS  C:\Users\HP-Admin\AppData\Local\Temp\ccY0w7x3.s 			page 66


3075:Core/Src/FAT/ff.c **** 
3076:Core/Src/FAT/ff.c **** 		dp->obj.c_scl = fs->cdc_scl;
3077:Core/Src/FAT/ff.c **** 		dp->obj.c_size = fs->cdc_size;
3078:Core/Src/FAT/ff.c **** 		dp->obj.c_ofs = fs->cdc_ofs;
3079:Core/Src/FAT/ff.c **** 		res = load_obj_xdir(&dj, &dp->obj);
3080:Core/Src/FAT/ff.c **** 		if (res != FR_OK) return res;
3081:Core/Src/FAT/ff.c **** 		dp->obj.objsize = ld_dword(fs->dirbuf + XDIR_FileSize);
3082:Core/Src/FAT/ff.c **** 		dp->obj.stat = fs->dirbuf[XDIR_GenFlags] & 2;
3083:Core/Src/FAT/ff.c **** 	}
3084:Core/Src/FAT/ff.c **** #endif
3085:Core/Src/FAT/ff.c **** #endif
3086:Core/Src/FAT/ff.c **** 
3087:Core/Src/FAT/ff.c **** 	if ((UINT)*path < ' ') {				/* Null path name is the origin directory itself */
3088:Core/Src/FAT/ff.c **** 		dp->fn[NSFLAG] = NS_NONAME;
3089:Core/Src/FAT/ff.c **** 		res = dir_sdi(dp, 0);
3090:Core/Src/FAT/ff.c **** 
3091:Core/Src/FAT/ff.c **** 	} else {								/* Follow path */
3092:Core/Src/FAT/ff.c **** 		for (;;) {
3093:Core/Src/FAT/ff.c **** 			res = create_name(dp, &path);	/* Get a segment name of the path */
3094:Core/Src/FAT/ff.c **** 			if (res != FR_OK) break;
3095:Core/Src/FAT/ff.c **** 			res = dir_find(dp);				/* Find an object with the segment name */
3096:Core/Src/FAT/ff.c **** 			ns = dp->fn[NSFLAG];
3097:Core/Src/FAT/ff.c **** 			if (res != FR_OK) {				/* Failed to find the object */
3098:Core/Src/FAT/ff.c **** 				if (res == FR_NO_FILE) {	/* Object is not found */
3099:Core/Src/FAT/ff.c **** 					if (FF_FS_RPATH && (ns & NS_DOT)) {	/* If dot entry is not exist, stay there */
3100:Core/Src/FAT/ff.c **** 						if (!(ns & NS_LAST)) continue;	/* Continue to follow if not last segment */
3101:Core/Src/FAT/ff.c **** 						dp->fn[NSFLAG] = NS_NONAME;
3102:Core/Src/FAT/ff.c **** 						res = FR_OK;
3103:Core/Src/FAT/ff.c **** 					} else {							/* Could not find the object */
3104:Core/Src/FAT/ff.c **** 						if (!(ns & NS_LAST)) res = FR_NO_PATH;	/* Adjust error code if not last segment */
3105:Core/Src/FAT/ff.c **** 					}
3106:Core/Src/FAT/ff.c **** 				}
3107:Core/Src/FAT/ff.c **** 				break;
3108:Core/Src/FAT/ff.c **** 			}
3109:Core/Src/FAT/ff.c **** 			if (ns & NS_LAST) break;		/* Last segment matched. Function completed. */
3110:Core/Src/FAT/ff.c **** 			/* Get into the sub-directory */
3111:Core/Src/FAT/ff.c **** 			if (!(dp->obj.attr & AM_DIR)) {	/* It is not a sub-directory and cannot follow */
3112:Core/Src/FAT/ff.c **** 				res = FR_NO_PATH; break;
3113:Core/Src/FAT/ff.c **** 			}
3114:Core/Src/FAT/ff.c **** #if FF_FS_EXFAT
3115:Core/Src/FAT/ff.c **** 			if (fs->fs_type == FS_EXFAT) {	/* Save containing directory information for next dir */
3116:Core/Src/FAT/ff.c **** 				dp->obj.c_scl = dp->obj.sclust;
3117:Core/Src/FAT/ff.c **** 				dp->obj.c_size = ((DWORD)dp->obj.objsize & 0xFFFFFF00) | dp->obj.stat;
3118:Core/Src/FAT/ff.c **** 				dp->obj.c_ofs = dp->blk_ofs;
3119:Core/Src/FAT/ff.c **** 				init_alloc_info(fs, &dp->obj);	/* Open next directory */
3120:Core/Src/FAT/ff.c **** 			} else
3121:Core/Src/FAT/ff.c **** #endif
3122:Core/Src/FAT/ff.c **** 			{
3123:Core/Src/FAT/ff.c **** 				dp->obj.sclust = ld_clust(fs, fs->win + dp->dptr % SS(fs));	/* Open next directory */
3124:Core/Src/FAT/ff.c **** 			}
3125:Core/Src/FAT/ff.c **** 		}
3126:Core/Src/FAT/ff.c **** 	}
3127:Core/Src/FAT/ff.c **** 
3128:Core/Src/FAT/ff.c **** 	return res;
3129:Core/Src/FAT/ff.c **** }
3130:Core/Src/FAT/ff.c **** 
3131:Core/Src/FAT/ff.c **** 
ARM GAS  C:\Users\HP-Admin\AppData\Local\Temp\ccY0w7x3.s 			page 67


3132:Core/Src/FAT/ff.c **** 
3133:Core/Src/FAT/ff.c **** 
3134:Core/Src/FAT/ff.c **** /*-----------------------------------------------------------------------*/
3135:Core/Src/FAT/ff.c **** /* Get logical drive number from path name                               */
3136:Core/Src/FAT/ff.c **** /*-----------------------------------------------------------------------*/
3137:Core/Src/FAT/ff.c **** 
3138:Core/Src/FAT/ff.c **** static int get_ldnumber (	/* Returns logical drive number (-1:invalid drive number or null pointer)
3139:Core/Src/FAT/ff.c **** 	const TCHAR** path		/* Pointer to pointer to the path name */
3140:Core/Src/FAT/ff.c **** )
3141:Core/Src/FAT/ff.c **** {
 622              		.loc 1 3141 1 is_stmt 1 view -0
 623              		.cfi_startproc
 624              		@ args = 0, pretend = 0, frame = 0
 625              		@ frame_needed = 0, uses_anonymous_args = 0
 626              		@ link register save eliminated.
 627              		.loc 1 3141 1 is_stmt 0 view .LVU181
 628 0000 0146     		mov	r1, r0
3142:Core/Src/FAT/ff.c **** 	const TCHAR *tp;
 629              		.loc 1 3142 2 is_stmt 1 view .LVU182
3143:Core/Src/FAT/ff.c **** 	const TCHAR *tt;
 630              		.loc 1 3143 2 view .LVU183
3144:Core/Src/FAT/ff.c **** 	TCHAR tc;
 631              		.loc 1 3144 2 view .LVU184
3145:Core/Src/FAT/ff.c **** 	int i;
 632              		.loc 1 3145 2 view .LVU185
3146:Core/Src/FAT/ff.c **** 	int vol = -1;
 633              		.loc 1 3146 2 view .LVU186
 634              	.LVL75:
3147:Core/Src/FAT/ff.c **** #if FF_STR_VOLUME_ID		/* Find string volume ID */
3148:Core/Src/FAT/ff.c **** 	const char *sp;
3149:Core/Src/FAT/ff.c **** 	char c;
3150:Core/Src/FAT/ff.c **** #endif
3151:Core/Src/FAT/ff.c **** 
3152:Core/Src/FAT/ff.c **** 	tt = tp = *path;
 635              		.loc 1 3152 2 view .LVU187
 636              		.loc 1 3152 10 is_stmt 0 view .LVU188
 637 0002 0068     		ldr	r0, [r0]
 638              	.LVL76:
3153:Core/Src/FAT/ff.c **** 	if (!tp) return vol;	/* Invalid path name? */
 639              		.loc 1 3153 2 is_stmt 1 view .LVU189
 640              		.loc 1 3153 5 is_stmt 0 view .LVU190
 641 0004 20B3     		cbz	r0, .L46
3152:Core/Src/FAT/ff.c **** 	if (!tp) return vol;	/* Invalid path name? */
 642              		.loc 1 3152 5 view .LVU191
 643 0006 0246     		mov	r2, r0
 644              	.LVL77:
 645              	.L44:
3154:Core/Src/FAT/ff.c **** 	do {					/* Find a colon in the path */
 646              		.loc 1 3154 2 is_stmt 1 discriminator 2 view .LVU192
3155:Core/Src/FAT/ff.c **** 		tc = *tt++;
 647              		.loc 1 3155 3 discriminator 2 view .LVU193
 648              		.loc 1 3155 6 is_stmt 0 discriminator 2 view .LVU194
 649 0008 1378     		ldrb	r3, [r2]	@ zero_extendqisi2
 650 000a 0132     		adds	r2, r2, #1
 651              	.LVL78:
3156:Core/Src/FAT/ff.c **** 	} while (!IsTerminator(tc) && tc != ':');
 652              		.loc 1 3156 10 is_stmt 1 discriminator 2 view .LVU195
ARM GAS  C:\Users\HP-Admin\AppData\Local\Temp\ccY0w7x3.s 			page 68


 653              		.loc 1 3156 2 is_stmt 0 discriminator 2 view .LVU196
 654 000c 202B     		cmp	r3, #32
 655 000e 01D9     		bls	.L43
 656              		.loc 1 3156 29 discriminator 1 view .LVU197
 657 0010 3A2B     		cmp	r3, #58
 658 0012 F9D1     		bne	.L44
 659              	.L43:
3157:Core/Src/FAT/ff.c **** 
3158:Core/Src/FAT/ff.c **** 	if (tc == ':') {	/* DOS/Windows style volume ID? */
 660              		.loc 1 3158 2 is_stmt 1 view .LVU198
 661              		.loc 1 3158 5 is_stmt 0 view .LVU199
 662 0014 3A2B     		cmp	r3, #58
 663 0016 01D0     		beq	.L51
3159:Core/Src/FAT/ff.c **** 		i = FF_VOLUMES;
3160:Core/Src/FAT/ff.c **** 		if (IsDigit(*tp) && tp + 2 == tt) {	/* Is there a numeric volume ID + colon? */
3161:Core/Src/FAT/ff.c **** 			i = (int)*tp - '0';	/* Get the LD number */
3162:Core/Src/FAT/ff.c **** 		}
3163:Core/Src/FAT/ff.c **** #if FF_STR_VOLUME_ID == 1	/* Arbitrary string is enabled */
3164:Core/Src/FAT/ff.c **** 		else {
3165:Core/Src/FAT/ff.c **** 			i = 0;
3166:Core/Src/FAT/ff.c **** 			do {
3167:Core/Src/FAT/ff.c **** 				sp = VolumeStr[i]; tp = *path;	/* This string volume ID and path name */
3168:Core/Src/FAT/ff.c **** 				do {	/* Compare the volume ID with path name */
3169:Core/Src/FAT/ff.c **** 					c = *sp++; tc = *tp++;
3170:Core/Src/FAT/ff.c **** 					if (IsLower(c)) c -= 0x20;
3171:Core/Src/FAT/ff.c **** 					if (IsLower(tc)) tc -= 0x20;
3172:Core/Src/FAT/ff.c **** 				} while (c && (TCHAR)c == tc);
3173:Core/Src/FAT/ff.c **** 			} while ((c || tp != tt) && ++i < FF_VOLUMES);	/* Repeat for each id until pattern match */
3174:Core/Src/FAT/ff.c **** 		}
3175:Core/Src/FAT/ff.c **** #endif
3176:Core/Src/FAT/ff.c **** 		if (i < FF_VOLUMES) {	/* If a volume ID is found, get the drive number and strip it */
3177:Core/Src/FAT/ff.c **** 			vol = i;		/* Drive number */
3178:Core/Src/FAT/ff.c **** 			*path = tt;		/* Snip the drive prefix off */
3179:Core/Src/FAT/ff.c **** 		}
3180:Core/Src/FAT/ff.c **** 		return vol;
3181:Core/Src/FAT/ff.c **** 	}
3182:Core/Src/FAT/ff.c **** #if FF_STR_VOLUME_ID == 2		/* Unix style volume ID is enabled */
3183:Core/Src/FAT/ff.c **** 	if (*tp == '/') {			/* Is there a volume ID? */
3184:Core/Src/FAT/ff.c **** 		while (*(tp + 1) == '/') tp++;	/* Skip duplicated separator */
3185:Core/Src/FAT/ff.c **** 		i = 0;
3186:Core/Src/FAT/ff.c **** 		do {
3187:Core/Src/FAT/ff.c **** 			tt = tp; sp = VolumeStr[i]; /* Path name and this string volume ID */
3188:Core/Src/FAT/ff.c **** 			do {	/* Compare the volume ID with path name */
3189:Core/Src/FAT/ff.c **** 				c = *sp++; tc = *(++tt);
3190:Core/Src/FAT/ff.c **** 				if (IsLower(c)) c -= 0x20;
3191:Core/Src/FAT/ff.c **** 				if (IsLower(tc)) tc -= 0x20;
3192:Core/Src/FAT/ff.c **** 			} while (c && (TCHAR)c == tc);
3193:Core/Src/FAT/ff.c **** 		} while ((c || (tc != '/' && !IsTerminator(tc))) && ++i < FF_VOLUMES);	/* Repeat for each ID unti
3194:Core/Src/FAT/ff.c **** 		if (i < FF_VOLUMES) {	/* If a volume ID is found, get the drive number and strip it */
3195:Core/Src/FAT/ff.c **** 			vol = i;		/* Drive number */
3196:Core/Src/FAT/ff.c **** 			*path = tt;		/* Snip the drive prefix off */
3197:Core/Src/FAT/ff.c **** 		}
3198:Core/Src/FAT/ff.c **** 		return vol;
3199:Core/Src/FAT/ff.c **** 	}
3200:Core/Src/FAT/ff.c **** #endif
3201:Core/Src/FAT/ff.c **** 	/* No drive prefix is found */
3202:Core/Src/FAT/ff.c **** #if FF_FS_RPATH != 0
ARM GAS  C:\Users\HP-Admin\AppData\Local\Temp\ccY0w7x3.s 			page 69


3203:Core/Src/FAT/ff.c **** 	vol = CurrVol;	/* Default drive is current drive */
3204:Core/Src/FAT/ff.c **** #else
3205:Core/Src/FAT/ff.c **** 	vol = 0;		/* Default drive is 0 */
3206:Core/Src/FAT/ff.c **** #endif
3207:Core/Src/FAT/ff.c **** 	return vol;		/* Return the default drive */
 664              		.loc 1 3207 9 view .LVU200
 665 0018 0020     		movs	r0, #0
 666              	.LVL79:
3208:Core/Src/FAT/ff.c **** }
 667              		.loc 1 3208 1 view .LVU201
 668 001a 7047     		bx	lr
 669              	.LVL80:
 670              	.L51:
3159:Core/Src/FAT/ff.c **** 		i = FF_VOLUMES;
 671              		.loc 1 3159 3 is_stmt 1 view .LVU202
3160:Core/Src/FAT/ff.c **** 			i = (int)*tp - '0';	/* Get the LD number */
 672              		.loc 1 3160 3 view .LVU203
3160:Core/Src/FAT/ff.c **** 			i = (int)*tp - '0';	/* Get the LD number */
 673              		.loc 1 3160 7 is_stmt 0 view .LVU204
 674 001c 0378     		ldrb	r3, [r0]	@ zero_extendqisi2
 675              	.LVL81:
3160:Core/Src/FAT/ff.c **** 			i = (int)*tp - '0';	/* Get the LD number */
 676              		.loc 1 3160 7 view .LVU205
 677 001e A3F1300C 		sub	ip, r3, #48
 678 0022 5FFA8CFC 		uxtb	ip, ip
3160:Core/Src/FAT/ff.c **** 			i = (int)*tp - '0';	/* Get the LD number */
 679              		.loc 1 3160 6 view .LVU206
 680 0026 BCF1090F 		cmp	ip, #9
 681 002a 0ED8     		bhi	.L48
3160:Core/Src/FAT/ff.c **** 			i = (int)*tp - '0';	/* Get the LD number */
 682              		.loc 1 3160 26 discriminator 1 view .LVU207
 683 002c 0230     		adds	r0, r0, #2
 684              	.LVL82:
3160:Core/Src/FAT/ff.c **** 			i = (int)*tp - '0';	/* Get the LD number */
 685              		.loc 1 3160 20 discriminator 1 view .LVU208
 686 002e 9042     		cmp	r0, r2
 687 0030 02D0     		beq	.L52
3146:Core/Src/FAT/ff.c **** #if FF_STR_VOLUME_ID		/* Find string volume ID */
 688              		.loc 1 3146 6 view .LVU209
 689 0032 4FF0FF30 		mov	r0, #-1
 690 0036 7047     		bx	lr
 691              	.L52:
3161:Core/Src/FAT/ff.c **** 		}
 692              		.loc 1 3161 4 is_stmt 1 view .LVU210
3161:Core/Src/FAT/ff.c **** 		}
 693              		.loc 1 3161 6 is_stmt 0 view .LVU211
 694 0038 A3F13000 		sub	r0, r3, #48
 695              	.LVL83:
3176:Core/Src/FAT/ff.c **** 			vol = i;		/* Drive number */
 696              		.loc 1 3176 3 is_stmt 1 view .LVU212
3176:Core/Src/FAT/ff.c **** 			vol = i;		/* Drive number */
 697              		.loc 1 3176 6 is_stmt 0 view .LVU213
 698 003c 0028     		cmp	r0, #0
 699 003e 02DD     		ble	.L53
3146:Core/Src/FAT/ff.c **** #if FF_STR_VOLUME_ID		/* Find string volume ID */
 700              		.loc 1 3146 6 view .LVU214
 701 0040 4FF0FF30 		mov	r0, #-1
ARM GAS  C:\Users\HP-Admin\AppData\Local\Temp\ccY0w7x3.s 			page 70


 702              	.LVL84:
3180:Core/Src/FAT/ff.c **** 	}
 703              		.loc 1 3180 3 is_stmt 1 view .LVU215
3180:Core/Src/FAT/ff.c **** 	}
 704              		.loc 1 3180 10 is_stmt 0 view .LVU216
 705 0044 7047     		bx	lr
 706              	.LVL85:
 707              	.L53:
3177:Core/Src/FAT/ff.c **** 			*path = tt;		/* Snip the drive prefix off */
 708              		.loc 1 3177 4 is_stmt 1 view .LVU217
3178:Core/Src/FAT/ff.c **** 		}
 709              		.loc 1 3178 4 view .LVU218
3178:Core/Src/FAT/ff.c **** 		}
 710              		.loc 1 3178 10 is_stmt 0 view .LVU219
 711 0046 0A60     		str	r2, [r1]
 712              	.LVL86:
3178:Core/Src/FAT/ff.c **** 		}
 713              		.loc 1 3178 10 view .LVU220
 714 0048 7047     		bx	lr
 715              	.LVL87:
 716              	.L48:
3146:Core/Src/FAT/ff.c **** #if FF_STR_VOLUME_ID		/* Find string volume ID */
 717              		.loc 1 3146 6 view .LVU221
 718 004a 4FF0FF30 		mov	r0, #-1
 719              	.LVL88:
3146:Core/Src/FAT/ff.c **** #if FF_STR_VOLUME_ID		/* Find string volume ID */
 720              		.loc 1 3146 6 view .LVU222
 721 004e 7047     		bx	lr
 722              	.LVL89:
 723              	.L46:
3153:Core/Src/FAT/ff.c **** 	do {					/* Find a colon in the path */
 724              		.loc 1 3153 18 view .LVU223
 725 0050 4FF0FF30 		mov	r0, #-1
 726              	.LVL90:
3153:Core/Src/FAT/ff.c **** 	do {					/* Find a colon in the path */
 727              		.loc 1 3153 18 view .LVU224
 728 0054 7047     		bx	lr
 729              		.cfi_endproc
 730              	.LFE27:
 732              		.section	.text.validate,"ax",%progbits
 733              		.align	1
 734              		.syntax unified
 735              		.thumb
 736              		.thumb_func
 738              	validate:
 739              	.LVL91:
 740              	.LFB31:
3209:Core/Src/FAT/ff.c **** 
3210:Core/Src/FAT/ff.c **** 
3211:Core/Src/FAT/ff.c **** 
3212:Core/Src/FAT/ff.c **** 
3213:Core/Src/FAT/ff.c **** /*-----------------------------------------------------------------------*/
3214:Core/Src/FAT/ff.c **** /* GPT support functions                                                 */
3215:Core/Src/FAT/ff.c **** /*-----------------------------------------------------------------------*/
3216:Core/Src/FAT/ff.c **** 
3217:Core/Src/FAT/ff.c **** #if FF_LBA64
3218:Core/Src/FAT/ff.c **** 
ARM GAS  C:\Users\HP-Admin\AppData\Local\Temp\ccY0w7x3.s 			page 71


3219:Core/Src/FAT/ff.c **** /* Calculate CRC32 in byte-by-byte */
3220:Core/Src/FAT/ff.c **** 
3221:Core/Src/FAT/ff.c **** static DWORD crc32 (	/* Returns next CRC value */
3222:Core/Src/FAT/ff.c **** 	DWORD crc,			/* Current CRC value */
3223:Core/Src/FAT/ff.c **** 	BYTE d				/* A byte to be processed */
3224:Core/Src/FAT/ff.c **** )
3225:Core/Src/FAT/ff.c **** {
3226:Core/Src/FAT/ff.c **** 	BYTE b;
3227:Core/Src/FAT/ff.c **** 
3228:Core/Src/FAT/ff.c **** 
3229:Core/Src/FAT/ff.c **** 	for (b = 1; b; b <<= 1) {
3230:Core/Src/FAT/ff.c **** 		crc ^= (d & b) ? 1 : 0;
3231:Core/Src/FAT/ff.c **** 		crc = (crc & 1) ? crc >> 1 ^ 0xEDB88320 : crc >> 1;
3232:Core/Src/FAT/ff.c **** 	}
3233:Core/Src/FAT/ff.c **** 	return crc;
3234:Core/Src/FAT/ff.c **** }
3235:Core/Src/FAT/ff.c **** 
3236:Core/Src/FAT/ff.c **** 
3237:Core/Src/FAT/ff.c **** /* Check validity of GPT header */
3238:Core/Src/FAT/ff.c **** 
3239:Core/Src/FAT/ff.c **** static int test_gpt_header (	/* 0:Invalid, 1:Valid */
3240:Core/Src/FAT/ff.c **** 	const BYTE* gpth			/* Pointer to the GPT header */
3241:Core/Src/FAT/ff.c **** )
3242:Core/Src/FAT/ff.c **** {
3243:Core/Src/FAT/ff.c **** 	UINT i;
3244:Core/Src/FAT/ff.c **** 	DWORD bcc, hlen;
3245:Core/Src/FAT/ff.c **** 
3246:Core/Src/FAT/ff.c **** 
3247:Core/Src/FAT/ff.c **** 	if (memcmp(gpth + GPTH_Sign, "EFI PART" "\0\0\1", 12)) return 0;	/* Check signature and version (1
3248:Core/Src/FAT/ff.c **** 	hlen = ld_dword(gpth + GPTH_Size);						/* Check header size */
3249:Core/Src/FAT/ff.c **** 	if (hlen < 92 || hlen > FF_MIN_SS) return 0;
3250:Core/Src/FAT/ff.c **** 	for (i = 0, bcc = 0xFFFFFFFF; i < hlen; i++) {			/* Check header BCC */
3251:Core/Src/FAT/ff.c **** 		bcc = crc32(bcc, i - GPTH_Bcc < 4 ? 0 : gpth[i]);
3252:Core/Src/FAT/ff.c **** 	}
3253:Core/Src/FAT/ff.c **** 	if (~bcc != ld_dword(gpth + GPTH_Bcc)) return 0;
3254:Core/Src/FAT/ff.c **** 	if (ld_dword(gpth + GPTH_PteSize) != SZ_GPTE) return 0;	/* Table entry size (must be SZ_GPTE bytes
3255:Core/Src/FAT/ff.c **** 	if (ld_dword(gpth + GPTH_PtNum) > 128) return 0;		/* Table size (must be 128 entries or less) */
3256:Core/Src/FAT/ff.c **** 
3257:Core/Src/FAT/ff.c **** 	return 1;
3258:Core/Src/FAT/ff.c **** }
3259:Core/Src/FAT/ff.c **** 
3260:Core/Src/FAT/ff.c **** #if !FF_FS_READONLY && FF_USE_MKFS
3261:Core/Src/FAT/ff.c **** 
3262:Core/Src/FAT/ff.c **** /* Generate random value */
3263:Core/Src/FAT/ff.c **** static DWORD make_rand (
3264:Core/Src/FAT/ff.c **** 	DWORD seed,		/* Seed value */
3265:Core/Src/FAT/ff.c **** 	BYTE *buff,		/* Output buffer */
3266:Core/Src/FAT/ff.c **** 	UINT n			/* Data length */
3267:Core/Src/FAT/ff.c **** )
3268:Core/Src/FAT/ff.c **** {
3269:Core/Src/FAT/ff.c **** 	UINT r;
3270:Core/Src/FAT/ff.c **** 
3271:Core/Src/FAT/ff.c **** 
3272:Core/Src/FAT/ff.c **** 	if (seed == 0) seed = 1;
3273:Core/Src/FAT/ff.c **** 	do {
3274:Core/Src/FAT/ff.c **** 		for (r = 0; r < 8; r++) seed = seed & 1 ? seed >> 1 ^ 0xA3000000 : seed >> 1;	/* Shift 8 bits the
3275:Core/Src/FAT/ff.c **** 		*buff++ = (BYTE)seed;
ARM GAS  C:\Users\HP-Admin\AppData\Local\Temp\ccY0w7x3.s 			page 72


3276:Core/Src/FAT/ff.c **** 	} while (--n);
3277:Core/Src/FAT/ff.c **** 	return seed;
3278:Core/Src/FAT/ff.c **** }
3279:Core/Src/FAT/ff.c **** 
3280:Core/Src/FAT/ff.c **** #endif
3281:Core/Src/FAT/ff.c **** #endif
3282:Core/Src/FAT/ff.c **** 
3283:Core/Src/FAT/ff.c **** 
3284:Core/Src/FAT/ff.c **** 
3285:Core/Src/FAT/ff.c **** /*-----------------------------------------------------------------------*/
3286:Core/Src/FAT/ff.c **** /* Load a sector and check if it is an FAT VBR                           */
3287:Core/Src/FAT/ff.c **** /*-----------------------------------------------------------------------*/
3288:Core/Src/FAT/ff.c **** 
3289:Core/Src/FAT/ff.c **** /* Check what the sector is */
3290:Core/Src/FAT/ff.c **** 
3291:Core/Src/FAT/ff.c **** static UINT check_fs (	/* 0:FAT/FAT32 VBR, 1:exFAT VBR, 2:Not FAT and valid BS, 3:Not FAT and inval
3292:Core/Src/FAT/ff.c **** 	FATFS* fs,			/* Filesystem object */
3293:Core/Src/FAT/ff.c **** 	LBA_t sect			/* Sector to load and check if it is an FAT-VBR or not */
3294:Core/Src/FAT/ff.c **** )
3295:Core/Src/FAT/ff.c **** {
3296:Core/Src/FAT/ff.c **** 	WORD w, sign;
3297:Core/Src/FAT/ff.c **** 	BYTE b;
3298:Core/Src/FAT/ff.c **** 
3299:Core/Src/FAT/ff.c **** 
3300:Core/Src/FAT/ff.c **** 	fs->wflag = 0; fs->winsect = (LBA_t)0 - 1;		/* Invaidate window */
3301:Core/Src/FAT/ff.c **** 	if (move_window(fs, sect) != FR_OK) return 4;	/* Load the boot sector */
3302:Core/Src/FAT/ff.c **** 	sign = ld_word(fs->win + BS_55AA);
3303:Core/Src/FAT/ff.c **** #if FF_FS_EXFAT
3304:Core/Src/FAT/ff.c **** 	if (sign == 0xAA55 && !memcmp(fs->win + BS_JmpBoot, "\xEB\x76\x90" "EXFAT   ", 11)) return 1;	/* I
3305:Core/Src/FAT/ff.c **** #endif
3306:Core/Src/FAT/ff.c **** 	b = fs->win[BS_JmpBoot];
3307:Core/Src/FAT/ff.c **** 	if (b == 0xEB || b == 0xE9 || b == 0xE8) {	/* Valid JumpBoot code? (short jump, near jump or near 
3308:Core/Src/FAT/ff.c **** 		if (sign == 0xAA55 && !memcmp(fs->win + BS_FilSysType32, "FAT32   ", 8)) {
3309:Core/Src/FAT/ff.c **** 			return 0;	/* It is an FAT32 VBR */
3310:Core/Src/FAT/ff.c **** 		}
3311:Core/Src/FAT/ff.c **** 		/* FAT volumes formatted with early MS-DOS lack BS_55AA and BS_FilSysType, so FAT VBR needs to be
3312:Core/Src/FAT/ff.c **** 		w = ld_word(fs->win + BPB_BytsPerSec);
3313:Core/Src/FAT/ff.c **** 		b = fs->win[BPB_SecPerClus];
3314:Core/Src/FAT/ff.c **** 		if ((w & (w - 1)) == 0 && w >= FF_MIN_SS && w <= FF_MAX_SS	/* Properness of sector size (512-4096
3315:Core/Src/FAT/ff.c **** 			&& b != 0 && (b & (b - 1)) == 0				/* Properness of cluster size (2^n) */
3316:Core/Src/FAT/ff.c **** 			&& ld_word(fs->win + BPB_RsvdSecCnt) != 0	/* Properness of reserved sectors (MNBZ) */
3317:Core/Src/FAT/ff.c **** 			&& (UINT)fs->win[BPB_NumFATs] - 1 <= 1		/* Properness of FATs (1 or 2) */
3318:Core/Src/FAT/ff.c **** 			&& ld_word(fs->win + BPB_RootEntCnt) != 0	/* Properness of root dir entries (MNBZ) */
3319:Core/Src/FAT/ff.c **** 			&& (ld_word(fs->win + BPB_TotSec16) >= 128 || ld_dword(fs->win + BPB_TotSec32) >= 0x10000)	/* Pr
3320:Core/Src/FAT/ff.c **** 			&& ld_word(fs->win + BPB_FATSz16) != 0) {	/* Properness of FAT size (MNBZ) */
3321:Core/Src/FAT/ff.c **** 				return 0;	/* It can be presumed an FAT VBR */
3322:Core/Src/FAT/ff.c **** 		}
3323:Core/Src/FAT/ff.c **** 	}
3324:Core/Src/FAT/ff.c **** 	return sign == 0xAA55 ? 2 : 3;	/* Not an FAT VBR (valid or invalid BS) */
3325:Core/Src/FAT/ff.c **** }
3326:Core/Src/FAT/ff.c **** 
3327:Core/Src/FAT/ff.c **** 
3328:Core/Src/FAT/ff.c **** /* Find an FAT volume */
